
aqeous.bin:     file format elf32-i386


Disassembly of section .text:

00100000 <AP_startup_Code-0x10>:
  100000:	02 b0 ad 1b 03 00    	add    0x31bad(%eax),%dh
  100006:	00 00                	add    %al,(%eax)
  100008:	fb                   	sti    
  100009:	4f                   	dec    %edi
  10000a:	52                   	push   %edx
  10000b:	e4 66                	in     $0x66,%al
  10000d:	90                   	nop
  10000e:	66 90                	xchg   %ax,%ax

00100010 <AP_startup_Code>:
  100010:	fa                   	cli    
  100011:	31 c0                	xor    %eax,%eax
  100013:	8e d8                	mov    %eax,%ds
  100015:	8e c0                	mov    %eax,%es
  100017:	8e e0                	mov    %eax,%fs
  100019:	8e e8                	mov    %eax,%gs
  10001b:	8e d0                	mov    %eax,%ss
  10001d:	66 31 e4             	xor    %sp,%sp
  100020:	bc 84 42 66 31       	mov    $0x31664284,%esp
  100025:	c0 66 ba 10          	shlb   $0x10,-0x46(%esi)
  100029:	00 00                	add    %al,(%eax)
  10002b:	00 0f                	add    %cl,(%edi)
  10002d:	22 c2                	and    %dl,%al
  10002f:	be 40 32 3e 0f       	mov    $0xf3e3240,%esi
  100034:	01 14 be             	add    %edx,(%esi,%edi,4)
  100037:	50                   	push   %eax
  100038:	32 3e                	xor    (%esi),%bh
  10003a:	0f 01 1c 0f          	lidtl  (%edi,%ecx,1)
  10003e:	20 c0                	and    %al,%al
  100040:	66 83 c8 01          	or     $0x1,%ax
  100044:	0f 22 c0             	mov    %eax,%cr0
  100047:	b8 10 00 8e d8       	mov    $0xd88e0010,%eax
  10004c:	8e c0                	mov    %eax,%es
  10004e:	8e e0                	mov    %eax,%fs
  100050:	8e e8                	mov    %eax,%gs
  100052:	8e d0                	mov    %eax,%ss
  100054:	b8 01 00 00 00       	mov    $0x1,%eax
  100059:	66 bb 00 05          	mov    $0x500,%bx
  10005d:	3e 67 83 07 01       	addl   $0x1,%ds:(%bx)
  100062:	ea 00 10 00 00 08 00 	ljmp   $0x8,$0x1000
  100069:	f4                   	hlt    

0010006a <AP_startup_Code_end>:
  10006a:	c3                   	ret    

0010006b <INTbasedPmodeTrampoline>:
  10006b:	58                   	pop    %eax
  10006c:	58                   	pop    %eax
  10006d:	5b                   	pop    %ebx
  10006e:	58                   	pop    %eax
  10006f:	b8 00 05 00 00       	mov    $0x500,%eax
  100074:	83 00 01             	addl   $0x1,(%eax)
  100077:	b8 20 00 e0 fe       	mov    $0xfee00020,%eax
  10007c:	8b 00                	mov    (%eax),%eax
  10007e:	c1 e8 0b             	shr    $0xb,%eax
  100081:	05 10 10 00 00       	add    $0x1010,%eax
  100086:	03 05 28 94 16 00    	add    0x169428,%eax
  10008c:	bb 00 00 00 00       	mov    $0x0,%ebx
  100091:	53                   	push   %ebx
  100092:	bb 02 02 00 00       	mov    $0x202,%ebx
  100097:	53                   	push   %ebx
  100098:	bb 08 00 00 00       	mov    $0x8,%ebx
  10009d:	53                   	push   %ebx
  10009e:	50                   	push   %eax
  10009f:	cf                   	iret   

001000a0 <pmode_AP_code>:
  1000a0:	a1 99 55 00 00       	mov    0x5599,%eax
  1000a5:	83 f8 00             	cmp    $0x0,%eax
  1000a8:	74 f6                	je     1000a0 <pmode_AP_code>
  1000aa:	3d 84 42 00 00       	cmp    $0x4284,%eax
  1000af:	74 15                	je     1000c6 <AP_enable_Paging>
  1000b1:	3d 40 32 00 00       	cmp    $0x3240,%eax
  1000b6:	75 e8                	jne    1000a0 <pmode_AP_code>
  1000b8:	b8 b0 00 e0 fe       	mov    $0xfee000b0,%eax
  1000bd:	c7 00 00 00 00 00    	movl   $0x0,(%eax)
  1000c3:	cd 32                	int    $0x32
  1000c5:	f4                   	hlt    

001000c6 <AP_enable_Paging>:
  1000c6:	fa                   	cli    
  1000c7:	b8 70 03 e0 fe       	mov    $0xfee00370,%eax
  1000cc:	c7 00 1f 00 00 00    	movl   $0x1f,(%eax)
  1000d2:	b8 80 00 e0 fe       	mov    $0xfee00080,%eax
  1000d7:	c7 00 00 00 00 00    	movl   $0x0,(%eax)
  1000dd:	b8 e0 00 e0 fe       	mov    $0xfee000e0,%eax
  1000e2:	c7 00 ff ff ff ff    	movl   $0xffffffff,(%eax)
  1000e8:	b8 d0 00 e0 fe       	mov    $0xfee000d0,%eax
  1000ed:	c7 00 00 00 00 01    	movl   $0x1000000,(%eax)
  1000f3:	b8 f0 00 e0 fe       	mov    $0xfee000f0,%eax
  1000f8:	c7 00 ff 01 00 00    	movl   $0x1ff,(%eax)
  1000fe:	b8 e0 03 e0 fe       	mov    $0xfee003e0,%eax
  100103:	c7 00 03 00 00 00    	movl   $0x3,(%eax)
  100109:	b8 80 03 e0 fe       	mov    $0xfee00380,%eax
  10010e:	c7 00 ff ff ff ff    	movl   $0xffffffff,(%eax)
  100114:	b8 20 03 e0 fe       	mov    $0xfee00320,%eax
  100119:	c7 00 00 00 01 00    	movl   $0x10000,(%eax)
  10011f:	c7 00 33 00 00 00    	movl   $0x33,(%eax)
  100125:	b8 e0 03 e0 fe       	mov    $0xfee003e0,%eax
  10012a:	c7 00 03 00 00 00    	movl   $0x3,(%eax)
  100130:	b8 80 03 e0 fe       	mov    $0xfee00380,%eax
  100135:	c7 00 01 00 00 00    	movl   $0x1,(%eax)
  10013b:	a1 98 95 16 00       	mov    0x169598,%eax
  100140:	0f 22 d8             	mov    %eax,%cr3
  100143:	b8 11 00 00 80       	mov    $0x80000011,%eax
  100148:	0f 22 c0             	mov    %eax,%cr0
  10014b:	e9 50 ff ff ff       	jmp    1000a0 <pmode_AP_code>

00100150 <pmode_AP_code_end>:
  100150:	c3                   	ret    

00100151 <APIC_Error_vector>:
  100151:	83 05 79 66 00 00 01 	addl   $0x1,0x6679
  100158:	f4                   	hlt    
  100159:	c3                   	ret    

0010015a <APIC_Error_vector_end>:
  10015a:	c3                   	ret    

0010015b <abcdt1>:
  10015b:	f4                   	hlt    
  10015c:	66 90                	xchg   %ax,%ax
  10015e:	66 90                	xchg   %ax,%ax

00100160 <trial_code>:
  100160:	f4                   	hlt    

00100161 <Enable_SSE>:
  100161:	0f 20 c0             	mov    %cr0,%eax
  100164:	66 83 e0 fb          	and    $0xfffb,%ax
  100168:	66 83 c8 02          	or     $0x2,%ax
  10016c:	0f 22 c0             	mov    %eax,%cr0
  10016f:	0f 20 e0             	mov    %cr4,%eax
  100172:	66 0d 00 06          	or     $0x600,%ax
  100176:	0f 22 e0             	mov    %eax,%cr4
  100179:	c3                   	ret    

0010017a <check_SSE>:
  10017a:	b8 01 00 00 00       	mov    $0x1,%eax
  10017f:	0f a2                	cpuid  
  100181:	f7 c2 00 00 00 02    	test   $0x2000000,%edx
  100187:	74 01                	je     10018a <No_SSE>
  100189:	c3                   	ret    

0010018a <No_SSE>:
  10018a:	b8 00 00 00 00       	mov    $0x0,%eax
  10018f:	a3 34 30 15 00       	mov    %eax,0x153034

00100194 <memcpy_sse>:
  100194:	8b 7c 24 04          	mov    0x4(%esp),%edi
  100198:	8b 74 24 08          	mov    0x8(%esp),%esi
  10019c:	8b 5c 24 0c          	mov    0xc(%esp),%ebx

001001a0 <loop_copy>:
  1001a0:	0f 18 86 80 00 00 00 	prefetchnta 0x80(%esi)
  1001a7:	0f 18 86 a0 00 00 00 	prefetchnta 0xa0(%esi)
  1001ae:	0f 18 86 c0 00 00 00 	prefetchnta 0xc0(%esi)
  1001b5:	0f 18 86 e0 00 00 00 	prefetchnta 0xe0(%esi)
  1001bc:	66 0f 6f 06          	movdqa (%esi),%xmm0
  1001c0:	66 0f 6f 4e 10       	movdqa 0x10(%esi),%xmm1
  1001c5:	66 0f 6f 56 20       	movdqa 0x20(%esi),%xmm2
  1001ca:	66 0f 6f 5e 30       	movdqa 0x30(%esi),%xmm3
  1001cf:	66 0f 6f 66 40       	movdqa 0x40(%esi),%xmm4
  1001d4:	66 0f 6f 6e 50       	movdqa 0x50(%esi),%xmm5
  1001d9:	66 0f 6f 76 60       	movdqa 0x60(%esi),%xmm6
  1001de:	66 0f 6f 7e 70       	movdqa 0x70(%esi),%xmm7
  1001e3:	66 0f e7 07          	movntdq %xmm0,(%edi)
  1001e7:	66 0f e7 4f 10       	movntdq %xmm1,0x10(%edi)
  1001ec:	66 0f e7 57 20       	movntdq %xmm2,0x20(%edi)
  1001f1:	66 0f e7 5f 30       	movntdq %xmm3,0x30(%edi)
  1001f6:	66 0f e7 67 40       	movntdq %xmm4,0x40(%edi)
  1001fb:	66 0f e7 6f 50       	movntdq %xmm5,0x50(%edi)
  100200:	66 0f e7 77 60       	movntdq %xmm6,0x60(%edi)
  100205:	66 0f e7 7f 70       	movntdq %xmm7,0x70(%edi)
  10020a:	81 c6 80 00 00 00    	add    $0x80,%esi
  100210:	81 c7 80 00 00 00    	add    $0x80,%edi
  100216:	4b                   	dec    %ebx
  100217:	75 87                	jne    1001a0 <loop_copy>
  100219:	c3                   	ret    

0010021a <memset_sse>:
  10021a:	8b 7c 24 04          	mov    0x4(%esp),%edi
  10021e:	8b 44 24 08          	mov    0x8(%esp),%eax
  100222:	8b 5c 24 0c          	mov    0xc(%esp),%ebx

00100226 <loop_copy2>:
  100226:	66 0f e7 07          	movntdq %xmm0,(%edi)
  10022a:	66 0f e7 4f 10       	movntdq %xmm1,0x10(%edi)
  10022f:	66 0f e7 57 20       	movntdq %xmm2,0x20(%edi)
  100234:	66 0f e7 5f 30       	movntdq %xmm3,0x30(%edi)
  100239:	66 0f e7 67 40       	movntdq %xmm4,0x40(%edi)
  10023e:	66 0f e7 6f 50       	movntdq %xmm5,0x50(%edi)
  100243:	66 0f e7 77 60       	movntdq %xmm6,0x60(%edi)
  100248:	66 0f e7 7f 70       	movntdq %xmm7,0x70(%edi)
  10024d:	81 c6 80 00 00 00    	add    $0x80,%esi
  100253:	81 c7 80 00 00 00    	add    $0x80,%edi
  100259:	4b                   	dec    %ebx
  10025a:	75 ca                	jne    100226 <loop_copy2>
  10025c:	c3                   	ret    

0010025d <memcpy_rep>:
  10025d:	8b 7c 24 04          	mov    0x4(%esp),%edi
  100261:	8b 74 24 08          	mov    0x8(%esp),%esi
  100265:	8b 4c 24 0c          	mov    0xc(%esp),%ecx
  100269:	f3 a5                	rep movsl %ds:(%esi),%es:(%edi)
  10026b:	c3                   	ret    

0010026c <_start>:
  10026c:	54                   	push   %esp
  10026d:	e8 0e aa 01 00       	call   11ac80 <kernel_early>
  100272:	e8 59 ac 01 00       	call   11aed0 <kernel_start>
  100277:	e8 64 ac 01 00       	call   11aee0 <kernel_main>
  10027c:	fa                   	cli    
  10027d:	f4                   	hlt    
  10027e:	eb fd                	jmp    10027d <_start+0x11>

00100280 <lgdt>:
  100280:	8b 44 24 04          	mov    0x4(%esp),%eax
  100284:	0f 01 10             	lgdtl  (%eax)
  100287:	66 b8 10 00          	mov    $0x10,%ax
  10028b:	8e d8                	mov    %eax,%ds
  10028d:	8e c0                	mov    %eax,%es
  10028f:	8e e0                	mov    %eax,%fs
  100291:	8e e8                	mov    %eax,%gs
  100293:	8e d0                	mov    %eax,%ss
  100295:	ea 9c 02 10 00 08 00 	ljmp   $0x8,$0x10029c

0010029c <flush>:
  10029c:	c3                   	ret    

0010029d <lidt>:
  10029d:	8b 44 24 04          	mov    0x4(%esp),%eax
  1002a1:	0f 01 18             	lidtl  (%eax)
  1002a4:	c3                   	ret    
  1002a5:	66 90                	xchg   %ax,%ax
  1002a7:	66 90                	xchg   %ax,%ax
  1002a9:	66 90                	xchg   %ax,%ax
  1002ab:	66 90                	xchg   %ax,%ax
  1002ad:	66 90                	xchg   %ax,%ax
  1002af:	90                   	nop

001002b0 <pageFault_handler>:
  1002b0:	fa                   	cli    
  1002b1:	60                   	pusha  
  1002b2:	0f 20 d8             	mov    %cr3,%eax
  1002b5:	a3 c8 95 16 00       	mov    %eax,0x1695c8
  1002ba:	a1 98 95 16 00       	mov    0x169598,%eax
  1002bf:	0f 22 d8             	mov    %eax,%cr3
  1002c2:	89 e0                	mov    %esp,%eax
  1002c4:	a3 bc 95 16 00       	mov    %eax,0x1695bc
  1002c9:	0f 20 d0             	mov    %cr2,%eax
  1002cc:	a3 c4 95 16 00       	mov    %eax,0x1695c4
  1002d1:	e8 4a 2e 00 00       	call   103120 <pageFault_caller>
  1002d6:	a1 bc 95 16 00       	mov    0x1695bc,%eax
  1002db:	89 c4                	mov    %eax,%esp
  1002dd:	61                   	popa   
  1002de:	50                   	push   %eax
  1002df:	b8 b0 00 e0 fe       	mov    $0xfee000b0,%eax
  1002e4:	c7 00 00 00 00 00    	movl   $0x0,(%eax)
  1002ea:	58                   	pop    %eax
  1002eb:	a3 cc 95 16 00       	mov    %eax,0x1695cc
  1002f0:	a1 c8 95 16 00       	mov    0x1695c8,%eax
  1002f5:	0f 22 d8             	mov    %eax,%cr3
  1002f8:	a1 cc 95 16 00       	mov    0x1695cc,%eax
  1002fd:	cf                   	iret   

001002fe <kb_handle>:
  1002fe:	fa                   	cli    
  1002ff:	60                   	pusha  
  100300:	89 e0                	mov    %esp,%eax
  100302:	a3 bc 95 16 00       	mov    %eax,0x1695bc
  100307:	e8 e4 2e 00 00       	call   1031f0 <keyboardInterrupt_handler>
  10030c:	a1 bc 95 16 00       	mov    0x1695bc,%eax
  100311:	89 c4                	mov    %eax,%esp
  100313:	61                   	popa   
  100314:	50                   	push   %eax
  100315:	b8 b0 00 e0 fe       	mov    $0xfee000b0,%eax
  10031a:	c7 00 00 00 00 00    	movl   $0x0,(%eax)
  100320:	52                   	push   %edx
  100321:	66 ba 20 00          	mov    $0x20,%dx
  100325:	66 b8 20 00          	mov    $0x20,%ax
  100329:	66 ef                	out    %ax,(%dx)
  10032b:	5a                   	pop    %edx
  10032c:	58                   	pop    %eax
  10032d:	cf                   	iret   

0010032e <mouse_handle>:
  10032e:	50                   	push   %eax
  10032f:	b8 b0 00 e0 fe       	mov    $0xfee000b0,%eax
  100334:	c7 00 00 00 00 00    	movl   $0x0,(%eax)
  10033a:	52                   	push   %edx
  10033b:	66 ba 20 00          	mov    $0x20,%dx
  10033f:	66 b8 20 00          	mov    $0x20,%ax
  100343:	66 ef                	out    %ax,(%dx)
  100345:	5a                   	pop    %edx
  100346:	58                   	pop    %eax
  100347:	cf                   	iret   

00100348 <test_ttt>:
  100348:	fa                   	cli    
  100349:	60                   	pusha  
  10034a:	89 e0                	mov    %esp,%eax
  10034c:	a3 bc 95 16 00       	mov    %eax,0x1695bc
  100351:	e8 7a 20 00 00       	call   1023d0 <ttt_t>
  100356:	a1 bc 95 16 00       	mov    0x1695bc,%eax
  10035b:	89 c4                	mov    %eax,%esp
  10035d:	61                   	popa   
  10035e:	50                   	push   %eax
  10035f:	b8 b0 00 e0 fe       	mov    $0xfee000b0,%eax
  100364:	c7 00 00 00 00 00    	movl   $0x0,(%eax)
  10036a:	58                   	pop    %eax
  10036b:	cf                   	iret   
  10036c:	66 90                	xchg   %ax,%ax
  10036e:	66 90                	xchg   %ax,%ax

00100370 <Scheduler_t>:
  100370:	8b 15 d1 ab 84 42    	mov    0x4284abd1,%edx
  100376:	a1 d2 ab 84 42       	mov    0x4284abd2,%eax
  10037b:	83 f8 00             	cmp    $0x0,%eax
  10037e:	0f 85 b7 00 00 00    	jne    10043b <Bottom_Schedule_t>
  100384:	8b 02                	mov    (%edx),%eax
  100386:	83 f8 01             	cmp    $0x1,%eax
  100389:	74 44                	je     1003cf <StepDown_Schedule_t>
  10038b:	89 d0                	mov    %edx,%eax
  10038d:	83 c0 04             	add    $0x4,%eax
  100390:	8b 1a                	mov    (%edx),%ebx
  100392:	c1 e3 02             	shl    $0x2,%ebx
  100395:	01 d3                	add    %edx,%ebx
  100397:	83 2a 01             	subl   $0x1,(%edx)
  10039a:	81 c2 00 10 00 00    	add    $0x1000,%edx
  1003a0:	83 02 01             	addl   $0x1,(%edx)
  1003a3:	8b 0a                	mov    (%edx),%ecx
  1003a5:	c1 e1 02             	shl    $0x2,%ecx
  1003a8:	01 d1                	add    %edx,%ecx
  1003aa:	8b 10                	mov    (%eax),%edx
  1003ac:	89 11                	mov    %edx,(%ecx)
  1003ae:	8b 13                	mov    (%ebx),%edx
  1003b0:	89 10                	mov    %edx,(%eax)
  1003b2:	c7 03 00 00 00 00    	movl   $0x0,(%ebx)
  1003b8:	8b 19                	mov    (%ecx),%ebx
  1003ba:	89 1d d4 ab 84 42    	mov    %ebx,0x4284abd4
  1003c0:	89 4b 18             	mov    %ecx,0x18(%ebx)
  1003c3:	c7 05 d6 ab 84 42 10 	movl   $0x2710,0x4284abd6
  1003ca:	27 00 00 
  1003cd:	c3                   	ret    

001003ce <HALT>:
  1003ce:	f4                   	hlt    

001003cf <StepDown_Schedule_t>:
  1003cf:	89 d0                	mov    %edx,%eax
  1003d1:	83 c0 04             	add    $0x4,%eax
  1003d4:	83 2a 01             	subl   $0x1,(%edx)
  1003d7:	81 c2 00 10 00 00    	add    $0x1000,%edx
  1003dd:	83 02 01             	addl   $0x1,(%edx)
  1003e0:	8b 0a                	mov    (%edx),%ecx
  1003e2:	c1 e1 02             	shl    $0x2,%ecx
  1003e5:	01 d1                	add    %edx,%ecx
  1003e7:	8b 18                	mov    (%eax),%ebx
  1003e9:	89 19                	mov    %ebx,(%ecx)
  1003eb:	c7 00 00 00 00 00    	movl   $0x0,(%eax)
  1003f1:	89 1d d4 ab 84 42    	mov    %ebx,0x4284abd4
  1003f7:	89 4b 18             	mov    %ecx,0x18(%ebx)
  1003fa:	89 15 d1 ab 84 42    	mov    %edx,0x4284abd1
  100400:	89 d3                	mov    %edx,%ebx
  100402:	a1 d5 ab 84 42       	mov    0x4284abd5,%eax
  100407:	39 d8                	cmp    %ebx,%eax
  100409:	74 13                	je     10041e <bottomReached_exit_t>
  10040b:	a1 d1 ab 84 42       	mov    0x4284abd1,%eax
  100410:	25 ff ff 0f 00       	and    $0xfffff,%eax
  100415:	c1 e8 05             	shr    $0x5,%eax
  100418:	a3 d6 ab 84 42       	mov    %eax,0x4284abd6
  10041d:	c3                   	ret    

0010041e <bottomReached_exit_t>:
  10041e:	c7 05 d2 ab 84 42 01 	movl   $0x1,0x4284abd2
  100425:	00 00 00 
  100428:	a1 d1 ab 84 42       	mov    0x4284abd1,%eax
  10042d:	25 ff ff 0f 00       	and    $0xfffff,%eax
  100432:	c1 e8 05             	shr    $0x5,%eax
  100435:	a3 d6 ab 84 42       	mov    %eax,0x4284abd6
  10043a:	c3                   	ret    

0010043b <Bottom_Schedule_t>:
  10043b:	8b 02                	mov    (%edx),%eax
  10043d:	8b 1d d3 ab 84 42    	mov    0x4284abd3,%ebx
  100443:	39 c3                	cmp    %eax,%ebx
  100445:	7c 3c                	jl     100483 <alternate_flow_t>
  100447:	c7 05 d3 ab 84 42 01 	movl   $0x1,0x4284abd3
  10044e:	00 00 00 
  100451:	eb 00                	jmp    100453 <back_t>

00100453 <back_t>:
  100453:	c1 e3 02             	shl    $0x2,%ebx
  100456:	01 d3                	add    %edx,%ebx
  100458:	83 3b 00             	cmpl   $0x0,(%ebx)
  10045b:	75 09                	jne    100466 <option1_t>
  10045d:	83 05 d3 ab 84 42 01 	addl   $0x1,0x4284abd3
  100464:	eb ed                	jmp    100453 <back_t>

00100466 <option1_t>:
  100466:	8b 03                	mov    (%ebx),%eax
  100468:	a3 d4 ab 84 42       	mov    %eax,0x4284abd4
  10046d:	89 58 18             	mov    %ebx,0x18(%eax)
  100470:	a1 d1 ab 84 42       	mov    0x4284abd1,%eax
  100475:	25 ff ff 0f 00       	and    $0xfffff,%eax
  10047a:	c1 e8 05             	shr    $0x5,%eax
  10047d:	a3 d6 ab 84 42       	mov    %eax,0x4284abd6
  100482:	c3                   	ret    

00100483 <alternate_flow_t>:
  100483:	83 05 d3 ab 84 42 01 	addl   $0x1,0x4284abd3
  10048a:	eb c7                	jmp    100453 <back_t>

0010048c <Scheduler_end_t>:
  10048c:	66 90                	xchg   %ax,%ax
  10048e:	66 90                	xchg   %ax,%ax

00100490 <switcher_ksp_t>:
  100490:	fa                   	cli    
  100491:	60                   	pusha  
  100492:	b8 80 03 e0 fe       	mov    $0xfee00380,%eax
  100497:	c7 00 00 00 00 00    	movl   $0x0,(%eax)
  10049d:	8b 1d d1 ac 84 42    	mov    0x4284acd1,%ebx
  1004a3:	a1 d2 ac 84 42       	mov    0x4284acd2,%eax
  1004a8:	39 d8                	cmp    %ebx,%eax
  1004aa:	74 7d                	je     100529 <cw_ksp_ss_t>
  1004ac:	a1 d2 ac 84 42       	mov    0x4284acd2,%eax
  1004b1:	0f 22 d8             	mov    %eax,%cr3
  1004b4:	8b 1d d1 ac 84 42    	mov    0x4284acd1,%ebx
  1004ba:	a1 d3 ac 84 42       	mov    0x4284acd3,%eax
  1004bf:	a3 d4 ac 84 42       	mov    %eax,0x4284acd4
  1004c4:	89 58 0c             	mov    %ebx,0xc(%eax)
  1004c7:	89 20                	mov    %esp,(%eax)
  1004c9:	bc 00 cd 84 42       	mov    $0x4284cd00,%esp
  1004ce:	ff 15 d5 ac 84 42    	call   *0x4284acd5
  1004d4:	8b 1d d1 ac 84 42    	mov    0x4284acd1,%ebx
  1004da:	a1 d3 ac 84 42       	mov    0x4284acd3,%eax
  1004df:	8b 40 0c             	mov    0xc(%eax),%eax
  1004e2:	39 d8                	cmp    %ebx,%eax
  1004e4:	0f 84 a2 00 00 00    	je     10058c <cw_p2_ndc_c_t>
  1004ea:	a1 d3 ac 84 42       	mov    0x4284acd3,%eax
  1004ef:	a1 d3 ac 84 42       	mov    0x4284acd3,%eax
  1004f4:	8b 20                	mov    (%eax),%esp
  1004f6:	8b 40 0c             	mov    0xc(%eax),%eax
  1004f9:	a3 d1 ac 84 42       	mov    %eax,0x4284acd1
  1004fe:	0f 22 d8             	mov    %eax,%cr3
  100501:	61                   	popa   
  100502:	50                   	push   %eax
  100503:	b8 b0 00 e0 fe       	mov    $0xfee000b0,%eax
  100508:	c7 00 00 00 00 00    	movl   $0x0,(%eax)
  10050e:	52                   	push   %edx
  10050f:	66 ba 20 00          	mov    $0x20,%dx
  100513:	66 b8 20 00          	mov    $0x20,%ax
  100517:	66 ef                	out    %ax,(%dx)
  100519:	b8 80 03 e0 fe       	mov    $0xfee00380,%eax
  10051e:	8b 15 d6 ac 84 42    	mov    0x4284acd6,%edx
  100524:	89 10                	mov    %edx,(%eax)
  100526:	5a                   	pop    %edx
  100527:	58                   	pop    %eax
  100528:	cf                   	iret   

00100529 <cw_ksp_ss_t>:
  100529:	a1 d3 ac 84 42       	mov    0x4284acd3,%eax
  10052e:	a3 d4 ac 84 42       	mov    %eax,0x4284acd4
  100533:	89 20                	mov    %esp,(%eax)
  100535:	bc 00 cd 84 42       	mov    $0x4284cd00,%esp
  10053a:	ff 15 d5 ac 84 42    	call   *0x4284acd5
  100540:	8b 1d d2 ac 84 42    	mov    0x4284acd2,%ebx
  100546:	a1 d3 ac 84 42       	mov    0x4284acd3,%eax
  10054b:	8b 40 0c             	mov    0xc(%eax),%eax
  10054e:	39 d8                	cmp    %ebx,%eax
  100550:	74 3a                	je     10058c <cw_p2_ndc_c_t>
  100552:	a1 d3 ac 84 42       	mov    0x4284acd3,%eax
  100557:	8b 20                	mov    (%eax),%esp
  100559:	8b 40 0c             	mov    0xc(%eax),%eax
  10055c:	a3 d1 ac 84 42       	mov    %eax,0x4284acd1
  100561:	0f 22 d8             	mov    %eax,%cr3
  100564:	61                   	popa   
  100565:	50                   	push   %eax
  100566:	b8 b0 00 e0 fe       	mov    $0xfee000b0,%eax
  10056b:	c7 00 00 00 00 00    	movl   $0x0,(%eax)
  100571:	52                   	push   %edx
  100572:	66 ba 20 00          	mov    $0x20,%dx
  100576:	66 b8 20 00          	mov    $0x20,%ax
  10057a:	66 ef                	out    %ax,(%dx)
  10057c:	b8 80 03 e0 fe       	mov    $0xfee00380,%eax
  100581:	8b 15 d6 ac 84 42    	mov    0x4284acd6,%edx
  100587:	89 10                	mov    %edx,(%eax)
  100589:	5a                   	pop    %edx
  10058a:	58                   	pop    %eax
  10058b:	cf                   	iret   

0010058c <cw_p2_ndc_c_t>:
  10058c:	a1 d3 ac 84 42       	mov    0x4284acd3,%eax
  100591:	8b 20                	mov    (%eax),%esp
  100593:	61                   	popa   
  100594:	50                   	push   %eax
  100595:	b8 b0 00 e0 fe       	mov    $0xfee000b0,%eax
  10059a:	c7 00 00 00 00 00    	movl   $0x0,(%eax)
  1005a0:	52                   	push   %edx
  1005a1:	66 ba 20 00          	mov    $0x20,%dx
  1005a5:	66 b8 20 00          	mov    $0x20,%ax
  1005a9:	66 ef                	out    %ax,(%dx)
  1005ab:	b8 80 03 e0 fe       	mov    $0xfee00380,%eax
  1005b0:	8b 15 d6 ac 84 42    	mov    0x4284acd6,%edx
  1005b6:	89 10                	mov    %edx,(%eax)
  1005b8:	5a                   	pop    %edx
  1005b9:	58                   	pop    %eax
  1005ba:	cf                   	iret   

001005bb <switcher_end_t>:
  1005bb:	fa                   	cli    
  1005bc:	60                   	pusha  
  1005bd:	89 e0                	mov    %esp,%eax
  1005bf:	a3 d8 95 16 00       	mov    %eax,0x1695d8
  1005c4:	a1 d8 95 16 00       	mov    0x1695d8,%eax
  1005c9:	89 c4                	mov    %eax,%esp
  1005cb:	61                   	popa   
  1005cc:	50                   	push   %eax
  1005cd:	b8 b0 00 e0 fe       	mov    $0xfee000b0,%eax
  1005d2:	c7 00 00 00 00 00    	movl   $0x0,(%eax)
  1005d8:	52                   	push   %edx
  1005d9:	66 ba 20 00          	mov    $0x20,%dx
  1005dd:	66 b8 20 00          	mov    $0x20,%ax
  1005e1:	66 ef                	out    %ax,(%dx)
  1005e3:	5a                   	pop    %edx
  1005e4:	58                   	pop    %eax
  1005e5:	cf                   	iret   

001005e6 <Test_Timer>:
  1005e6:	cf                   	iret   

001005e7 <loop1>:
  1005e7:	eb 00                	jmp    1005e9 <loop2>

001005e9 <loop2>:
  1005e9:	eb fc                	jmp    1005e7 <loop1>

001005eb <Scheduler_init_t>:
  1005eb:	a1 d2 ac 84 42       	mov    0x4284acd2,%eax
  1005f0:	0f 22 d8             	mov    %eax,%cr3
  1005f3:	a1 d3 ac 84 42       	mov    0x4284acd3,%eax
  1005f8:	8b 20                	mov    (%eax),%esp
  1005fa:	61                   	popa   
  1005fb:	cf                   	iret   

001005fc <Scheduler_init_end_t>:
  1005fc:	c3                   	ret    
  1005fd:	66 90                	xchg   %ax,%ax
  1005ff:	90                   	nop

00100600 <_int32>:
  100600:	fa                   	cli    
  100601:	60                   	pusha  
  100602:	be 19 06 10 00       	mov    $0x100619,%esi
  100607:	bf 00 7c 00 00       	mov    $0x7c00,%edi
  10060c:	b9 33 01 00 00       	mov    $0x133,%ecx
  100611:	fc                   	cld    
  100612:	f3 a4                	rep movsb %ds:(%esi),%es:(%edi)
  100614:	e9 e7 75 f0 ff       	jmp    7c00 <regs16_t_size+0x7be6>

00100619 <reloc>:
  100619:	89 25 ef 7c 00 00    	mov    %esp,0x7cef
  10061f:	0f 01 0d f3 7c 00 00 	sidtl  0x7cf3
  100626:	0f 01 05 f9 7c 00 00 	sgdtl  0x7cf9
  10062d:	0f 01 15 2d 7d 00 00 	lgdtl  0x7d2d
  100634:	8d 74 24 24          	lea    0x24(%esp),%esi
  100638:	ad                   	lods   %ds:(%esi),%eax
  100639:	a2 6f 7c 00 00       	mov    %al,0x7c6f
  10063e:	8b 36                	mov    (%esi),%esi
  100640:	bf e6 7b 00 00       	mov    $0x7be6,%edi
  100645:	b9 1a 00 00 00       	mov    $0x1a,%ecx
  10064a:	89 fc                	mov    %edi,%esp
  10064c:	f3 a4                	rep movsb %ds:(%esi),%es:(%edi)
  10064e:	66 ea 3b 7c 18 00    	ljmpw  $0x18,$0x7c3b

00100654 <p_mode16>:
  100654:	b8 20 00 8e d8       	mov    $0xd88e0020,%eax
  100659:	8e c0                	mov    %eax,%es
  10065b:	8e e0                	mov    %eax,%fs
  10065d:	8e e8                	mov    %eax,%gs
  10065f:	8e d0                	mov    %eax,%ss
  100661:	0f 20 c0             	mov    %cr0,%eax
  100664:	24 fe                	and    $0xfe,%al
  100666:	0f 22 c0             	mov    %eax,%cr0
  100669:	ea 55 7c 00 00 31 c0 	ljmp   $0xc031,$0x7c55

0010066e <r_mode16>:
  10066e:	31 c0                	xor    %eax,%eax
  100670:	8e d8                	mov    %eax,%ds
  100672:	8e d0                	mov    %eax,%ss
  100674:	0f 01 1e             	lidtl  (%esi)
  100677:	ff                   	(bad)  
  100678:	7c bb                	jl     100635 <reloc+0x1c>
  10067a:	70 08                	jo     100684 <r_mode16+0x16>
  10067c:	e8 68 00 61 0f       	call   f7106e9 <__end+0xf55ec1d>
  100681:	a9 0f a1 07 1f       	test   $0x1f07a10f,%eax
  100686:	fb                   	sti    
  100687:	cd 00                	int    $0x0

00100688 <ib>:
  100688:	00 fa                	add    %bh,%dl
  10068a:	31 e4                	xor    %esp,%esp
  10068c:	8e d4                	mov    %esp,%ss
  10068e:	bc 00 7c 9c 1e       	mov    $0x1e9c7c00,%esp
  100693:	06                   	push   %es
  100694:	0f a0                	push   %fs
  100696:	0f a8                	push   %gs
  100698:	60                   	pusha  
  100699:	bb 28 20 e8 48       	mov    $0x48e82028,%ebx
  10069e:	00 0f                	add    %cl,(%edi)
  1006a0:	20 c0                	and    %al,%al
  1006a2:	66 40                	inc    %ax
  1006a4:	0f 22 c0             	mov    %eax,%cr0
  1006a7:	66 ea 96 7c 00 00    	ljmpw  $0x0,$0x7c96
  1006ad:	08 00                	or     %al,(%eax)

001006af <p_mode32>:
  1006af:	66 b8 10 00          	mov    $0x10,%ax
  1006b3:	8e d8                	mov    %eax,%ds
  1006b5:	8e c0                	mov    %eax,%es
  1006b7:	8e e0                	mov    %eax,%fs
  1006b9:	8e e8                	mov    %eax,%gs
  1006bb:	8e d0                	mov    %eax,%ss
  1006bd:	0f 01 15 f9 7c 00 00 	lgdtl  0x7cf9
  1006c4:	0f 01 1d f3 7c 00 00 	lidtl  0x7cf3
  1006cb:	8b 25 ef 7c 00 00    	mov    0x7cef,%esp
  1006d1:	be e6 7b 00 00       	mov    $0x7be6,%esi
  1006d6:	8d 7c 24 28          	lea    0x28(%esp),%edi
  1006da:	8b 3f                	mov    (%edi),%edi
  1006dc:	b9 1a 00 00 00       	mov    $0x1a,%ecx
  1006e1:	fc                   	cld    
  1006e2:	f3 a4                	rep movsb %ds:(%esi),%es:(%edi)
  1006e4:	61                   	popa   
  1006e5:	fb                   	sti    
  1006e6:	c3                   	ret    

001006e7 <resetpic>:
  1006e7:	66 50                	push   %ax
  1006e9:	b0 11                	mov    $0x11,%al
  1006eb:	e6 20                	out    %al,$0x20
  1006ed:	e6 a0                	out    %al,$0xa0
  1006ef:	88 f8                	mov    %bh,%al
  1006f1:	e6 21                	out    %al,$0x21
  1006f3:	88 d8                	mov    %bl,%al
  1006f5:	e6 a1                	out    %al,$0xa1
  1006f7:	b0 04                	mov    $0x4,%al
  1006f9:	e6 21                	out    %al,$0x21
  1006fb:	d0 e8                	shr    %al
  1006fd:	e6 a1                	out    %al,$0xa1
  1006ff:	d0 e8                	shr    %al
  100701:	e6 21                	out    %al,$0x21
  100703:	e6 a1                	out    %al,$0xa1
  100705:	66 58                	pop    %ax
  100707:	c3                   	ret    

00100708 <stack32_ptr>:
  100708:	00 00                	add    %al,(%eax)
	...

0010070c <idt32_ptr>:
  10070c:	00 00                	add    %al,(%eax)
  10070e:	00 00                	add    %al,(%eax)
	...

00100712 <gdt32_ptr>:
  100712:	00 00                	add    %al,(%eax)
  100714:	00 00                	add    %al,(%eax)
	...

00100718 <idt16_ptr>:
  100718:	ff 03                	incl   (%ebx)
  10071a:	00 00                	add    %al,(%eax)
	...

0010071e <gdt16_base>:
	...

00100726 <gdt16_base.code32>:
  100726:	ff                   	(bad)  
  100727:	ff 00                	incl   (%eax)
  100729:	00 00                	add    %al,(%eax)
  10072b:	9a cf 00 ff ff 00 00 	lcall  $0x0,$0xffff00cf

0010072e <gdt16_base.data32>:
  10072e:	ff                   	(bad)  
  10072f:	ff 00                	incl   (%eax)
  100731:	00 00                	add    %al,(%eax)
  100733:	92                   	xchg   %eax,%edx
  100734:	cf                   	iret   
	...

00100736 <gdt16_base.code16>:
  100736:	ff                   	(bad)  
  100737:	ff 00                	incl   (%eax)
  100739:	00 00                	add    %al,(%eax)
  10073b:	9a 0f 00 ff ff 00 00 	lcall  $0x0,$0xffff000f

0010073e <gdt16_base.data16>:
  10073e:	ff                   	(bad)  
  10073f:	ff 00                	incl   (%eax)
  100741:	00 00                	add    %al,(%eax)
  100743:	92                   	xchg   %eax,%edx
  100744:	0f 00 27             	verr   (%edi)

00100746 <gdt16_ptr>:
  100746:	27                   	daa    
  100747:	00 1e                	add    %bl,(%esi)
  100749:	07                   	pop    %es
  10074a:	10 00                	adc    %al,(%eax)

0010074c <int32_end>:
  10074c:	66 90                	xchg   %ax,%ax
  10074e:	66 90                	xchg   %ax,%ax

00100750 <posix_time>:
  100750:	b8 ff ff 00 00       	mov    $0xffff,%eax
  100755:	c3                   	ret    
  100756:	8d 76 00             	lea    0x0(%esi),%esi
  100759:	8d bc 27 00 00 00 00 	lea    0x0(%edi,%eiz,1),%edi

00100760 <faster_memcpy>:
  100760:	e9 cb 53 01 00       	jmp    115b30 <memcpy_faster>
  100765:	8d 74 26 00          	lea    0x0(%esi,%eiz,1),%esi
  100769:	8d bc 27 00 00 00 00 	lea    0x0(%edi,%eiz,1),%edi

00100770 <faster_memset>:
  100770:	8b 44 24 0c          	mov    0xc(%esp),%eax
  100774:	8b 4c 24 08          	mov    0x8(%esp),%ecx
  100778:	8b 54 24 04          	mov    0x4(%esp),%edx
  10077c:	85 c0                	test   %eax,%eax
  10077e:	74 0b                	je     10078b <faster_memset+0x1b>
  100780:	83 c2 04             	add    $0x4,%edx
  100783:	83 e8 01             	sub    $0x1,%eax
  100786:	89 4a fc             	mov    %ecx,-0x4(%edx)
  100789:	75 f5                	jne    100780 <faster_memset+0x10>
  10078b:	f3 c3                	repz ret 
  10078d:	8d 76 00             	lea    0x0(%esi),%esi

00100790 <memcmp>:
  100790:	57                   	push   %edi
  100791:	56                   	push   %esi
  100792:	53                   	push   %ebx
  100793:	8b 5c 24 18          	mov    0x18(%esp),%ebx
  100797:	8b 74 24 10          	mov    0x10(%esp),%esi
  10079b:	8b 7c 24 14          	mov    0x14(%esp),%edi
  10079f:	85 db                	test   %ebx,%ebx
  1007a1:	74 31                	je     1007d4 <memcmp+0x44>
  1007a3:	0f b6 0e             	movzbl (%esi),%ecx
  1007a6:	0f b6 17             	movzbl (%edi),%edx
  1007a9:	38 ca                	cmp    %cl,%dl
  1007ab:	75 33                	jne    1007e0 <memcmp+0x50>
  1007ad:	b8 01 00 00 00       	mov    $0x1,%eax
  1007b2:	eb 1c                	jmp    1007d0 <memcmp+0x40>
  1007b4:	8d b6 00 00 00 00    	lea    0x0(%esi),%esi
  1007ba:	8d bf 00 00 00 00    	lea    0x0(%edi),%edi
  1007c0:	0f b6 0c 06          	movzbl (%esi,%eax,1),%ecx
  1007c4:	83 c0 01             	add    $0x1,%eax
  1007c7:	0f b6 54 07 ff       	movzbl -0x1(%edi,%eax,1),%edx
  1007cc:	38 d1                	cmp    %dl,%cl
  1007ce:	75 10                	jne    1007e0 <memcmp+0x50>
  1007d0:	39 d8                	cmp    %ebx,%eax
  1007d2:	75 ec                	jne    1007c0 <memcmp+0x30>
  1007d4:	5b                   	pop    %ebx
  1007d5:	31 c0                	xor    %eax,%eax
  1007d7:	5e                   	pop    %esi
  1007d8:	5f                   	pop    %edi
  1007d9:	c3                   	ret    
  1007da:	8d b6 00 00 00 00    	lea    0x0(%esi),%esi
  1007e0:	38 d1                	cmp    %dl,%cl
  1007e2:	19 c0                	sbb    %eax,%eax
  1007e4:	5b                   	pop    %ebx
  1007e5:	83 c8 01             	or     $0x1,%eax
  1007e8:	5e                   	pop    %esi
  1007e9:	5f                   	pop    %edi
  1007ea:	c3                   	ret    
  1007eb:	90                   	nop
  1007ec:	8d 74 26 00          	lea    0x0(%esi,%eiz,1),%esi

001007f0 <memcpy>:
  1007f0:	57                   	push   %edi
  1007f1:	56                   	push   %esi
  1007f2:	53                   	push   %ebx
  1007f3:	8b 74 24 18          	mov    0x18(%esp),%esi
  1007f7:	8b 54 24 14          	mov    0x14(%esp),%edx
  1007fb:	8b 7c 24 10          	mov    0x10(%esp),%edi
  1007ff:	85 f6                	test   %esi,%esi
  100801:	8d 1c 32             	lea    (%edx,%esi,1),%ebx
  100804:	74 1b                	je     100821 <memcpy+0x31>
  100806:	89 f9                	mov    %edi,%ecx
  100808:	90                   	nop
  100809:	8d b4 26 00 00 00 00 	lea    0x0(%esi,%eiz,1),%esi
  100810:	83 c2 01             	add    $0x1,%edx
  100813:	0f b6 42 ff          	movzbl -0x1(%edx),%eax
  100817:	83 c1 01             	add    $0x1,%ecx
  10081a:	39 d3                	cmp    %edx,%ebx
  10081c:	88 41 ff             	mov    %al,-0x1(%ecx)
  10081f:	75 ef                	jne    100810 <memcpy+0x20>
  100821:	89 f8                	mov    %edi,%eax
  100823:	5b                   	pop    %ebx
  100824:	5e                   	pop    %esi
  100825:	5f                   	pop    %edi
  100826:	c3                   	ret    
  100827:	89 f6                	mov    %esi,%esi
  100829:	8d bc 27 00 00 00 00 	lea    0x0(%edi,%eiz,1),%edi

00100830 <memmove>:
  100830:	56                   	push   %esi
  100831:	53                   	push   %ebx
  100832:	8b 44 24 0c          	mov    0xc(%esp),%eax
  100836:	8b 5c 24 10          	mov    0x10(%esp),%ebx
  10083a:	8b 74 24 14          	mov    0x14(%esp),%esi
  10083e:	39 d8                	cmp    %ebx,%eax
  100840:	72 2e                	jb     100870 <memmove+0x40>
  100842:	85 f6                	test   %esi,%esi
  100844:	74 18                	je     10085e <memmove+0x2e>
  100846:	8d 76 00             	lea    0x0(%esi),%esi
  100849:	8d bc 27 00 00 00 00 	lea    0x0(%edi,%eiz,1),%edi
  100850:	0f b6 4c 33 ff       	movzbl -0x1(%ebx,%esi,1),%ecx
  100855:	88 4c 30 ff          	mov    %cl,-0x1(%eax,%esi,1)
  100859:	83 ee 01             	sub    $0x1,%esi
  10085c:	75 f2                	jne    100850 <memmove+0x20>
  10085e:	5b                   	pop    %ebx
  10085f:	5e                   	pop    %esi
  100860:	c3                   	ret    
  100861:	eb 0d                	jmp    100870 <memmove+0x40>
  100863:	90                   	nop
  100864:	90                   	nop
  100865:	90                   	nop
  100866:	90                   	nop
  100867:	90                   	nop
  100868:	90                   	nop
  100869:	90                   	nop
  10086a:	90                   	nop
  10086b:	90                   	nop
  10086c:	90                   	nop
  10086d:	90                   	nop
  10086e:	90                   	nop
  10086f:	90                   	nop
  100870:	85 f6                	test   %esi,%esi
  100872:	74 ea                	je     10085e <memmove+0x2e>
  100874:	31 c9                	xor    %ecx,%ecx
  100876:	8d 76 00             	lea    0x0(%esi),%esi
  100879:	8d bc 27 00 00 00 00 	lea    0x0(%edi,%eiz,1),%edi
  100880:	0f b6 14 0b          	movzbl (%ebx,%ecx,1),%edx
  100884:	88 14 08             	mov    %dl,(%eax,%ecx,1)
  100887:	83 c1 01             	add    $0x1,%ecx
  10088a:	39 ce                	cmp    %ecx,%esi
  10088c:	75 f2                	jne    100880 <memmove+0x50>
  10088e:	5b                   	pop    %ebx
  10088f:	5e                   	pop    %esi
  100890:	c3                   	ret    
  100891:	eb 0d                	jmp    1008a0 <memset>
  100893:	90                   	nop
  100894:	90                   	nop
  100895:	90                   	nop
  100896:	90                   	nop
  100897:	90                   	nop
  100898:	90                   	nop
  100899:	90                   	nop
  10089a:	90                   	nop
  10089b:	90                   	nop
  10089c:	90                   	nop
  10089d:	90                   	nop
  10089e:	90                   	nop
  10089f:	90                   	nop

001008a0 <memset>:
  1008a0:	53                   	push   %ebx
  1008a1:	8b 5c 24 10          	mov    0x10(%esp),%ebx
  1008a5:	8b 44 24 08          	mov    0x8(%esp),%eax
  1008a9:	0f b6 4c 24 0c       	movzbl 0xc(%esp),%ecx
  1008ae:	85 db                	test   %ebx,%ebx
  1008b0:	8d 14 18             	lea    (%eax,%ebx,1),%edx
  1008b3:	74 15                	je     1008ca <memset+0x2a>
  1008b5:	8d 74 26 00          	lea    0x0(%esi,%eiz,1),%esi
  1008b9:	8d bc 27 00 00 00 00 	lea    0x0(%edi,%eiz,1),%edi
  1008c0:	83 c0 01             	add    $0x1,%eax
  1008c3:	88 48 ff             	mov    %cl,-0x1(%eax)
  1008c6:	39 d0                	cmp    %edx,%eax
  1008c8:	75 f6                	jne    1008c0 <memset+0x20>
  1008ca:	5b                   	pop    %ebx
  1008cb:	c3                   	ret    
  1008cc:	8d 74 26 00          	lea    0x0(%esi,%eiz,1),%esi

001008d0 <memcmp_fast>:
  1008d0:	57                   	push   %edi
  1008d1:	56                   	push   %esi
  1008d2:	53                   	push   %ebx
  1008d3:	8b 5c 24 18          	mov    0x18(%esp),%ebx
  1008d7:	8b 74 24 10          	mov    0x10(%esp),%esi
  1008db:	8b 7c 24 14          	mov    0x14(%esp),%edi
  1008df:	c1 eb 02             	shr    $0x2,%ebx
  1008e2:	85 db                	test   %ebx,%ebx
  1008e4:	74 2c                	je     100912 <memcmp_fast+0x42>
  1008e6:	8b 0e                	mov    (%esi),%ecx
  1008e8:	8b 17                	mov    (%edi),%edx
  1008ea:	c1 e3 02             	shl    $0x2,%ebx
  1008ed:	b8 04 00 00 00       	mov    $0x4,%eax
  1008f2:	39 ca                	cmp    %ecx,%edx
  1008f4:	74 18                	je     10090e <memcmp_fast+0x3e>
  1008f6:	eb 28                	jmp    100920 <memcmp_fast+0x50>
  1008f8:	90                   	nop
  1008f9:	8d b4 26 00 00 00 00 	lea    0x0(%esi,%eiz,1),%esi
  100900:	8b 0c 06             	mov    (%esi,%eax,1),%ecx
  100903:	83 c0 04             	add    $0x4,%eax
  100906:	8b 54 07 fc          	mov    -0x4(%edi,%eax,1),%edx
  10090a:	39 d1                	cmp    %edx,%ecx
  10090c:	75 12                	jne    100920 <memcmp_fast+0x50>
  10090e:	39 d8                	cmp    %ebx,%eax
  100910:	75 ee                	jne    100900 <memcmp_fast+0x30>
  100912:	5b                   	pop    %ebx
  100913:	31 c0                	xor    %eax,%eax
  100915:	5e                   	pop    %esi
  100916:	5f                   	pop    %edi
  100917:	c3                   	ret    
  100918:	90                   	nop
  100919:	8d b4 26 00 00 00 00 	lea    0x0(%esi,%eiz,1),%esi
  100920:	39 d1                	cmp    %edx,%ecx
  100922:	19 c0                	sbb    %eax,%eax
  100924:	5b                   	pop    %ebx
  100925:	83 c8 01             	or     $0x1,%eax
  100928:	5e                   	pop    %esi
  100929:	5f                   	pop    %edi
  10092a:	c3                   	ret    
  10092b:	90                   	nop
  10092c:	8d 74 26 00          	lea    0x0(%esi,%eiz,1),%esi

00100930 <memcpy_fast>:
  100930:	56                   	push   %esi
  100931:	53                   	push   %ebx
  100932:	8b 4c 24 14          	mov    0x14(%esp),%ecx
  100936:	8b 44 24 0c          	mov    0xc(%esp),%eax
  10093a:	8b 74 24 10          	mov    0x10(%esp),%esi
  10093e:	c1 e9 02             	shr    $0x2,%ecx
  100941:	85 c9                	test   %ecx,%ecx
  100943:	74 18                	je     10095d <memcpy_fast+0x2d>
  100945:	8d 1c 8d 00 00 00 00 	lea    0x0(,%ecx,4),%ebx
  10094c:	31 d2                	xor    %edx,%edx
  10094e:	66 90                	xchg   %ax,%ax
  100950:	8b 0c 16             	mov    (%esi,%edx,1),%ecx
  100953:	89 0c 10             	mov    %ecx,(%eax,%edx,1)
  100956:	83 c2 04             	add    $0x4,%edx
  100959:	39 da                	cmp    %ebx,%edx
  10095b:	75 f3                	jne    100950 <memcpy_fast+0x20>
  10095d:	5b                   	pop    %ebx
  10095e:	5e                   	pop    %esi
  10095f:	c3                   	ret    

00100960 <memmove_fast>:
  100960:	56                   	push   %esi
  100961:	53                   	push   %ebx
  100962:	8b 44 24 0c          	mov    0xc(%esp),%eax
  100966:	8b 5c 24 10          	mov    0x10(%esp),%ebx
  10096a:	8b 54 24 14          	mov    0x14(%esp),%edx
  10096e:	c1 ea 02             	shr    $0x2,%edx
  100971:	39 d8                	cmp    %ebx,%eax
  100973:	72 1b                	jb     100990 <memmove_fast+0x30>
  100975:	85 d2                	test   %edx,%edx
  100977:	74 14                	je     10098d <memmove_fast+0x2d>
  100979:	8d b4 26 00 00 00 00 	lea    0x0(%esi,%eiz,1),%esi
  100980:	8b 4c 93 fc          	mov    -0x4(%ebx,%edx,4),%ecx
  100984:	89 4c 90 fc          	mov    %ecx,-0x4(%eax,%edx,4)
  100988:	83 ea 01             	sub    $0x1,%edx
  10098b:	75 f3                	jne    100980 <memmove_fast+0x20>
  10098d:	5b                   	pop    %ebx
  10098e:	5e                   	pop    %esi
  10098f:	c3                   	ret    
  100990:	85 d2                	test   %edx,%edx
  100992:	74 f9                	je     10098d <memmove_fast+0x2d>
  100994:	31 c9                	xor    %ecx,%ecx
  100996:	8d 76 00             	lea    0x0(%esi),%esi
  100999:	8d bc 27 00 00 00 00 	lea    0x0(%edi,%eiz,1),%edi
  1009a0:	8b 34 8b             	mov    (%ebx,%ecx,4),%esi
  1009a3:	89 34 88             	mov    %esi,(%eax,%ecx,4)
  1009a6:	83 c1 01             	add    $0x1,%ecx
  1009a9:	39 ca                	cmp    %ecx,%edx
  1009ab:	75 f3                	jne    1009a0 <memmove_fast+0x40>
  1009ad:	5b                   	pop    %ebx
  1009ae:	5e                   	pop    %esi
  1009af:	c3                   	ret    

001009b0 <memset_fast>:
  1009b0:	53                   	push   %ebx
  1009b1:	8b 5c 24 10          	mov    0x10(%esp),%ebx
  1009b5:	8b 44 24 08          	mov    0x8(%esp),%eax
  1009b9:	8b 4c 24 0c          	mov    0xc(%esp),%ecx
  1009bd:	c1 eb 02             	shr    $0x2,%ebx
  1009c0:	85 db                	test   %ebx,%ebx
  1009c2:	8d 14 98             	lea    (%eax,%ebx,4),%edx
  1009c5:	74 13                	je     1009da <memset_fast+0x2a>
  1009c7:	89 f6                	mov    %esi,%esi
  1009c9:	8d bc 27 00 00 00 00 	lea    0x0(%edi,%eiz,1),%edi
  1009d0:	83 c0 04             	add    $0x4,%eax
  1009d3:	89 48 fc             	mov    %ecx,-0x4(%eax)
  1009d6:	39 d0                	cmp    %edx,%eax
  1009d8:	75 f6                	jne    1009d0 <memset_fast+0x20>
  1009da:	5b                   	pop    %ebx
  1009db:	c3                   	ret    
  1009dc:	8d 74 26 00          	lea    0x0(%esi,%eiz,1),%esi

001009e0 <strlen>:
  1009e0:	8b 54 24 04          	mov    0x4(%esp),%edx
  1009e4:	31 c0                	xor    %eax,%eax
  1009e6:	80 3a 00             	cmpb   $0x0,(%edx)
  1009e9:	74 10                	je     1009fb <strlen+0x1b>
  1009eb:	90                   	nop
  1009ec:	8d 74 26 00          	lea    0x0(%esi,%eiz,1),%esi
  1009f0:	83 c0 01             	add    $0x1,%eax
  1009f3:	80 3c 02 00          	cmpb   $0x0,(%edx,%eax,1)
  1009f7:	75 f7                	jne    1009f0 <strlen+0x10>
  1009f9:	f3 c3                	repz ret 
  1009fb:	f3 c3                	repz ret 
  1009fd:	8d 76 00             	lea    0x0(%esi),%esi

00100a00 <strcmp>:
  100a00:	53                   	push   %ebx
  100a01:	8b 54 24 08          	mov    0x8(%esp),%edx
  100a05:	8b 4c 24 0c          	mov    0xc(%esp),%ecx
  100a09:	0f b6 02             	movzbl (%edx),%eax
  100a0c:	0f b6 19             	movzbl (%ecx),%ebx
  100a0f:	38 c3                	cmp    %al,%bl
  100a11:	75 21                	jne    100a34 <strcmp+0x34>
  100a13:	84 db                	test   %bl,%bl
  100a15:	75 0d                	jne    100a24 <strcmp+0x24>
  100a17:	eb 27                	jmp    100a40 <strcmp+0x40>
  100a19:	8d b4 26 00 00 00 00 	lea    0x0(%esi,%eiz,1),%esi
  100a20:	84 c0                	test   %al,%al
  100a22:	74 1c                	je     100a40 <strcmp+0x40>
  100a24:	83 c2 01             	add    $0x1,%edx
  100a27:	83 c1 01             	add    $0x1,%ecx
  100a2a:	0f b6 02             	movzbl (%edx),%eax
  100a2d:	0f b6 19             	movzbl (%ecx),%ebx
  100a30:	38 d8                	cmp    %bl,%al
  100a32:	74 ec                	je     100a20 <strcmp+0x20>
  100a34:	38 d8                	cmp    %bl,%al
  100a36:	19 c0                	sbb    %eax,%eax
  100a38:	83 c8 01             	or     $0x1,%eax
  100a3b:	5b                   	pop    %ebx
  100a3c:	c3                   	ret    
  100a3d:	8d 76 00             	lea    0x0(%esi),%esi
  100a40:	31 c0                	xor    %eax,%eax
  100a42:	5b                   	pop    %ebx
  100a43:	c3                   	ret    
  100a44:	8d b6 00 00 00 00    	lea    0x0(%esi),%esi
  100a4a:	8d bf 00 00 00 00    	lea    0x0(%edi),%edi

00100a50 <strcmpx>:
  100a50:	55                   	push   %ebp
  100a51:	57                   	push   %edi
  100a52:	56                   	push   %esi
  100a53:	53                   	push   %ebx
  100a54:	8b 5c 24 14          	mov    0x14(%esp),%ebx
  100a58:	8b 4c 24 18          	mov    0x18(%esp),%ecx
  100a5c:	eb 08                	jmp    100a66 <strcmpx+0x16>
  100a5e:	66 90                	xchg   %ax,%ax
  100a60:	83 c3 01             	add    $0x1,%ebx
  100a63:	83 c1 01             	add    $0x1,%ecx
  100a66:	0f b6 31             	movzbl (%ecx),%esi
  100a69:	0f b6 03             	movzbl (%ebx),%eax
  100a6c:	89 f2                	mov    %esi,%edx
  100a6e:	38 d0                	cmp    %dl,%al
  100a70:	74 14                	je     100a86 <strcmpx+0x36>
  100a72:	0f be f8             	movsbl %al,%edi
  100a75:	0f be d2             	movsbl %dl,%edx
  100a78:	8d 6f e0             	lea    -0x20(%edi),%ebp
  100a7b:	39 d5                	cmp    %edx,%ebp
  100a7d:	74 07                	je     100a86 <strcmpx+0x36>
  100a7f:	83 ea 20             	sub    $0x20,%edx
  100a82:	39 d7                	cmp    %edx,%edi
  100a84:	75 1a                	jne    100aa0 <strcmpx+0x50>
  100a86:	84 c0                	test   %al,%al
  100a88:	75 d6                	jne    100a60 <strcmpx+0x10>
  100a8a:	5b                   	pop    %ebx
  100a8b:	31 c0                	xor    %eax,%eax
  100a8d:	5e                   	pop    %esi
  100a8e:	5f                   	pop    %edi
  100a8f:	5d                   	pop    %ebp
  100a90:	c3                   	ret    
  100a91:	eb 0d                	jmp    100aa0 <strcmpx+0x50>
  100a93:	90                   	nop
  100a94:	90                   	nop
  100a95:	90                   	nop
  100a96:	90                   	nop
  100a97:	90                   	nop
  100a98:	90                   	nop
  100a99:	90                   	nop
  100a9a:	90                   	nop
  100a9b:	90                   	nop
  100a9c:	90                   	nop
  100a9d:	90                   	nop
  100a9e:	90                   	nop
  100a9f:	90                   	nop
  100aa0:	89 f1                	mov    %esi,%ecx
  100aa2:	38 c8                	cmp    %cl,%al
  100aa4:	19 c0                	sbb    %eax,%eax
  100aa6:	5b                   	pop    %ebx
  100aa7:	83 c8 01             	or     $0x1,%eax
  100aaa:	5e                   	pop    %esi
  100aab:	5f                   	pop    %edi
  100aac:	5d                   	pop    %ebp
  100aad:	c3                   	ret    
  100aae:	66 90                	xchg   %ax,%ax

00100ab0 <strncmp>:
  100ab0:	8b 4c 24 0c          	mov    0xc(%esp),%ecx
  100ab4:	8b 44 24 04          	mov    0x4(%esp),%eax
  100ab8:	8b 54 24 08          	mov    0x8(%esp),%edx
  100abc:	85 c9                	test   %ecx,%ecx
  100abe:	74 10                	je     100ad0 <strncmp+0x20>
  100ac0:	e9 2b a4 01 00       	jmp    11aef0 <strncmp.part.0>
  100ac5:	8d 74 26 00          	lea    0x0(%esi,%eiz,1),%esi
  100ac9:	8d bc 27 00 00 00 00 	lea    0x0(%edi,%eiz,1),%edi
  100ad0:	31 c0                	xor    %eax,%eax
  100ad2:	c3                   	ret    
  100ad3:	8d b6 00 00 00 00    	lea    0x0(%esi),%esi
  100ad9:	8d bc 27 00 00 00 00 	lea    0x0(%edi,%eiz,1),%edi

00100ae0 <strcpy>:
  100ae0:	8b 54 24 08          	mov    0x8(%esp),%edx
  100ae4:	8b 44 24 04          	mov    0x4(%esp),%eax
  100ae8:	0f b6 0a             	movzbl (%edx),%ecx
  100aeb:	90                   	nop
  100aec:	8d 74 26 00          	lea    0x0(%esi,%eiz,1),%esi
  100af0:	83 c0 01             	add    $0x1,%eax
  100af3:	83 c2 01             	add    $0x1,%edx
  100af6:	88 48 ff             	mov    %cl,-0x1(%eax)
  100af9:	0f b6 0a             	movzbl (%edx),%ecx
  100afc:	84 c9                	test   %cl,%cl
  100afe:	75 f0                	jne    100af0 <strcpy+0x10>
  100b00:	c6 00 00             	movb   $0x0,(%eax)
  100b03:	c3                   	ret    
  100b04:	8d b6 00 00 00 00    	lea    0x0(%esi),%esi
  100b0a:	8d bf 00 00 00 00    	lea    0x0(%edi),%edi

00100b10 <strcat>:
  100b10:	53                   	push   %ebx
  100b11:	8b 44 24 08          	mov    0x8(%esp),%eax
  100b15:	8b 5c 24 0c          	mov    0xc(%esp),%ebx
  100b19:	80 38 00             	cmpb   $0x0,(%eax)
  100b1c:	74 37                	je     100b55 <strcat+0x45>
  100b1e:	8d 48 01             	lea    0x1(%eax),%ecx
  100b21:	eb 0d                	jmp    100b30 <strcat+0x20>
  100b23:	90                   	nop
  100b24:	90                   	nop
  100b25:	90                   	nop
  100b26:	90                   	nop
  100b27:	90                   	nop
  100b28:	90                   	nop
  100b29:	90                   	nop
  100b2a:	90                   	nop
  100b2b:	90                   	nop
  100b2c:	90                   	nop
  100b2d:	90                   	nop
  100b2e:	90                   	nop
  100b2f:	90                   	nop
  100b30:	89 ca                	mov    %ecx,%edx
  100b32:	83 c1 01             	add    $0x1,%ecx
  100b35:	80 79 ff 00          	cmpb   $0x0,-0x1(%ecx)
  100b39:	75 f5                	jne    100b30 <strcat+0x20>
  100b3b:	0f b6 0b             	movzbl (%ebx),%ecx
  100b3e:	66 90                	xchg   %ax,%ax
  100b40:	83 c2 01             	add    $0x1,%edx
  100b43:	83 c3 01             	add    $0x1,%ebx
  100b46:	88 4a ff             	mov    %cl,-0x1(%edx)
  100b49:	0f b6 0b             	movzbl (%ebx),%ecx
  100b4c:	84 c9                	test   %cl,%cl
  100b4e:	75 f0                	jne    100b40 <strcat+0x30>
  100b50:	c6 02 00             	movb   $0x0,(%edx)
  100b53:	5b                   	pop    %ebx
  100b54:	c3                   	ret    
  100b55:	89 c2                	mov    %eax,%edx
  100b57:	eb e2                	jmp    100b3b <strcat+0x2b>
  100b59:	8d b4 26 00 00 00 00 	lea    0x0(%esi,%eiz,1),%esi

00100b60 <strcmpy>:
  100b60:	55                   	push   %ebp
  100b61:	57                   	push   %edi
  100b62:	56                   	push   %esi
  100b63:	53                   	push   %ebx
  100b64:	83 ec 08             	sub    $0x8,%esp
  100b67:	8b 7c 24 1c          	mov    0x1c(%esp),%edi
  100b6b:	8b 54 24 20          	mov    0x20(%esp),%edx
  100b6f:	c7 04 24 00 00 00 00 	movl   $0x0,(%esp)
  100b76:	0f b6 07             	movzbl (%edi),%eax
  100b79:	88 44 24 07          	mov    %al,0x7(%esp)
  100b7d:	31 c0                	xor    %eax,%eax
  100b7f:	80 7c 24 07 00       	cmpb   $0x0,0x7(%esp)
  100b84:	74 13                	je     100b99 <strcmpy+0x39>
  100b86:	8d 76 00             	lea    0x0(%esi),%esi
  100b89:	8d bc 27 00 00 00 00 	lea    0x0(%edi,%eiz,1),%edi
  100b90:	83 c0 01             	add    $0x1,%eax
  100b93:	80 3c 07 00          	cmpb   $0x0,(%edi,%eax,1)
  100b97:	75 f7                	jne    100b90 <strcmpy+0x30>
  100b99:	8b 2c 24             	mov    (%esp),%ebp
  100b9c:	39 c5                	cmp    %eax,%ebp
  100b9e:	77 55                	ja     100bf5 <strcmpy+0x95>
  100ba0:	0f b6 32             	movzbl (%edx),%esi
  100ba3:	31 c9                	xor    %ecx,%ecx
  100ba5:	31 db                	xor    %ebx,%ebx
  100ba7:	8d 2c 2f             	lea    (%edi,%ebp,1),%ebp
  100baa:	89 f0                	mov    %esi,%eax
  100bac:	84 c0                	test   %al,%al
  100bae:	b8 00 00 00 00       	mov    $0x0,%eax
  100bb3:	74 36                	je     100beb <strcmpy+0x8b>
  100bb5:	8d 74 26 00          	lea    0x0(%esi,%eiz,1),%esi
  100bb9:	8d bc 27 00 00 00 00 	lea    0x0(%edi,%eiz,1),%edi
  100bc0:	83 c0 01             	add    $0x1,%eax
  100bc3:	80 3c 02 00          	cmpb   $0x0,(%edx,%eax,1)
  100bc7:	75 f7                	jne    100bc0 <strcmpy+0x60>
  100bc9:	39 c1                	cmp    %eax,%ecx
  100bcb:	73 3f                	jae    100c0c <strcmpy+0xac>
  100bcd:	0f b6 04 0a          	movzbl (%edx,%ecx,1),%eax
  100bd1:	38 44 0d 00          	cmp    %al,0x0(%ebp,%ecx,1)
  100bd5:	0f 94 c0             	sete   %al
  100bd8:	83 c1 01             	add    $0x1,%ecx
  100bdb:	0f b6 c0             	movzbl %al,%eax
  100bde:	01 c3                	add    %eax,%ebx
  100be0:	89 f0                	mov    %esi,%eax
  100be2:	84 c0                	test   %al,%al
  100be4:	b8 00 00 00 00       	mov    $0x0,%eax
  100be9:	75 d5                	jne    100bc0 <strcmpy+0x60>
  100beb:	39 c3                	cmp    %eax,%ebx
  100bed:	74 13                	je     100c02 <strcmpy+0xa2>
  100bef:	83 04 24 01          	addl   $0x1,(%esp)
  100bf3:	eb 88                	jmp    100b7d <strcmpy+0x1d>
  100bf5:	83 c4 08             	add    $0x8,%esp
  100bf8:	b8 01 00 00 00       	mov    $0x1,%eax
  100bfd:	5b                   	pop    %ebx
  100bfe:	5e                   	pop    %esi
  100bff:	5f                   	pop    %edi
  100c00:	5d                   	pop    %ebp
  100c01:	c3                   	ret    
  100c02:	83 c4 08             	add    $0x8,%esp
  100c05:	31 c0                	xor    %eax,%eax
  100c07:	5b                   	pop    %ebx
  100c08:	5e                   	pop    %esi
  100c09:	5f                   	pop    %edi
  100c0a:	5d                   	pop    %ebp
  100c0b:	c3                   	ret    
  100c0c:	31 c0                	xor    %eax,%eax
  100c0e:	66 90                	xchg   %ax,%ax
  100c10:	83 c0 01             	add    $0x1,%eax
  100c13:	80 3c 02 00          	cmpb   $0x0,(%edx,%eax,1)
  100c17:	75 f7                	jne    100c10 <strcmpy+0xb0>
  100c19:	eb d0                	jmp    100beb <strcmpy+0x8b>
  100c1b:	90                   	nop
  100c1c:	8d 74 26 00          	lea    0x0(%esi,%eiz,1),%esi

00100c20 <strchr>:
  100c20:	8b 44 24 04          	mov    0x4(%esp),%eax
  100c24:	0f b6 4c 24 08       	movzbl 0x8(%esp),%ecx
  100c29:	eb 0c                	jmp    100c37 <strchr+0x17>
  100c2b:	90                   	nop
  100c2c:	8d 74 26 00          	lea    0x0(%esi,%eiz,1),%esi
  100c30:	83 c0 01             	add    $0x1,%eax
  100c33:	84 d2                	test   %dl,%dl
  100c35:	74 09                	je     100c40 <strchr+0x20>
  100c37:	0f b6 10             	movzbl (%eax),%edx
  100c3a:	38 ca                	cmp    %cl,%dl
  100c3c:	75 f2                	jne    100c30 <strchr+0x10>
  100c3e:	f3 c3                	repz ret 
  100c40:	31 c0                	xor    %eax,%eax
  100c42:	c3                   	ret    
  100c43:	8d b6 00 00 00 00    	lea    0x0(%esi),%esi
  100c49:	8d bc 27 00 00 00 00 	lea    0x0(%edi,%eiz,1),%edi

00100c50 <strspn>:
  100c50:	57                   	push   %edi
  100c51:	56                   	push   %esi
  100c52:	31 c0                	xor    %eax,%eax
  100c54:	53                   	push   %ebx
  100c55:	8b 74 24 10          	mov    0x10(%esp),%esi
  100c59:	8b 7c 24 14          	mov    0x14(%esp),%edi
  100c5d:	0f b6 1e             	movzbl (%esi),%ebx
  100c60:	84 db                	test   %bl,%bl
  100c62:	74 35                	je     100c99 <strspn+0x49>
  100c64:	8d b6 00 00 00 00    	lea    0x0(%esi),%esi
  100c6a:	8d bf 00 00 00 00    	lea    0x0(%edi),%edi
  100c70:	89 fa                	mov    %edi,%edx
  100c72:	eb 13                	jmp    100c87 <strspn+0x37>
  100c74:	8d b6 00 00 00 00    	lea    0x0(%esi),%esi
  100c7a:	8d bf 00 00 00 00    	lea    0x0(%edi),%edi
  100c80:	83 c2 01             	add    $0x1,%edx
  100c83:	84 c9                	test   %cl,%cl
  100c85:	74 12                	je     100c99 <strspn+0x49>
  100c87:	0f b6 0a             	movzbl (%edx),%ecx
  100c8a:	38 d9                	cmp    %bl,%cl
  100c8c:	75 f2                	jne    100c80 <strspn+0x30>
  100c8e:	83 c0 01             	add    $0x1,%eax
  100c91:	0f b6 1c 06          	movzbl (%esi,%eax,1),%ebx
  100c95:	84 db                	test   %bl,%bl
  100c97:	75 d7                	jne    100c70 <strspn+0x20>
  100c99:	5b                   	pop    %ebx
  100c9a:	5e                   	pop    %esi
  100c9b:	5f                   	pop    %edi
  100c9c:	c3                   	ret    
  100c9d:	8d 76 00             	lea    0x0(%esi),%esi

00100ca0 <strcspn>:
  100ca0:	57                   	push   %edi
  100ca1:	56                   	push   %esi
  100ca2:	31 c0                	xor    %eax,%eax
  100ca4:	53                   	push   %ebx
  100ca5:	8b 74 24 10          	mov    0x10(%esp),%esi
  100ca9:	8b 7c 24 14          	mov    0x14(%esp),%edi
  100cad:	0f b6 1e             	movzbl (%esi),%ebx
  100cb0:	84 db                	test   %bl,%bl
  100cb2:	74 2a                	je     100cde <strcspn+0x3e>
  100cb4:	8d b6 00 00 00 00    	lea    0x0(%esi),%esi
  100cba:	8d bf 00 00 00 00    	lea    0x0(%edi),%edi
  100cc0:	89 fa                	mov    %edi,%edx
  100cc2:	eb 13                	jmp    100cd7 <strcspn+0x37>
  100cc4:	8d b6 00 00 00 00    	lea    0x0(%esi),%esi
  100cca:	8d bf 00 00 00 00    	lea    0x0(%edi),%edi
  100cd0:	83 c2 01             	add    $0x1,%edx
  100cd3:	84 c9                	test   %cl,%cl
  100cd5:	74 19                	je     100cf0 <strcspn+0x50>
  100cd7:	0f b6 0a             	movzbl (%edx),%ecx
  100cda:	38 d9                	cmp    %bl,%cl
  100cdc:	75 f2                	jne    100cd0 <strcspn+0x30>
  100cde:	5b                   	pop    %ebx
  100cdf:	5e                   	pop    %esi
  100ce0:	5f                   	pop    %edi
  100ce1:	c3                   	ret    
  100ce2:	8d b4 26 00 00 00 00 	lea    0x0(%esi,%eiz,1),%esi
  100ce9:	8d bc 27 00 00 00 00 	lea    0x0(%edi,%eiz,1),%edi
  100cf0:	83 c0 01             	add    $0x1,%eax
  100cf3:	0f b6 1c 06          	movzbl (%esi,%eax,1),%ebx
  100cf7:	84 db                	test   %bl,%bl
  100cf9:	75 c5                	jne    100cc0 <strcspn+0x20>
  100cfb:	5b                   	pop    %ebx
  100cfc:	5e                   	pop    %esi
  100cfd:	5f                   	pop    %edi
  100cfe:	c3                   	ret    
  100cff:	90                   	nop

00100d00 <strtok>:
  100d00:	57                   	push   %edi
  100d01:	56                   	push   %esi
  100d02:	53                   	push   %ebx
  100d03:	8b 7c 24 10          	mov    0x10(%esp),%edi
  100d07:	8b 74 24 14          	mov    0x14(%esp),%esi
  100d0b:	85 ff                	test   %edi,%edi
  100d0d:	0f 84 ba 00 00 00    	je     100dcd <strtok+0xcd>
  100d13:	89 3d b0 1a 1a 00    	mov    %edi,0x1a1ab0
  100d19:	0f b6 0f             	movzbl (%edi),%ecx
  100d1c:	84 c9                	test   %cl,%cl
  100d1e:	0f 84 bc 00 00 00    	je     100de0 <strtok+0xe0>
  100d24:	31 db                	xor    %ebx,%ebx
  100d26:	8d 76 00             	lea    0x0(%esi),%esi
  100d29:	8d bc 27 00 00 00 00 	lea    0x0(%edi,%eiz,1),%edi
  100d30:	89 f0                	mov    %esi,%eax
  100d32:	eb 13                	jmp    100d47 <strtok+0x47>
  100d34:	8d b6 00 00 00 00    	lea    0x0(%esi),%esi
  100d3a:	8d bf 00 00 00 00    	lea    0x0(%edi),%edi
  100d40:	83 c0 01             	add    $0x1,%eax
  100d43:	84 d2                	test   %dl,%dl
  100d45:	74 19                	je     100d60 <strtok+0x60>
  100d47:	0f b6 10             	movzbl (%eax),%edx
  100d4a:	38 ca                	cmp    %cl,%dl
  100d4c:	75 f2                	jne    100d40 <strtok+0x40>
  100d4e:	83 c3 01             	add    $0x1,%ebx
  100d51:	0f b6 0c 1f          	movzbl (%edi,%ebx,1),%ecx
  100d55:	84 c9                	test   %cl,%cl
  100d57:	75 d7                	jne    100d30 <strtok+0x30>
  100d59:	8d b4 26 00 00 00 00 	lea    0x0(%esi,%eiz,1),%esi
  100d60:	8d 04 1f             	lea    (%edi,%ebx,1),%eax
  100d63:	0f b6 18             	movzbl (%eax),%ebx
  100d66:	84 db                	test   %bl,%bl
  100d68:	74 76                	je     100de0 <strtok+0xe0>
  100d6a:	31 ff                	xor    %edi,%edi
  100d6c:	8d 74 26 00          	lea    0x0(%esi,%eiz,1),%esi
  100d70:	89 f2                	mov    %esi,%edx
  100d72:	eb 13                	jmp    100d87 <strtok+0x87>
  100d74:	8d b6 00 00 00 00    	lea    0x0(%esi),%esi
  100d7a:	8d bf 00 00 00 00    	lea    0x0(%edi),%edi
  100d80:	83 c2 01             	add    $0x1,%edx
  100d83:	84 c9                	test   %cl,%cl
  100d85:	74 39                	je     100dc0 <strtok+0xc0>
  100d87:	0f b6 0a             	movzbl (%edx),%ecx
  100d8a:	38 d9                	cmp    %bl,%cl
  100d8c:	75 f2                	jne    100d80 <strtok+0x80>
  100d8e:	01 c7                	add    %eax,%edi
  100d90:	39 f8                	cmp    %edi,%eax
  100d92:	89 3d b0 1a 1a 00    	mov    %edi,0x1a1ab0
  100d98:	74 46                	je     100de0 <strtok+0xe0>
  100d9a:	31 d2                	xor    %edx,%edx
  100d9c:	80 3f 00             	cmpb   $0x0,(%edi)
  100d9f:	74 06                	je     100da7 <strtok+0xa7>
  100da1:	8d 57 01             	lea    0x1(%edi),%edx
  100da4:	c6 07 00             	movb   $0x0,(%edi)
  100da7:	89 15 b0 1a 1a 00    	mov    %edx,0x1a1ab0
  100dad:	5b                   	pop    %ebx
  100dae:	5e                   	pop    %esi
  100daf:	5f                   	pop    %edi
  100db0:	c3                   	ret    
  100db1:	eb 0d                	jmp    100dc0 <strtok+0xc0>
  100db3:	90                   	nop
  100db4:	90                   	nop
  100db5:	90                   	nop
  100db6:	90                   	nop
  100db7:	90                   	nop
  100db8:	90                   	nop
  100db9:	90                   	nop
  100dba:	90                   	nop
  100dbb:	90                   	nop
  100dbc:	90                   	nop
  100dbd:	90                   	nop
  100dbe:	90                   	nop
  100dbf:	90                   	nop
  100dc0:	83 c7 01             	add    $0x1,%edi
  100dc3:	0f b6 1c 38          	movzbl (%eax,%edi,1),%ebx
  100dc7:	84 db                	test   %bl,%bl
  100dc9:	75 a5                	jne    100d70 <strtok+0x70>
  100dcb:	eb c1                	jmp    100d8e <strtok+0x8e>
  100dcd:	8b 3d b0 1a 1a 00    	mov    0x1a1ab0,%edi
  100dd3:	85 ff                	test   %edi,%edi
  100dd5:	0f 85 3e ff ff ff    	jne    100d19 <strtok+0x19>
  100ddb:	31 c0                	xor    %eax,%eax
  100ddd:	eb ce                	jmp    100dad <strtok+0xad>
  100ddf:	90                   	nop
  100de0:	c7 05 b0 1a 1a 00 00 	movl   $0x0,0x1a1ab0
  100de7:	00 00 00 
  100dea:	31 c0                	xor    %eax,%eax
  100dec:	eb bf                	jmp    100dad <strtok+0xad>
  100dee:	66 90                	xchg   %ax,%ax

00100df0 <strstr>:
  100df0:	55                   	push   %ebp
  100df1:	57                   	push   %edi
  100df2:	56                   	push   %esi
  100df3:	53                   	push   %ebx
  100df4:	83 ec 0c             	sub    $0xc,%esp
  100df7:	8b 6c 24 24          	mov    0x24(%esp),%ebp
  100dfb:	8b 5c 24 20          	mov    0x20(%esp),%ebx
  100dff:	0f b6 75 00          	movzbl 0x0(%ebp),%esi
  100e03:	89 d8                	mov    %ebx,%eax
  100e05:	89 f1                	mov    %esi,%ecx
  100e07:	84 c9                	test   %cl,%cl
  100e09:	74 57                	je     100e62 <strstr+0x72>
  100e0b:	31 ff                	xor    %edi,%edi
  100e0d:	8d 76 00             	lea    0x0(%esi),%esi
  100e10:	83 c7 01             	add    $0x1,%edi
  100e13:	80 7c 3d 00 00       	cmpb   $0x0,0x0(%ebp,%edi,1)
  100e18:	75 f6                	jne    100e10 <strstr+0x20>
  100e1a:	0f b6 03             	movzbl (%ebx),%eax
  100e1d:	89 f2                	mov    %esi,%edx
  100e1f:	38 c2                	cmp    %al,%dl
  100e21:	74 1d                	je     100e40 <strstr+0x50>
  100e23:	8d b6 00 00 00 00    	lea    0x0(%esi),%esi
  100e29:	8d bc 27 00 00 00 00 	lea    0x0(%edi,%eiz,1),%edi
  100e30:	83 c3 01             	add    $0x1,%ebx
  100e33:	84 c0                	test   %al,%al
  100e35:	74 29                	je     100e60 <strstr+0x70>
  100e37:	0f b6 03             	movzbl (%ebx),%eax
  100e3a:	89 f2                	mov    %esi,%edx
  100e3c:	38 c2                	cmp    %al,%dl
  100e3e:	75 f0                	jne    100e30 <strstr+0x40>
  100e40:	89 f9                	mov    %edi,%ecx
  100e42:	89 ea                	mov    %ebp,%edx
  100e44:	89 d8                	mov    %ebx,%eax
  100e46:	e8 a5 a0 01 00       	call   11aef0 <strncmp.part.0>
  100e4b:	85 c0                	test   %eax,%eax
  100e4d:	74 1b                	je     100e6a <strstr+0x7a>
  100e4f:	83 c3 01             	add    $0x1,%ebx
  100e52:	eb e3                	jmp    100e37 <strstr+0x47>
  100e54:	8d b6 00 00 00 00    	lea    0x0(%esi),%esi
  100e5a:	8d bf 00 00 00 00    	lea    0x0(%edi),%edi
  100e60:	31 c0                	xor    %eax,%eax
  100e62:	83 c4 0c             	add    $0xc,%esp
  100e65:	5b                   	pop    %ebx
  100e66:	5e                   	pop    %esi
  100e67:	5f                   	pop    %edi
  100e68:	5d                   	pop    %ebp
  100e69:	c3                   	ret    
  100e6a:	83 c4 0c             	add    $0xc,%esp
  100e6d:	89 d8                	mov    %ebx,%eax
  100e6f:	5b                   	pop    %ebx
  100e70:	5e                   	pop    %esi
  100e71:	5f                   	pop    %edi
  100e72:	5d                   	pop    %ebp
  100e73:	c3                   	ret    
  100e74:	8d b6 00 00 00 00    	lea    0x0(%esi),%esi
  100e7a:	8d bf 00 00 00 00    	lea    0x0(%edi),%edi

00100e80 <stroccr>:
  100e80:	53                   	push   %ebx
  100e81:	8b 4c 24 08          	mov    0x8(%esp),%ecx
  100e85:	31 c0                	xor    %eax,%eax
  100e87:	0f b6 5c 24 0c       	movzbl 0xc(%esp),%ebx
  100e8c:	0f b6 11             	movzbl (%ecx),%edx
  100e8f:	84 d2                	test   %dl,%dl
  100e91:	74 21                	je     100eb4 <stroccr+0x34>
  100e93:	8d b6 00 00 00 00    	lea    0x0(%esi),%esi
  100e99:	8d bc 27 00 00 00 00 	lea    0x0(%edi,%eiz,1),%edi
  100ea0:	38 d3                	cmp    %dl,%bl
  100ea2:	0f 94 c2             	sete   %dl
  100ea5:	83 c1 01             	add    $0x1,%ecx
  100ea8:	0f b6 d2             	movzbl %dl,%edx
  100eab:	01 d0                	add    %edx,%eax
  100ead:	0f b6 11             	movzbl (%ecx),%edx
  100eb0:	84 d2                	test   %dl,%dl
  100eb2:	75 ec                	jne    100ea0 <stroccr+0x20>
  100eb4:	5b                   	pop    %ebx
  100eb5:	c3                   	ret    
  100eb6:	8d 76 00             	lea    0x0(%esi),%esi
  100eb9:	8d bc 27 00 00 00 00 	lea    0x0(%edi,%eiz,1),%edi

00100ec0 <delay>:
  100ec0:	f3 c3                	repz ret 
  100ec2:	8d b4 26 00 00 00 00 	lea    0x0(%esi,%eiz,1),%esi
  100ec9:	8d bc 27 00 00 00 00 	lea    0x0(%edi,%eiz,1),%edi

00100ed0 <mouse_wait>:
  100ed0:	80 7c 24 04 00       	cmpb   $0x0,0x4(%esp)
  100ed5:	75 09                	jne    100ee0 <mouse_wait+0x10>
  100ed7:	e9 74 a0 01 00       	jmp    11af50 <mouse_wait.part.1>
  100edc:	8d 74 26 00          	lea    0x0(%esi,%eiz,1),%esi
  100ee0:	ba a0 86 01 00       	mov    $0x186a0,%edx
  100ee5:	eb 0e                	jmp    100ef5 <mouse_wait+0x25>
  100ee7:	89 f6                	mov    %esi,%esi
  100ee9:	8d bc 27 00 00 00 00 	lea    0x0(%edi,%eiz,1),%edi
  100ef0:	83 ea 01             	sub    $0x1,%edx
  100ef3:	74 06                	je     100efb <mouse_wait+0x2b>
  100ef5:	e4 64                	in     $0x64,%al
  100ef7:	a8 02                	test   $0x2,%al
  100ef9:	75 f5                	jne    100ef0 <mouse_wait+0x20>
  100efb:	f3 c3                	repz ret 
  100efd:	8d 76 00             	lea    0x0(%esi),%esi

00100f00 <mouse_write>:
  100f00:	8b 4c 24 04          	mov    0x4(%esp),%ecx
  100f04:	ba a0 86 01 00       	mov    $0x186a0,%edx
  100f09:	eb 0a                	jmp    100f15 <mouse_write+0x15>
  100f0b:	90                   	nop
  100f0c:	8d 74 26 00          	lea    0x0(%esi,%eiz,1),%esi
  100f10:	83 ea 01             	sub    $0x1,%edx
  100f13:	74 06                	je     100f1b <mouse_write+0x1b>
  100f15:	e4 64                	in     $0x64,%al
  100f17:	a8 02                	test   $0x2,%al
  100f19:	75 f5                	jne    100f10 <mouse_write+0x10>
  100f1b:	b8 d4 ff ff ff       	mov    $0xffffffd4,%eax
  100f20:	e6 64                	out    %al,$0x64
  100f22:	ba a0 86 01 00       	mov    $0x186a0,%edx
  100f27:	eb 0c                	jmp    100f35 <mouse_write+0x35>
  100f29:	8d b4 26 00 00 00 00 	lea    0x0(%esi,%eiz,1),%esi
  100f30:	83 ea 01             	sub    $0x1,%edx
  100f33:	74 06                	je     100f3b <mouse_write+0x3b>
  100f35:	e4 64                	in     $0x64,%al
  100f37:	a8 02                	test   $0x2,%al
  100f39:	75 f5                	jne    100f30 <mouse_write+0x30>
  100f3b:	89 c8                	mov    %ecx,%eax
  100f3d:	e6 60                	out    %al,$0x60
  100f3f:	c3                   	ret    

00100f40 <mouse_read>:
  100f40:	83 ec 0c             	sub    $0xc,%esp
  100f43:	e8 08 a0 01 00       	call   11af50 <mouse_wait.part.1>
  100f48:	e4 60                	in     $0x60,%al
  100f4a:	83 c4 0c             	add    $0xc,%esp
  100f4d:	c3                   	ret    
  100f4e:	66 90                	xchg   %ax,%ax

00100f50 <mouseinit>:
  100f50:	83 ec 0c             	sub    $0xc,%esp
  100f53:	ba a0 86 01 00       	mov    $0x186a0,%edx
  100f58:	eb 0b                	jmp    100f65 <mouseinit+0x15>
  100f5a:	8d b6 00 00 00 00    	lea    0x0(%esi),%esi
  100f60:	83 ea 01             	sub    $0x1,%edx
  100f63:	74 06                	je     100f6b <mouseinit+0x1b>
  100f65:	e4 64                	in     $0x64,%al
  100f67:	a8 02                	test   $0x2,%al
  100f69:	75 f5                	jne    100f60 <mouseinit+0x10>
  100f6b:	b8 a8 ff ff ff       	mov    $0xffffffa8,%eax
  100f70:	e6 64                	out    %al,$0x64
  100f72:	ba a0 86 01 00       	mov    $0x186a0,%edx
  100f77:	eb 0c                	jmp    100f85 <mouseinit+0x35>
  100f79:	8d b4 26 00 00 00 00 	lea    0x0(%esi,%eiz,1),%esi
  100f80:	83 ea 01             	sub    $0x1,%edx
  100f83:	74 06                	je     100f8b <mouseinit+0x3b>
  100f85:	e4 64                	in     $0x64,%al
  100f87:	a8 02                	test   $0x2,%al
  100f89:	75 f5                	jne    100f80 <mouseinit+0x30>
  100f8b:	b8 20 00 00 00       	mov    $0x20,%eax
  100f90:	e6 64                	out    %al,$0x64
  100f92:	e8 b9 9f 01 00       	call   11af50 <mouse_wait.part.1>
  100f97:	e4 60                	in     $0x60,%al
  100f99:	83 c8 02             	or     $0x2,%eax
  100f9c:	ba a0 86 01 00       	mov    $0x186a0,%edx
  100fa1:	89 c1                	mov    %eax,%ecx
  100fa3:	eb 10                	jmp    100fb5 <mouseinit+0x65>
  100fa5:	8d 74 26 00          	lea    0x0(%esi,%eiz,1),%esi
  100fa9:	8d bc 27 00 00 00 00 	lea    0x0(%edi,%eiz,1),%edi
  100fb0:	83 ea 01             	sub    $0x1,%edx
  100fb3:	74 06                	je     100fbb <mouseinit+0x6b>
  100fb5:	e4 64                	in     $0x64,%al
  100fb7:	a8 02                	test   $0x2,%al
  100fb9:	75 f5                	jne    100fb0 <mouseinit+0x60>
  100fbb:	b8 60 00 00 00       	mov    $0x60,%eax
  100fc0:	e6 64                	out    %al,$0x64
  100fc2:	ba a0 86 01 00       	mov    $0x186a0,%edx
  100fc7:	eb 0c                	jmp    100fd5 <mouseinit+0x85>
  100fc9:	8d b4 26 00 00 00 00 	lea    0x0(%esi,%eiz,1),%esi
  100fd0:	83 ea 01             	sub    $0x1,%edx
  100fd3:	74 06                	je     100fdb <mouseinit+0x8b>
  100fd5:	e4 64                	in     $0x64,%al
  100fd7:	a8 02                	test   $0x2,%al
  100fd9:	75 f5                	jne    100fd0 <mouseinit+0x80>
  100fdb:	89 c8                	mov    %ecx,%eax
  100fdd:	e6 60                	out    %al,$0x60
  100fdf:	ba a0 86 01 00       	mov    $0x186a0,%edx
  100fe4:	eb 0f                	jmp    100ff5 <mouseinit+0xa5>
  100fe6:	8d 76 00             	lea    0x0(%esi),%esi
  100fe9:	8d bc 27 00 00 00 00 	lea    0x0(%edi,%eiz,1),%edi
  100ff0:	83 ea 01             	sub    $0x1,%edx
  100ff3:	74 06                	je     100ffb <mouseinit+0xab>
  100ff5:	e4 64                	in     $0x64,%al
  100ff7:	a8 02                	test   $0x2,%al
  100ff9:	75 f5                	jne    100ff0 <mouseinit+0xa0>
  100ffb:	b8 d4 ff ff ff       	mov    $0xffffffd4,%eax
  101000:	e6 64                	out    %al,$0x64
  101002:	ba a0 86 01 00       	mov    $0x186a0,%edx
  101007:	eb 0c                	jmp    101015 <mouseinit+0xc5>
  101009:	8d b4 26 00 00 00 00 	lea    0x0(%esi,%eiz,1),%esi
  101010:	83 ea 01             	sub    $0x1,%edx
  101013:	74 06                	je     10101b <mouseinit+0xcb>
  101015:	e4 64                	in     $0x64,%al
  101017:	a8 02                	test   $0x2,%al
  101019:	75 f5                	jne    101010 <mouseinit+0xc0>
  10101b:	b8 f6 ff ff ff       	mov    $0xfffffff6,%eax
  101020:	e6 60                	out    %al,$0x60
  101022:	e8 29 9f 01 00       	call   11af50 <mouse_wait.part.1>
  101027:	e4 60                	in     $0x60,%al
  101029:	ba a0 86 01 00       	mov    $0x186a0,%edx
  10102e:	eb 05                	jmp    101035 <mouseinit+0xe5>
  101030:	83 ea 01             	sub    $0x1,%edx
  101033:	74 06                	je     10103b <mouseinit+0xeb>
  101035:	e4 64                	in     $0x64,%al
  101037:	a8 02                	test   $0x2,%al
  101039:	75 f5                	jne    101030 <mouseinit+0xe0>
  10103b:	b8 d4 ff ff ff       	mov    $0xffffffd4,%eax
  101040:	e6 64                	out    %al,$0x64
  101042:	ba a0 86 01 00       	mov    $0x186a0,%edx
  101047:	eb 0c                	jmp    101055 <mouseinit+0x105>
  101049:	8d b4 26 00 00 00 00 	lea    0x0(%esi,%eiz,1),%esi
  101050:	83 ea 01             	sub    $0x1,%edx
  101053:	74 06                	je     10105b <mouseinit+0x10b>
  101055:	e4 64                	in     $0x64,%al
  101057:	a8 02                	test   $0x2,%al
  101059:	75 f5                	jne    101050 <mouseinit+0x100>
  10105b:	b8 f4 ff ff ff       	mov    $0xfffffff4,%eax
  101060:	e6 60                	out    %al,$0x60
  101062:	e8 e9 9e 01 00       	call   11af50 <mouse_wait.part.1>
  101067:	e4 60                	in     $0x60,%al
  101069:	83 c4 0c             	add    $0xc,%esp
  10106c:	c3                   	ret    
  10106d:	8d 76 00             	lea    0x0(%esi),%esi

00101070 <mouse_updater>:
  101070:	8b 15 d8 96 16 00    	mov    0x1696d8,%edx
  101076:	83 fa 02             	cmp    $0x2,%edx
  101079:	77 24                	ja     10109f <mouse_updater+0x2f>
  10107b:	90                   	nop
  10107c:	8d 74 26 00          	lea    0x0(%esi,%eiz,1),%esi
  101080:	81 c2 d5 96 16 00    	add    $0x1696d5,%edx
  101086:	8d 76 00             	lea    0x0(%esi),%esi
  101089:	8d bc 27 00 00 00 00 	lea    0x0(%edi,%eiz,1),%edi
  101090:	e4 60                	in     $0x60,%al
  101092:	88 02                	mov    %al,(%edx)
  101094:	83 c2 01             	add    $0x1,%edx
  101097:	81 fa d8 96 16 00    	cmp    $0x1696d8,%edx
  10109d:	75 f1                	jne    101090 <mouse_updater+0x20>
  10109f:	0f b6 05 d5 96 16 00 	movzbl 0x1696d5,%eax
  1010a6:	84 c0                	test   %al,%al
  1010a8:	78 4b                	js     1010f5 <mouse_updater+0x85>
  1010aa:	a8 40                	test   $0x40,%al
  1010ac:	75 47                	jne    1010f5 <mouse_updater+0x85>
  1010ae:	a8 20                	test   $0x20,%al
  1010b0:	75 12                	jne    1010c4 <mouse_updater+0x54>
  1010b2:	8b 15 04 96 16 00    	mov    0x169604,%edx
  1010b8:	81 ca 00 ff ff ff    	or     $0xffffff00,%edx
  1010be:	89 15 04 96 16 00    	mov    %edx,0x169604
  1010c4:	a8 10                	test   $0x10,%al
  1010c6:	75 0f                	jne    1010d7 <mouse_updater+0x67>
  1010c8:	a1 00 96 16 00       	mov    0x169600,%eax
  1010cd:	0d 00 ff ff ff       	or     $0xffffff00,%eax
  1010d2:	a3 00 96 16 00       	mov    %eax,0x169600
  1010d7:	0f be 05 d6 96 16 00 	movsbl 0x1696d6,%eax
  1010de:	a3 00 96 16 00       	mov    %eax,0x169600
  1010e3:	0f be 05 d7 96 16 00 	movsbl 0x1696d7,%eax
  1010ea:	a3 04 96 16 00       	mov    %eax,0x169604
  1010ef:	cd 32                	int    $0x32
  1010f1:	31 d2                	xor    %edx,%edx
  1010f3:	eb 8b                	jmp    101080 <mouse_updater+0x10>
  1010f5:	c7 05 d8 96 16 00 00 	movl   $0x0,0x1696d8
  1010fc:	00 00 00 
  1010ff:	c3                   	ret    

00101100 <print>:
  101100:	56                   	push   %esi
  101101:	53                   	push   %ebx
  101102:	8d 34 10             	lea    (%eax,%edx,1),%esi
  101105:	83 ec 04             	sub    $0x4,%esp
  101108:	85 d2                	test   %edx,%edx
  10110a:	74 1a                	je     101126 <print+0x26>
  10110c:	89 c3                	mov    %eax,%ebx
  10110e:	66 90                	xchg   %ax,%ax
  101110:	0f be 03             	movsbl (%ebx),%eax
  101113:	83 ec 0c             	sub    $0xc,%esp
  101116:	83 c3 01             	add    $0x1,%ebx
  101119:	50                   	push   %eax
  10111a:	e8 d1 07 00 00       	call   1018f0 <console_putchar>
  10111f:	83 c4 10             	add    $0x10,%esp
  101122:	39 de                	cmp    %ebx,%esi
  101124:	75 ea                	jne    101110 <print+0x10>
  101126:	83 c4 04             	add    $0x4,%esp
  101129:	5b                   	pop    %ebx
  10112a:	5e                   	pop    %esi
  10112b:	c3                   	ret    
  10112c:	8d 74 26 00          	lea    0x0(%esi,%eiz,1),%esi

00101130 <scanf>:
  101130:	55                   	push   %ebp
  101131:	57                   	push   %edi
  101132:	56                   	push   %esi
  101133:	53                   	push   %ebx
  101134:	83 ec 5c             	sub    $0x5c,%esp
  101137:	a1 14 96 16 00       	mov    0x169614,%eax
  10113c:	8b 5c 24 70          	mov    0x70(%esp),%ebx
  101140:	89 44 24 04          	mov    %eax,0x4(%esp)
  101144:	8d b6 00 00 00 00    	lea    0x0(%esi),%esi
  10114a:	8d bf 00 00 00 00    	lea    0x0(%edi),%edi
  101150:	85 c0                	test   %eax,%eax
  101152:	75 fc                	jne    101150 <scanf+0x20>
  101154:	0f b6 13             	movzbl (%ebx),%edx
  101157:	8d 44 24 74          	lea    0x74(%esp),%eax
  10115b:	c7 05 14 96 16 00 01 	movl   $0x1,0x169614
  101162:	00 00 00 
  101165:	c6 44 24 0b 00       	movb   $0x0,0xb(%esp)
  10116a:	89 44 24 0c          	mov    %eax,0xc(%esp)
  10116e:	84 d2                	test   %dl,%dl
  101170:	0f 84 7e 00 00 00    	je     1011f4 <scanf+0xc4>
  101176:	8d 76 00             	lea    0x0(%esi),%esi
  101179:	8d bc 27 00 00 00 00 	lea    0x0(%edi,%eiz,1),%edi
  101180:	80 fa 25             	cmp    $0x25,%dl
  101183:	0f 84 87 00 00 00    	je     101210 <scanf+0xe0>
  101189:	0f b6 43 01          	movzbl 0x1(%ebx),%eax
  10118d:	8d 73 01             	lea    0x1(%ebx),%esi
  101190:	84 c0                	test   %al,%al
  101192:	0f 84 a1 00 00 00    	je     101239 <scanf+0x109>
  101198:	3c 25                	cmp    $0x25,%al
  10119a:	0f 84 99 00 00 00    	je     101239 <scanf+0x109>
  1011a0:	8d 43 02             	lea    0x2(%ebx),%eax
  1011a3:	bf 01 00 00 00       	mov    $0x1,%edi
  1011a8:	eb 0b                	jmp    1011b5 <scanf+0x85>
  1011aa:	8d b6 00 00 00 00    	lea    0x0(%esi),%esi
  1011b0:	80 fa 25             	cmp    $0x25,%dl
  1011b3:	74 0f                	je     1011c4 <scanf+0x94>
  1011b5:	0f b6 10             	movzbl (%eax),%edx
  1011b8:	83 c7 01             	add    $0x1,%edi
  1011bb:	89 c6                	mov    %eax,%esi
  1011bd:	83 c0 01             	add    $0x1,%eax
  1011c0:	84 d2                	test   %dl,%dl
  1011c2:	75 ec                	jne    1011b0 <scanf+0x80>
  1011c4:	85 ff                	test   %edi,%edi
  1011c6:	74 22                	je     1011ea <scanf+0xba>
  1011c8:	31 ed                	xor    %ebp,%ebp
  1011ca:	8d b6 00 00 00 00    	lea    0x0(%esi),%esi
  1011d0:	0f be 04 2b          	movsbl (%ebx,%ebp,1),%eax
  1011d4:	83 ec 0c             	sub    $0xc,%esp
  1011d7:	83 c5 01             	add    $0x1,%ebp
  1011da:	50                   	push   %eax
  1011db:	e8 40 0a 00 00       	call   101c20 <_putchar>
  1011e0:	83 c4 10             	add    $0x10,%esp
  1011e3:	39 ef                	cmp    %ebp,%edi
  1011e5:	77 e9                	ja     1011d0 <scanf+0xa0>
  1011e7:	0f b6 16             	movzbl (%esi),%edx
  1011ea:	01 7c 24 04          	add    %edi,0x4(%esp)
  1011ee:	84 d2                	test   %dl,%dl
  1011f0:	89 f3                	mov    %esi,%ebx
  1011f2:	75 8c                	jne    101180 <scanf+0x50>
  1011f4:	8b 44 24 04          	mov    0x4(%esp),%eax
  1011f8:	c7 05 14 96 16 00 00 	movl   $0x0,0x169614
  1011ff:	00 00 00 
  101202:	83 c4 5c             	add    $0x5c,%esp
  101205:	5b                   	pop    %ebx
  101206:	5e                   	pop    %esi
  101207:	5f                   	pop    %edi
  101208:	5d                   	pop    %ebp
  101209:	c3                   	ret    
  10120a:	8d b6 00 00 00 00    	lea    0x0(%esi),%esi
  101210:	0f b6 43 01          	movzbl 0x1(%ebx),%eax
  101214:	8d 53 01             	lea    0x1(%ebx),%edx
  101217:	3c 25                	cmp    $0x25,%al
  101219:	74 3c                	je     101257 <scanf+0x127>
  10121b:	80 7c 24 0b 00       	cmpb   $0x0,0xb(%esp)
  101220:	75 2e                	jne    101250 <scanf+0x120>
  101222:	3c 64                	cmp    $0x64,%al
  101224:	74 3f                	je     101265 <scanf+0x135>
  101226:	3c 73                	cmp    $0x73,%al
  101228:	74 78                	je     1012a2 <scanf+0x172>
  10122a:	84 c0                	test   %al,%al
  10122c:	89 d6                	mov    %edx,%esi
  10122e:	c6 44 24 0b 01       	movb   $0x1,0xb(%esp)
  101233:	0f 85 5f ff ff ff    	jne    101198 <scanf+0x68>
  101239:	0f be 03             	movsbl (%ebx),%eax
  10123c:	83 ec 0c             	sub    $0xc,%esp
  10123f:	bf 01 00 00 00       	mov    $0x1,%edi
  101244:	50                   	push   %eax
  101245:	e8 d6 09 00 00       	call   101c20 <_putchar>
  10124a:	83 c4 10             	add    $0x10,%esp
  10124d:	eb 98                	jmp    1011e7 <scanf+0xb7>
  10124f:	90                   	nop
  101250:	89 d6                	mov    %edx,%esi
  101252:	e9 39 ff ff ff       	jmp    101190 <scanf+0x60>
  101257:	8d 73 02             	lea    0x2(%ebx),%esi
  10125a:	0f b6 43 02          	movzbl 0x2(%ebx),%eax
  10125e:	89 d3                	mov    %edx,%ebx
  101260:	e9 2b ff ff ff       	jmp    101190 <scanf+0x60>
  101265:	8b 4c 24 0c          	mov    0xc(%esp),%ecx
  101269:	83 ec 08             	sub    $0x8,%esp
  10126c:	8d 73 02             	lea    0x2(%ebx),%esi
  10126f:	89 c8                	mov    %ecx,%eax
  101271:	83 c1 04             	add    $0x4,%ecx
  101274:	89 4c 24 14          	mov    %ecx,0x14(%esp)
  101278:	8b 28                	mov    (%eax),%ebp
  10127a:	6a 0f                	push   $0xf
  10127c:	8d 44 24 2a          	lea    0x2a(%esp),%eax
  101280:	50                   	push   %eax
  101281:	e8 4a 32 01 00       	call   1144d0 <kb_getline>
  101286:	58                   	pop    %eax
  101287:	8d 44 24 2a          	lea    0x2a(%esp),%eax
  10128b:	50                   	push   %eax
  10128c:	e8 0f 1c 00 00       	call   102ea0 <StrToInt>
  101291:	83 c4 10             	add    $0x10,%esp
  101294:	89 45 00             	mov    %eax,0x0(%ebp)
  101297:	0f b6 53 02          	movzbl 0x2(%ebx),%edx
  10129b:	89 f3                	mov    %esi,%ebx
  10129d:	e9 cc fe ff ff       	jmp    10116e <scanf+0x3e>
  1012a2:	8b 4c 24 0c          	mov    0xc(%esp),%ecx
  1012a6:	83 ec 08             	sub    $0x8,%esp
  1012a9:	8d 73 02             	lea    0x2(%ebx),%esi
  1012ac:	89 c8                	mov    %ecx,%eax
  1012ae:	83 c1 04             	add    $0x4,%ecx
  1012b1:	89 4c 24 14          	mov    %ecx,0x14(%esp)
  1012b5:	8b 28                	mov    (%eax),%ebp
  1012b7:	6a 32                	push   $0x32
  1012b9:	8d 44 24 2a          	lea    0x2a(%esp),%eax
  1012bd:	50                   	push   %eax
  1012be:	e8 0d 32 01 00       	call   1144d0 <kb_getline>
  1012c3:	0f b6 54 24 2e       	movzbl 0x2e(%esp),%edx
  1012c8:	83 c4 10             	add    $0x10,%esp
  1012cb:	89 e8                	mov    %ebp,%eax
  1012cd:	8d 4c 24 1e          	lea    0x1e(%esp),%ecx
  1012d1:	29 e9                	sub    %ebp,%ecx
  1012d3:	8d b6 00 00 00 00    	lea    0x0(%esi),%esi
  1012d9:	8d bc 27 00 00 00 00 	lea    0x0(%edi,%eiz,1),%edi
  1012e0:	83 c0 01             	add    $0x1,%eax
  1012e3:	88 50 ff             	mov    %dl,-0x1(%eax)
  1012e6:	0f b6 14 08          	movzbl (%eax,%ecx,1),%edx
  1012ea:	84 d2                	test   %dl,%dl
  1012ec:	75 f2                	jne    1012e0 <scanf+0x1b0>
  1012ee:	c6 00 00             	movb   $0x0,(%eax)
  1012f1:	0f b6 53 02          	movzbl 0x2(%ebx),%edx
  1012f5:	89 f3                	mov    %esi,%ebx
  1012f7:	e9 72 fe ff ff       	jmp    10116e <scanf+0x3e>
  1012fc:	8d 74 26 00          	lea    0x0(%esi,%eiz,1),%esi

00101300 <printf>:
  101300:	55                   	push   %ebp
  101301:	57                   	push   %edi
  101302:	31 c9                	xor    %ecx,%ecx
  101304:	56                   	push   %esi
  101305:	53                   	push   %ebx
  101306:	ba 01 00 00 00       	mov    $0x1,%edx
  10130b:	83 ec 4c             	sub    $0x4c,%esp
  10130e:	8b 74 24 60          	mov    0x60(%esp),%esi
  101312:	8d b4 26 00 00 00 00 	lea    0x0(%esi,%eiz,1),%esi
  101319:	8d bc 27 00 00 00 00 	lea    0x0(%edi,%eiz,1),%edi
  101320:	89 c8                	mov    %ecx,%eax
  101322:	f0 0f b1 15 b8 95 16 	lock cmpxchg %edx,0x1695b8
  101329:	00 
  10132a:	0f 94 c3             	sete   %bl
  10132d:	75 f1                	jne    101320 <printf+0x20>
  10132f:	f0 83 0c 24 00       	lock orl $0x0,(%esp)
  101334:	a1 54 96 16 00       	mov    0x169654,%eax
  101339:	85 c0                	test   %eax,%eax
  10133b:	0f 84 b3 00 00 00    	je     1013f4 <printf+0xf4>
  101341:	0f b6 06             	movzbl (%esi),%eax
  101344:	8d 54 24 64          	lea    0x64(%esp),%edx
  101348:	88 5c 24 1f          	mov    %bl,0x1f(%esp)
  10134c:	c6 44 24 08 00       	movb   $0x0,0x8(%esp)
  101351:	c7 44 24 14 00 00 00 	movl   $0x0,0x14(%esp)
  101358:	00 
  101359:	89 d3                	mov    %edx,%ebx
  10135b:	84 c0                	test   %al,%al
  10135d:	74 70                	je     1013cf <printf+0xcf>
  10135f:	3c 25                	cmp    $0x25,%al
  101361:	0f 84 89 01 00 00    	je     1014f0 <printf+0x1f0>
  101367:	0f b6 46 01          	movzbl 0x1(%esi),%eax
  10136b:	8d 7e 01             	lea    0x1(%esi),%edi
  10136e:	3c 25                	cmp    $0x25,%al
  101370:	0f 84 cd 02 00 00    	je     101643 <printf+0x343>
  101376:	84 c0                	test   %al,%al
  101378:	0f 84 c5 02 00 00    	je     101643 <printf+0x343>
  10137e:	8d 4e 02             	lea    0x2(%esi),%ecx
  101381:	bd 01 00 00 00       	mov    $0x1,%ebp
  101386:	eb 04                	jmp    10138c <printf+0x8c>
  101388:	3c 25                	cmp    $0x25,%al
  10138a:	74 0f                	je     10139b <printf+0x9b>
  10138c:	0f b6 01             	movzbl (%ecx),%eax
  10138f:	83 c5 01             	add    $0x1,%ebp
  101392:	89 cf                	mov    %ecx,%edi
  101394:	83 c1 01             	add    $0x1,%ecx
  101397:	84 c0                	test   %al,%al
  101399:	75 ed                	jne    101388 <printf+0x88>
  10139b:	85 ed                	test   %ebp,%ebp
  10139d:	74 26                	je     1013c5 <printf+0xc5>
  10139f:	31 c9                	xor    %ecx,%ecx
  1013a1:	89 5c 24 18          	mov    %ebx,0x18(%esp)
  1013a5:	89 cb                	mov    %ecx,%ebx
  1013a7:	0f be 04 1e          	movsbl (%esi,%ebx,1),%eax
  1013ab:	83 ec 0c             	sub    $0xc,%esp
  1013ae:	83 c3 01             	add    $0x1,%ebx
  1013b1:	50                   	push   %eax
  1013b2:	e8 69 08 00 00       	call   101c20 <_putchar>
  1013b7:	83 c4 10             	add    $0x10,%esp
  1013ba:	39 dd                	cmp    %ebx,%ebp
  1013bc:	77 e9                	ja     1013a7 <printf+0xa7>
  1013be:	8b 5c 24 18          	mov    0x18(%esp),%ebx
  1013c2:	0f b6 07             	movzbl (%edi),%eax
  1013c5:	01 6c 24 14          	add    %ebp,0x14(%esp)
  1013c9:	84 c0                	test   %al,%al
  1013cb:	89 fe                	mov    %edi,%esi
  1013cd:	75 90                	jne    10135f <printf+0x5f>
  1013cf:	c7 05 14 96 16 00 00 	movl   $0x0,0x169614
  1013d6:	00 00 00 
  1013d9:	f0 83 0c 24 00       	lock orl $0x0,(%esp)
  1013de:	c7 05 b8 95 16 00 00 	movl   $0x0,0x1695b8
  1013e5:	00 00 00 
  1013e8:	8b 44 24 14          	mov    0x14(%esp),%eax
  1013ec:	83 c4 4c             	add    $0x4c,%esp
  1013ef:	5b                   	pop    %ebx
  1013f0:	5e                   	pop    %esi
  1013f1:	5f                   	pop    %edi
  1013f2:	5d                   	pop    %ebp
  1013f3:	c3                   	ret    
  1013f4:	8d 7c 24 64          	lea    0x64(%esp),%edi
  1013f8:	c6 44 24 08 00       	movb   $0x0,0x8(%esp)
  1013fd:	c7 44 24 14 00 00 00 	movl   $0x0,0x14(%esp)
  101404:	00 
  101405:	0f b6 06             	movzbl (%esi),%eax
  101408:	84 c0                	test   %al,%al
  10140a:	74 c3                	je     1013cf <printf+0xcf>
  10140c:	3c 25                	cmp    $0x25,%al
  10140e:	74 4e                	je     10145e <printf+0x15e>
  101410:	0f b6 46 01          	movzbl 0x1(%esi),%eax
  101414:	8d 6e 01             	lea    0x1(%esi),%ebp
  101417:	84 c0                	test   %al,%al
  101419:	0f 84 c6 00 00 00    	je     1014e5 <printf+0x1e5>
  10141f:	3c 25                	cmp    $0x25,%al
  101421:	0f 84 be 00 00 00    	je     1014e5 <printf+0x1e5>
  101427:	8d 46 02             	lea    0x2(%esi),%eax
  10142a:	b9 01 00 00 00       	mov    $0x1,%ecx
  10142f:	eb 05                	jmp    101436 <printf+0x136>
  101431:	80 fa 25             	cmp    $0x25,%dl
  101434:	74 0f                	je     101445 <printf+0x145>
  101436:	0f b6 10             	movzbl (%eax),%edx
  101439:	83 c1 01             	add    $0x1,%ecx
  10143c:	89 c5                	mov    %eax,%ebp
  10143e:	83 c0 01             	add    $0x1,%eax
  101441:	84 d2                	test   %dl,%dl
  101443:	75 ec                	jne    101431 <printf+0x131>
  101445:	89 ca                	mov    %ecx,%edx
  101447:	89 f0                	mov    %esi,%eax
  101449:	89 4c 24 18          	mov    %ecx,0x18(%esp)
  10144d:	89 ee                	mov    %ebp,%esi
  10144f:	e8 ac fc ff ff       	call   101100 <print>
  101454:	8b 4c 24 18          	mov    0x18(%esp),%ecx
  101458:	01 4c 24 14          	add    %ecx,0x14(%esp)
  10145c:	eb a7                	jmp    101405 <printf+0x105>
  10145e:	8d 46 01             	lea    0x1(%esi),%eax
  101461:	89 44 24 18          	mov    %eax,0x18(%esp)
  101465:	0f b6 46 01          	movzbl 0x1(%esi),%eax
  101469:	3c 25                	cmp    $0x25,%al
  10146b:	0f 84 d9 02 00 00    	je     10174a <printf+0x44a>
  101471:	80 7c 24 08 00       	cmpb   $0x0,0x8(%esp)
  101476:	0f 85 b4 01 00 00    	jne    101630 <printf+0x330>
  10147c:	3c 63                	cmp    $0x63,%al
  10147e:	0f 84 fa 02 00 00    	je     10177e <printf+0x47e>
  101484:	3c 73                	cmp    $0x73,%al
  101486:	0f 84 ce 02 00 00    	je     10175a <printf+0x45a>
  10148c:	3c 69                	cmp    $0x69,%al
  10148e:	0f 94 c2             	sete   %dl
  101491:	3c 64                	cmp    $0x64,%al
  101493:	0f 94 c1             	sete   %cl
  101496:	08 ca                	or     %cl,%dl
  101498:	0f 85 3d 03 00 00    	jne    1017db <printf+0x4db>
  10149e:	3c 6c                	cmp    $0x6c,%al
  1014a0:	0f 94 c2             	sete   %dl
  1014a3:	3c 78                	cmp    $0x78,%al
  1014a5:	0f 94 c1             	sete   %cl
  1014a8:	08 ca                	or     %cl,%dl
  1014aa:	0f 85 2b 03 00 00    	jne    1017db <printf+0x4db>
  1014b0:	3c 61                	cmp    $0x61,%al
  1014b2:	0f 94 c2             	sete   %dl
  1014b5:	3c 4c                	cmp    $0x4c,%al
  1014b7:	0f 94 c1             	sete   %cl
  1014ba:	08 ca                	or     %cl,%dl
  1014bc:	88 54 24 08          	mov    %dl,0x8(%esp)
  1014c0:	0f 85 f6 02 00 00    	jne    1017bc <printf+0x4bc>
  1014c6:	3c 70                	cmp    $0x70,%al
  1014c8:	0f 84 d1 02 00 00    	je     10179f <printf+0x49f>
  1014ce:	3c 67                	cmp    $0x67,%al
  1014d0:	0f 84 c9 02 00 00    	je     10179f <printf+0x49f>
  1014d6:	84 c0                	test   %al,%al
  1014d8:	8d 6e 01             	lea    0x1(%esi),%ebp
  1014db:	88 5c 24 08          	mov    %bl,0x8(%esp)
  1014df:	0f 85 3a ff ff ff    	jne    10141f <printf+0x11f>
  1014e5:	b9 01 00 00 00       	mov    $0x1,%ecx
  1014ea:	e9 56 ff ff ff       	jmp    101445 <printf+0x145>
  1014ef:	90                   	nop
  1014f0:	8d 46 01             	lea    0x1(%esi),%eax
  1014f3:	89 44 24 18          	mov    %eax,0x18(%esp)
  1014f7:	0f b6 46 01          	movzbl 0x1(%esi),%eax
  1014fb:	3c 25                	cmp    $0x25,%al
  1014fd:	0f 84 59 01 00 00    	je     10165c <printf+0x35c>
  101503:	80 7c 24 08 00       	cmpb   $0x0,0x8(%esp)
  101508:	0f 85 2a 01 00 00    	jne    101638 <printf+0x338>
  10150e:	3c 63                	cmp    $0x63,%al
  101510:	0f 84 9b 01 00 00    	je     1016b1 <printf+0x3b1>
  101516:	3c 73                	cmp    $0x73,%al
  101518:	0f 84 4e 01 00 00    	je     10166c <printf+0x36c>
  10151e:	3c 69                	cmp    $0x69,%al
  101520:	0f 94 c2             	sete   %dl
  101523:	3c 64                	cmp    $0x64,%al
  101525:	89 d5                	mov    %edx,%ebp
  101527:	0f 94 c2             	sete   %dl
  10152a:	89 e9                	mov    %ebp,%ecx
  10152c:	08 d1                	or     %dl,%cl
  10152e:	0f 85 d2 01 00 00    	jne    101706 <printf+0x406>
  101534:	3c 6c                	cmp    $0x6c,%al
  101536:	0f 94 c2             	sete   %dl
  101539:	3c 78                	cmp    $0x78,%al
  10153b:	89 d5                	mov    %edx,%ebp
  10153d:	0f 94 c2             	sete   %dl
  101540:	89 e9                	mov    %ebp,%ecx
  101542:	08 d1                	or     %dl,%cl
  101544:	88 4c 24 08          	mov    %cl,0x8(%esp)
  101548:	0f 85 a8 01 00 00    	jne    1016f6 <printf+0x3f6>
  10154e:	3c 70                	cmp    $0x70,%al
  101550:	0f 94 c2             	sete   %dl
  101553:	3c 67                	cmp    $0x67,%al
  101555:	89 d5                	mov    %edx,%ebp
  101557:	0f 94 c2             	sete   %dl
  10155a:	89 e9                	mov    %ebp,%ecx
  10155c:	08 d1                	or     %dl,%cl
  10155e:	0f 85 6f 01 00 00    	jne    1016d3 <printf+0x3d3>
  101564:	0f b6 54 24 1f       	movzbl 0x1f(%esp),%edx
  101569:	3c 66                	cmp    $0x66,%al
  10156b:	8d 7e 01             	lea    0x1(%esi),%edi
  10156e:	88 54 24 08          	mov    %dl,0x8(%esp)
  101572:	0f 85 f6 fd ff ff    	jne    10136e <printf+0x6e>
  101578:	dd 03                	fldl   (%ebx)
  10157a:	8d 7e 02             	lea    0x2(%esi),%edi
  10157d:	8d 6b 08             	lea    0x8(%ebx),%ebp
  101580:	d9 ee                	fldz   
  101582:	df e9                	fucomip %st(1),%st
  101584:	76 17                	jbe    10159d <printf+0x29d>
  101586:	dd 5c 24 08          	fstpl  0x8(%esp)
  10158a:	83 ec 0c             	sub    $0xc,%esp
  10158d:	6a 2d                	push   $0x2d
  10158f:	e8 8c 06 00 00       	call   101c20 <_putchar>
  101594:	dd 44 24 18          	fldl   0x18(%esp)
  101598:	83 c4 10             	add    $0x10,%esp
  10159b:	d9 e0                	fchs   
  10159d:	d9 7c 24 26          	fnstcw 0x26(%esp)
  1015a1:	0f b7 44 24 26       	movzwl 0x26(%esp),%eax
  1015a6:	c7 44 24 0c 00 00 00 	movl   $0x0,0xc(%esp)
  1015ad:	00 
  1015ae:	b4 0c                	mov    $0xc,%ah
  1015b0:	66 89 44 24 24       	mov    %ax,0x24(%esp)
  1015b5:	d9 6c 24 24          	fldcw  0x24(%esp)
  1015b9:	db 54 24 20          	fistl  0x20(%esp)
  1015bd:	d9 6c 24 26          	fldcw  0x26(%esp)
  1015c1:	83 ec 0c             	sub    $0xc,%esp
  1015c4:	8b 44 24 2c          	mov    0x2c(%esp),%eax
  1015c8:	89 44 24 14          	mov    %eax,0x14(%esp)
  1015cc:	df 6c 24 14          	fildll 0x14(%esp)
  1015d0:	de e9                	fsubrp %st,%st(1)
  1015d2:	dd 5c 24 14          	fstpl  0x14(%esp)
  1015d6:	50                   	push   %eax
  1015d7:	e8 a4 09 00 00       	call   101f80 <_printint>
  1015dc:	c7 04 24 2e 00 00 00 	movl   $0x2e,(%esp)
  1015e3:	e8 38 06 00 00       	call   101c20 <_putchar>
  1015e8:	d9 7c 24 36          	fnstcw 0x36(%esp)
  1015ec:	dd 44 24 18          	fldl   0x18(%esp)
  1015f0:	0f b7 44 24 36       	movzwl 0x36(%esp),%eax
  1015f5:	d8 0d d8 93 14 00    	fmuls  0x1493d8
  1015fb:	b4 0c                	mov    $0xc,%ah
  1015fd:	66 89 44 24 34       	mov    %ax,0x34(%esp)
  101602:	d9 6c 24 34          	fldcw  0x34(%esp)
  101606:	db 5c 24 30          	fistpl 0x30(%esp)
  10160a:	d9 6c 24 36          	fldcw  0x36(%esp)
  10160e:	8b 44 24 30          	mov    0x30(%esp),%eax
  101612:	89 04 24             	mov    %eax,(%esp)
  101615:	e8 66 09 00 00       	call   101f80 <_printint>
  10161a:	83 c4 10             	add    $0x10,%esp
  10161d:	0f b6 46 02          	movzbl 0x2(%esi),%eax
  101621:	89 eb                	mov    %ebp,%ebx
  101623:	c6 44 24 08 00       	movb   $0x0,0x8(%esp)
  101628:	89 fe                	mov    %edi,%esi
  10162a:	e9 2c fd ff ff       	jmp    10135b <printf+0x5b>
  10162f:	90                   	nop
  101630:	8d 6e 01             	lea    0x1(%esi),%ebp
  101633:	e9 df fd ff ff       	jmp    101417 <printf+0x117>
  101638:	3c 25                	cmp    $0x25,%al
  10163a:	8d 7e 01             	lea    0x1(%esi),%edi
  10163d:	0f 85 33 fd ff ff    	jne    101376 <printf+0x76>
  101643:	0f be 06             	movsbl (%esi),%eax
  101646:	83 ec 0c             	sub    $0xc,%esp
  101649:	bd 01 00 00 00       	mov    $0x1,%ebp
  10164e:	50                   	push   %eax
  10164f:	e8 cc 05 00 00       	call   101c20 <_putchar>
  101654:	83 c4 10             	add    $0x10,%esp
  101657:	e9 66 fd ff ff       	jmp    1013c2 <printf+0xc2>
  10165c:	0f b6 46 02          	movzbl 0x2(%esi),%eax
  101660:	8d 7e 02             	lea    0x2(%esi),%edi
  101663:	8b 74 24 18          	mov    0x18(%esp),%esi
  101667:	e9 02 fd ff ff       	jmp    10136e <printf+0x6e>
  10166c:	89 d8                	mov    %ebx,%eax
  10166e:	31 ff                	xor    %edi,%edi
  101670:	83 c3 04             	add    $0x4,%ebx
  101673:	8b 08                	mov    (%eax),%ecx
  101675:	8d 6e 02             	lea    0x2(%esi),%ebp
  101678:	80 39 00             	cmpb   $0x0,(%ecx)
  10167b:	74 29                	je     1016a6 <printf+0x3a6>
  10167d:	83 c7 01             	add    $0x1,%edi
  101680:	80 3c 39 00          	cmpb   $0x0,(%ecx,%edi,1)
  101684:	75 f7                	jne    10167d <printf+0x37d>
  101686:	01 cf                	add    %ecx,%edi
  101688:	0f be 01             	movsbl (%ecx),%eax
  10168b:	83 ec 0c             	sub    $0xc,%esp
  10168e:	89 4c 24 24          	mov    %ecx,0x24(%esp)
  101692:	50                   	push   %eax
  101693:	e8 88 05 00 00       	call   101c20 <_putchar>
  101698:	8b 4c 24 28          	mov    0x28(%esp),%ecx
  10169c:	83 c4 10             	add    $0x10,%esp
  10169f:	83 c1 01             	add    $0x1,%ecx
  1016a2:	39 cf                	cmp    %ecx,%edi
  1016a4:	75 e2                	jne    101688 <printf+0x388>
  1016a6:	0f b6 46 02          	movzbl 0x2(%esi),%eax
  1016aa:	89 ee                	mov    %ebp,%esi
  1016ac:	e9 aa fc ff ff       	jmp    10135b <printf+0x5b>
  1016b1:	0f be 03             	movsbl (%ebx),%eax
  1016b4:	83 ec 0c             	sub    $0xc,%esp
  1016b7:	8d 7e 02             	lea    0x2(%esi),%edi
  1016ba:	8d 6b 04             	lea    0x4(%ebx),%ebp
  1016bd:	89 eb                	mov    %ebp,%ebx
  1016bf:	50                   	push   %eax
  1016c0:	e8 5b 05 00 00       	call   101c20 <_putchar>
  1016c5:	0f b6 46 02          	movzbl 0x2(%esi),%eax
  1016c9:	83 c4 10             	add    $0x10,%esp
  1016cc:	89 fe                	mov    %edi,%esi
  1016ce:	e9 88 fc ff ff       	jmp    10135b <printf+0x5b>
  1016d3:	89 d8                	mov    %ebx,%eax
  1016d5:	83 c3 04             	add    $0x4,%ebx
  1016d8:	8d 4e 02             	lea    0x2(%esi),%ecx
  1016db:	8b 00                	mov    (%eax),%eax
  1016dd:	85 c0                	test   %eax,%eax
  1016df:	75 59                	jne    10173a <printf+0x43a>
  1016e1:	a1 60 88 16 00       	mov    0x168860,%eax
  1016e6:	a2 50 94 16 00       	mov    %al,0x169450
  1016eb:	0f b6 46 02          	movzbl 0x2(%esi),%eax
  1016ef:	89 ce                	mov    %ecx,%esi
  1016f1:	e9 65 fc ff ff       	jmp    10135b <printf+0x5b>
  1016f6:	83 ec 0c             	sub    $0xc,%esp
  1016f9:	8d 7e 02             	lea    0x2(%esi),%edi
  1016fc:	8d 6b 04             	lea    0x4(%ebx),%ebp
  1016ff:	ff 33                	pushl  (%ebx)
  101701:	e9 0f ff ff ff       	jmp    101615 <printf+0x315>
  101706:	8d 6b 04             	lea    0x4(%ebx),%ebp
  101709:	8b 1b                	mov    (%ebx),%ebx
  10170b:	8d 7e 02             	lea    0x2(%esi),%edi
  10170e:	85 db                	test   %ebx,%ebx
  101710:	79 0f                	jns    101721 <printf+0x421>
  101712:	83 ec 0c             	sub    $0xc,%esp
  101715:	f7 db                	neg    %ebx
  101717:	6a 2d                	push   $0x2d
  101719:	e8 02 05 00 00       	call   101c20 <_putchar>
  10171e:	83 c4 10             	add    $0x10,%esp
  101721:	83 ec 0c             	sub    $0xc,%esp
  101724:	53                   	push   %ebx
  101725:	89 eb                	mov    %ebp,%ebx
  101727:	e8 54 08 00 00       	call   101f80 <_printint>
  10172c:	0f b6 46 02          	movzbl 0x2(%esi),%eax
  101730:	83 c4 10             	add    $0x10,%esp
  101733:	89 fe                	mov    %edi,%esi
  101735:	e9 21 fc ff ff       	jmp    10135b <printf+0x5b>
  10173a:	a2 50 94 16 00       	mov    %al,0x169450
  10173f:	0f b6 46 02          	movzbl 0x2(%esi),%eax
  101743:	89 ce                	mov    %ecx,%esi
  101745:	e9 11 fc ff ff       	jmp    10135b <printf+0x5b>
  10174a:	8d 6e 02             	lea    0x2(%esi),%ebp
  10174d:	0f b6 46 02          	movzbl 0x2(%esi),%eax
  101751:	8b 74 24 18          	mov    0x18(%esp),%esi
  101755:	e9 bd fc ff ff       	jmp    101417 <printf+0x117>
  10175a:	8b 07                	mov    (%edi),%eax
  10175c:	83 c6 02             	add    $0x2,%esi
  10175f:	31 d2                	xor    %edx,%edx
  101761:	8d 6f 04             	lea    0x4(%edi),%ebp
  101764:	80 38 00             	cmpb   $0x0,(%eax)
  101767:	74 09                	je     101772 <printf+0x472>
  101769:	83 c2 01             	add    $0x1,%edx
  10176c:	80 3c 10 00          	cmpb   $0x0,(%eax,%edx,1)
  101770:	75 f7                	jne    101769 <printf+0x469>
  101772:	e8 89 f9 ff ff       	call   101100 <print>
  101777:	89 ef                	mov    %ebp,%edi
  101779:	e9 87 fc ff ff       	jmp    101405 <printf+0x105>
  10177e:	8b 07                	mov    (%edi),%eax
  101780:	8d 6f 04             	lea    0x4(%edi),%ebp
  101783:	ba 01 00 00 00       	mov    $0x1,%edx
  101788:	83 c6 02             	add    $0x2,%esi
  10178b:	89 ef                	mov    %ebp,%edi
  10178d:	88 44 24 3f          	mov    %al,0x3f(%esp)
  101791:	8d 44 24 3f          	lea    0x3f(%esp),%eax
  101795:	e8 66 f9 ff ff       	call   101100 <print>
  10179a:	e9 66 fc ff ff       	jmp    101405 <printf+0x105>
  10179f:	89 f8                	mov    %edi,%eax
  1017a1:	83 c6 02             	add    $0x2,%esi
  1017a4:	83 c7 04             	add    $0x4,%edi
  1017a7:	8b 00                	mov    (%eax),%eax
  1017a9:	85 c0                	test   %eax,%eax
  1017ab:	75 48                	jne    1017f5 <printf+0x4f5>
  1017ad:	a1 60 88 16 00       	mov    0x168860,%eax
  1017b2:	a2 50 94 16 00       	mov    %al,0x169450
  1017b7:	e9 49 fc ff ff       	jmp    101405 <printf+0x105>
  1017bc:	83 ec 0c             	sub    $0xc,%esp
  1017bf:	ff 37                	pushl  (%edi)
  1017c1:	8d 6f 08             	lea    0x8(%edi),%ebp
  1017c4:	83 c6 02             	add    $0x2,%esi
  1017c7:	e8 e4 02 00 00       	call   101ab0 <console_write_dec>
  1017cc:	83 c4 10             	add    $0x10,%esp
  1017cf:	89 ef                	mov    %ebp,%edi
  1017d1:	c6 44 24 08 00       	movb   $0x0,0x8(%esp)
  1017d6:	e9 2a fc ff ff       	jmp    101405 <printf+0x105>
  1017db:	83 ec 0c             	sub    $0xc,%esp
  1017de:	8d 6f 04             	lea    0x4(%edi),%ebp
  1017e1:	ff 37                	pushl  (%edi)
  1017e3:	83 c6 02             	add    $0x2,%esi
  1017e6:	e8 75 03 00 00       	call   101b60 <printint>
  1017eb:	89 ef                	mov    %ebp,%edi
  1017ed:	83 c4 10             	add    $0x10,%esp
  1017f0:	e9 10 fc ff ff       	jmp    101405 <printf+0x105>
  1017f5:	a2 50 94 16 00       	mov    %al,0x169450
  1017fa:	e9 06 fc ff ff       	jmp    101405 <printf+0x105>
  1017ff:	90                   	nop

00101800 <itoa>:
  101800:	8b 44 24 04          	mov    0x4(%esp),%eax
  101804:	8b 54 24 08          	mov    0x8(%esp),%edx
  101808:	8b 4c 24 0c          	mov    0xc(%esp),%ecx
  10180c:	85 c0                	test   %eax,%eax
  10180e:	74 10                	je     101820 <itoa+0x20>
  101810:	83 f9 10             	cmp    $0x10,%ecx
  101813:	77 0b                	ja     101820 <itoa+0x20>
  101815:	e9 56 97 01 00       	jmp    11af70 <itoa.part.3>
  10181a:	8d b6 00 00 00 00    	lea    0x0(%esi),%esi
  101820:	c6 02 30             	movb   $0x30,(%edx)
  101823:	c6 42 01 00          	movb   $0x0,0x1(%edx)
  101827:	c3                   	ret    
  101828:	90                   	nop
  101829:	8d b4 26 00 00 00 00 	lea    0x0(%esi,%eiz,1),%esi

00101830 <puts>:
  101830:	83 ec 14             	sub    $0x14,%esp
  101833:	ff 74 24 18          	pushl  0x18(%esp)
  101837:	68 00 d0 11 00       	push   $0x11d000
  10183c:	e8 bf fa ff ff       	call   101300 <printf>
  101841:	83 c4 1c             	add    $0x1c,%esp
  101844:	c3                   	ret    
  101845:	8d 74 26 00          	lea    0x0(%esi,%eiz,1),%esi
  101849:	8d bc 27 00 00 00 00 	lea    0x0(%edi,%eiz,1),%edi

00101850 <console_init>:
  101850:	c7 05 f4 83 16 00 00 	movl   $0x0,0x1683f4
  101857:	00 00 00 
  10185a:	c7 05 b4 80 16 00 00 	movl   $0x0,0x1680b4
  101861:	00 00 00 
  101864:	b8 00 80 0b 00       	mov    $0xb8000,%eax
  101869:	c6 05 50 94 16 00 0f 	movb   $0xf,0x169450
  101870:	c7 05 60 88 16 00 0f 	movl   $0xf,0x168860
  101877:	00 00 00 
  10187a:	c7 05 04 80 16 00 00 	movl   $0xb8000,0x168004
  101881:	80 0b 00 
  101884:	8d b6 00 00 00 00    	lea    0x0(%esi),%esi
  10188a:	8d bf 00 00 00 00    	lea    0x0(%edi),%edi
  101890:	8d 90 a0 00 00 00    	lea    0xa0(%eax),%edx
  101896:	8d 76 00             	lea    0x0(%esi),%esi
  101899:	8d bc 27 00 00 00 00 	lea    0x0(%edi,%eiz,1),%edi
  1018a0:	b9 20 0f 00 00       	mov    $0xf20,%ecx
  1018a5:	83 c0 02             	add    $0x2,%eax
  1018a8:	66 89 48 fe          	mov    %cx,-0x2(%eax)
  1018ac:	39 d0                	cmp    %edx,%eax
  1018ae:	75 f0                	jne    1018a0 <console_init+0x50>
  1018b0:	3d a0 8f 0b 00       	cmp    $0xb8fa0,%eax
  1018b5:	75 d9                	jne    101890 <console_init+0x40>
  1018b7:	f3 c3                	repz ret 
  1018b9:	8d b4 26 00 00 00 00 	lea    0x0(%esi,%eiz,1),%esi

001018c0 <console_putentryat>:
  1018c0:	8b 44 24 10          	mov    0x10(%esp),%eax
  1018c4:	8b 15 04 80 16 00    	mov    0x168004,%edx
  1018ca:	8d 04 80             	lea    (%eax,%eax,4),%eax
  1018cd:	c1 e0 04             	shl    $0x4,%eax
  1018d0:	03 44 24 0c          	add    0xc(%esp),%eax
  1018d4:	8d 0c 42             	lea    (%edx,%eax,2),%ecx
  1018d7:	0f b6 44 24 08       	movzbl 0x8(%esp),%eax
  1018dc:	c1 e0 08             	shl    $0x8,%eax
  1018df:	89 c2                	mov    %eax,%edx
  1018e1:	66 0f be 44 24 04    	movsbw 0x4(%esp),%ax
  1018e7:	09 d0                	or     %edx,%eax
  1018e9:	66 89 01             	mov    %ax,(%ecx)
  1018ec:	c3                   	ret    
  1018ed:	8d 76 00             	lea    0x0(%esi),%esi

001018f0 <console_putchar>:
  1018f0:	55                   	push   %ebp
  1018f1:	ba 20 00 00 00       	mov    $0x20,%edx
  1018f6:	89 e5                	mov    %esp,%ebp
  1018f8:	57                   	push   %edi
  1018f9:	56                   	push   %esi
  1018fa:	53                   	push   %ebx
  1018fb:	83 ec 1c             	sub    $0x1c,%esp
  1018fe:	8b 75 08             	mov    0x8(%ebp),%esi
  101901:	8b 3d f4 83 16 00    	mov    0x1683f4,%edi
  101907:	8b 1d b4 80 16 00    	mov    0x1680b4,%ebx
  10190d:	8d 46 f7             	lea    -0x9(%esi),%eax
  101910:	89 7d e4             	mov    %edi,-0x1c(%ebp)
  101913:	8d 3c bf             	lea    (%edi,%edi,4),%edi
  101916:	3c 01                	cmp    $0x1,%al
  101918:	a1 04 80 16 00       	mov    0x168004,%eax
  10191d:	0f 47 d6             	cmova  %esi,%edx
  101920:	c1 e7 04             	shl    $0x4,%edi
  101923:	01 df                	add    %ebx,%edi
  101925:	66 0f be d2          	movsbw %dl,%dx
  101929:	8d 3c 78             	lea    (%eax,%edi,2),%edi
  10192c:	89 f9                	mov    %edi,%ecx
  10192e:	0f b6 3d 50 94 16 00 	movzbl 0x169450,%edi
  101935:	c1 e7 08             	shl    $0x8,%edi
  101938:	09 fa                	or     %edi,%edx
  10193a:	66 89 11             	mov    %dx,(%ecx)
  10193d:	8d 53 01             	lea    0x1(%ebx),%edx
  101940:	83 fa 50             	cmp    $0x50,%edx
  101943:	74 1e                	je     101963 <console_putchar+0x73>
  101945:	89 f1                	mov    %esi,%ecx
  101947:	80 f9 0a             	cmp    $0xa,%cl
  10194a:	74 17                	je     101963 <console_putchar+0x73>
  10194c:	83 c3 06             	add    $0x6,%ebx
  10194f:	80 f9 09             	cmp    $0x9,%cl
  101952:	0f 45 da             	cmovne %edx,%ebx
  101955:	89 1d b4 80 16 00    	mov    %ebx,0x1680b4
  10195b:	8d 65 f4             	lea    -0xc(%ebp),%esp
  10195e:	5b                   	pop    %ebx
  10195f:	5e                   	pop    %esi
  101960:	5f                   	pop    %edi
  101961:	5d                   	pop    %ebp
  101962:	c3                   	ret    
  101963:	8b 4d e4             	mov    -0x1c(%ebp),%ecx
  101966:	c7 05 b4 80 16 00 00 	movl   $0x0,0x1680b4
  10196d:	00 00 00 
  101970:	83 c1 01             	add    $0x1,%ecx
  101973:	83 f9 19             	cmp    $0x19,%ecx
  101976:	89 0d f4 83 16 00    	mov    %ecx,0x1683f4
  10197c:	75 dd                	jne    10195b <console_putchar+0x6b>
  10197e:	89 65 e4             	mov    %esp,-0x1c(%ebp)
  101981:	81 ec f0 10 00 00    	sub    $0x10f0,%esp
  101987:	c7 05 f4 83 16 00 18 	movl   $0x18,0x1683f4
  10198e:	00 00 00 
  101991:	8d 8c 24 e2 10 00 00 	lea    0x10e2(%esp),%ecx
  101998:	89 65 e0             	mov    %esp,-0x20(%ebp)
  10199b:	89 e7                	mov    %esp,%edi
  10199d:	89 e2                	mov    %esp,%edx
  10199f:	90                   	nop
  1019a0:	31 db                	xor    %ebx,%ebx
  1019a2:	83 c2 02             	add    $0x2,%edx
  1019a5:	66 89 5a fe          	mov    %bx,-0x2(%edx)
  1019a9:	39 ca                	cmp    %ecx,%edx
  1019ab:	75 f3                	jne    1019a0 <console_putchar+0xb0>
  1019ad:	8d b0 a0 0f 00 00    	lea    0xfa0(%eax),%esi
  1019b3:	89 c2                	mov    %eax,%edx
  1019b5:	89 45 dc             	mov    %eax,-0x24(%ebp)
  1019b8:	90                   	nop
  1019b9:	8d b4 26 00 00 00 00 	lea    0x0(%esi,%eiz,1),%esi
  1019c0:	8d 9a a0 00 00 00    	lea    0xa0(%edx),%ebx
  1019c6:	89 f8                	mov    %edi,%eax
  1019c8:	90                   	nop
  1019c9:	8d b4 26 00 00 00 00 	lea    0x0(%esi,%eiz,1),%esi
  1019d0:	0f b7 0a             	movzwl (%edx),%ecx
  1019d3:	83 c2 02             	add    $0x2,%edx
  1019d6:	83 c0 02             	add    $0x2,%eax
  1019d9:	66 89 48 fe          	mov    %cx,-0x2(%eax)
  1019dd:	39 da                	cmp    %ebx,%edx
  1019df:	75 ef                	jne    1019d0 <console_putchar+0xe0>
  1019e1:	81 c7 a0 00 00 00    	add    $0xa0,%edi
  1019e7:	39 d6                	cmp    %edx,%esi
  1019e9:	75 d5                	jne    1019c0 <console_putchar+0xd0>
  1019eb:	8b 75 e0             	mov    -0x20(%ebp),%esi
  1019ee:	8b 45 dc             	mov    -0x24(%ebp),%eax
  1019f1:	8d 96 a0 00 00 00    	lea    0xa0(%esi),%edx
  1019f7:	81 c6 40 10 00 00    	add    $0x1040,%esi
  1019fd:	8d 76 00             	lea    0x0(%esi),%esi
  101a00:	8d ba a0 00 00 00    	lea    0xa0(%edx),%edi
  101a06:	89 c1                	mov    %eax,%ecx
  101a08:	90                   	nop
  101a09:	8d b4 26 00 00 00 00 	lea    0x0(%esi,%eiz,1),%esi
  101a10:	0f b7 1a             	movzwl (%edx),%ebx
  101a13:	83 c2 02             	add    $0x2,%edx
  101a16:	83 c1 02             	add    $0x2,%ecx
  101a19:	66 89 59 fe          	mov    %bx,-0x2(%ecx)
  101a1d:	39 d7                	cmp    %edx,%edi
  101a1f:	75 ef                	jne    101a10 <console_putchar+0x120>
  101a21:	05 a0 00 00 00       	add    $0xa0,%eax
  101a26:	39 fe                	cmp    %edi,%esi
  101a28:	75 d6                	jne    101a00 <console_putchar+0x110>
  101a2a:	8b 65 e4             	mov    -0x1c(%ebp),%esp
  101a2d:	8d 65 f4             	lea    -0xc(%ebp),%esp
  101a30:	5b                   	pop    %ebx
  101a31:	5e                   	pop    %esi
  101a32:	5f                   	pop    %edi
  101a33:	5d                   	pop    %ebp
  101a34:	c3                   	ret    
  101a35:	8d 74 26 00          	lea    0x0(%esi,%eiz,1),%esi
  101a39:	8d bc 27 00 00 00 00 	lea    0x0(%edi,%eiz,1),%edi

00101a40 <console_write>:
  101a40:	56                   	push   %esi
  101a41:	53                   	push   %ebx
  101a42:	83 ec 04             	sub    $0x4,%esp
  101a45:	8b 44 24 14          	mov    0x14(%esp),%eax
  101a49:	8b 5c 24 10          	mov    0x10(%esp),%ebx
  101a4d:	85 c0                	test   %eax,%eax
  101a4f:	8d 34 03             	lea    (%ebx,%eax,1),%esi
  101a52:	74 22                	je     101a76 <console_write+0x36>
  101a54:	8d b6 00 00 00 00    	lea    0x0(%esi),%esi
  101a5a:	8d bf 00 00 00 00    	lea    0x0(%edi),%edi
  101a60:	0f be 03             	movsbl (%ebx),%eax
  101a63:	83 ec 0c             	sub    $0xc,%esp
  101a66:	83 c3 01             	add    $0x1,%ebx
  101a69:	50                   	push   %eax
  101a6a:	e8 81 fe ff ff       	call   1018f0 <console_putchar>
  101a6f:	83 c4 10             	add    $0x10,%esp
  101a72:	39 f3                	cmp    %esi,%ebx
  101a74:	75 ea                	jne    101a60 <console_write+0x20>
  101a76:	83 c4 04             	add    $0x4,%esp
  101a79:	5b                   	pop    %ebx
  101a7a:	5e                   	pop    %esi
  101a7b:	c3                   	ret    
  101a7c:	8d 74 26 00          	lea    0x0(%esi,%eiz,1),%esi

00101a80 <console_writestring>:
  101a80:	e9 7b f8 ff ff       	jmp    101300 <printf>
  101a85:	8d 74 26 00          	lea    0x0(%esi,%eiz,1),%esi
  101a89:	8d bc 27 00 00 00 00 	lea    0x0(%edi,%eiz,1),%edi

00101a90 <putchar>:
  101a90:	53                   	push   %ebx
  101a91:	83 ec 14             	sub    $0x14,%esp
  101a94:	8b 5c 24 1c          	mov    0x1c(%esp),%ebx
  101a98:	0f be c3             	movsbl %bl,%eax
  101a9b:	50                   	push   %eax
  101a9c:	e8 4f fe ff ff       	call   1018f0 <console_putchar>
  101aa1:	83 c4 18             	add    $0x18,%esp
  101aa4:	89 d8                	mov    %ebx,%eax
  101aa6:	5b                   	pop    %ebx
  101aa7:	c3                   	ret    
  101aa8:	90                   	nop
  101aa9:	8d b4 26 00 00 00 00 	lea    0x0(%esi,%eiz,1),%esi

00101ab0 <console_write_dec>:
  101ab0:	55                   	push   %ebp
  101ab1:	57                   	push   %edi
  101ab2:	56                   	push   %esi
  101ab3:	53                   	push   %ebx
  101ab4:	83 ec 0c             	sub    $0xc,%esp
  101ab7:	8b 7c 24 20          	mov    0x20(%esp),%edi
  101abb:	85 ff                	test   %edi,%edi
  101abd:	0f 84 8d 00 00 00    	je     101b50 <console_write_dec+0xa0>
  101ac3:	89 fa                	mov    %edi,%edx
  101ac5:	31 f6                	xor    %esi,%esi
  101ac7:	b9 cd cc cc cc       	mov    $0xcccccccd,%ecx
  101acc:	8d 74 26 00          	lea    0x0(%esi,%eiz,1),%esi
  101ad0:	89 d0                	mov    %edx,%eax
  101ad2:	83 c6 01             	add    $0x1,%esi
  101ad5:	f7 e1                	mul    %ecx
  101ad7:	c1 ea 03             	shr    $0x3,%edx
  101ada:	85 d2                	test   %edx,%edx
  101adc:	75 f2                	jne    101ad0 <console_write_dec+0x20>
  101ade:	85 f6                	test   %esi,%esi
  101ae0:	bb 01 00 00 00       	mov    $0x1,%ebx
  101ae5:	74 56                	je     101b3d <console_write_dec+0x8d>
  101ae7:	89 f6                	mov    %esi,%esi
  101ae9:	8d bc 27 00 00 00 00 	lea    0x0(%edi,%eiz,1),%edi
  101af0:	8d 1c 9b             	lea    (%ebx,%ebx,4),%ebx
  101af3:	83 c2 01             	add    $0x1,%edx
  101af6:	01 db                	add    %ebx,%ebx
  101af8:	39 d6                	cmp    %edx,%esi
  101afa:	77 f4                	ja     101af0 <console_write_dec+0x40>
  101afc:	89 d8                	mov    %ebx,%eax
  101afe:	ba cd cc cc cc       	mov    $0xcccccccd,%edx
  101b03:	31 ed                	xor    %ebp,%ebp
  101b05:	f7 e2                	mul    %edx
  101b07:	89 d3                	mov    %edx,%ebx
  101b09:	c1 eb 03             	shr    $0x3,%ebx
  101b0c:	8d 74 26 00          	lea    0x0(%esi,%eiz,1),%esi
  101b10:	89 f8                	mov    %edi,%eax
  101b12:	31 d2                	xor    %edx,%edx
  101b14:	83 ec 0c             	sub    $0xc,%esp
  101b17:	f7 f3                	div    %ebx
  101b19:	83 c5 01             	add    $0x1,%ebp
  101b1c:	83 c0 30             	add    $0x30,%eax
  101b1f:	89 d7                	mov    %edx,%edi
  101b21:	0f be c0             	movsbl %al,%eax
  101b24:	50                   	push   %eax
  101b25:	e8 c6 fd ff ff       	call   1018f0 <console_putchar>
  101b2a:	b8 cd cc cc cc       	mov    $0xcccccccd,%eax
  101b2f:	83 c4 10             	add    $0x10,%esp
  101b32:	f7 e3                	mul    %ebx
  101b34:	89 d3                	mov    %edx,%ebx
  101b36:	c1 eb 03             	shr    $0x3,%ebx
  101b39:	39 ee                	cmp    %ebp,%esi
  101b3b:	77 d3                	ja     101b10 <console_write_dec+0x60>
  101b3d:	83 c4 0c             	add    $0xc,%esp
  101b40:	5b                   	pop    %ebx
  101b41:	5e                   	pop    %esi
  101b42:	5f                   	pop    %edi
  101b43:	5d                   	pop    %ebp
  101b44:	c3                   	ret    
  101b45:	8d 74 26 00          	lea    0x0(%esi,%eiz,1),%esi
  101b49:	8d bc 27 00 00 00 00 	lea    0x0(%edi,%eiz,1),%edi
  101b50:	be 01 00 00 00       	mov    $0x1,%esi
  101b55:	bb 0a 00 00 00       	mov    $0xa,%ebx
  101b5a:	eb a0                	jmp    101afc <console_write_dec+0x4c>
  101b5c:	8d 74 26 00          	lea    0x0(%esi,%eiz,1),%esi

00101b60 <printint>:
  101b60:	56                   	push   %esi
  101b61:	53                   	push   %ebx
  101b62:	83 ec 04             	sub    $0x4,%esp
  101b65:	8b 74 24 10          	mov    0x10(%esp),%esi
  101b69:	81 fe ff c9 9a 3b    	cmp    $0x3b9ac9ff,%esi
  101b6f:	76 5f                	jbe    101bd0 <printint+0x70>
  101b71:	89 f2                	mov    %esi,%edx
  101b73:	31 db                	xor    %ebx,%ebx
  101b75:	b9 cd cc cc cc       	mov    $0xcccccccd,%ecx
  101b7a:	eb 06                	jmp    101b82 <printint+0x22>
  101b7c:	8d 74 26 00          	lea    0x0(%esi,%eiz,1),%esi
  101b80:	89 c3                	mov    %eax,%ebx
  101b82:	89 d0                	mov    %edx,%eax
  101b84:	f7 e1                	mul    %ecx
  101b86:	8d 43 01             	lea    0x1(%ebx),%eax
  101b89:	c1 ea 03             	shr    $0x3,%edx
  101b8c:	85 d2                	test   %edx,%edx
  101b8e:	75 f0                	jne    101b80 <printint+0x20>
  101b90:	83 eb 08             	sub    $0x8,%ebx
  101b93:	b9 01 00 00 00       	mov    $0x1,%ecx
  101b98:	74 12                	je     101bac <printint+0x4c>
  101b9a:	8d b6 00 00 00 00    	lea    0x0(%esi),%esi
  101ba0:	8d 0c 89             	lea    (%ecx,%ecx,4),%ecx
  101ba3:	83 c2 01             	add    $0x1,%edx
  101ba6:	01 c9                	add    %ecx,%ecx
  101ba8:	39 d3                	cmp    %edx,%ebx
  101baa:	75 f4                	jne    101ba0 <printint+0x40>
  101bac:	89 f0                	mov    %esi,%eax
  101bae:	31 d2                	xor    %edx,%edx
  101bb0:	83 ec 0c             	sub    $0xc,%esp
  101bb3:	f7 f1                	div    %ecx
  101bb5:	50                   	push   %eax
  101bb6:	89 d6                	mov    %edx,%esi
  101bb8:	e8 f3 fe ff ff       	call   101ab0 <console_write_dec>
  101bbd:	89 74 24 20          	mov    %esi,0x20(%esp)
  101bc1:	83 c4 14             	add    $0x14,%esp
  101bc4:	5b                   	pop    %ebx
  101bc5:	5e                   	pop    %esi
  101bc6:	e9 e5 fe ff ff       	jmp    101ab0 <console_write_dec>
  101bcb:	90                   	nop
  101bcc:	8d 74 26 00          	lea    0x0(%esi,%eiz,1),%esi
  101bd0:	83 c4 04             	add    $0x4,%esp
  101bd3:	5b                   	pop    %ebx
  101bd4:	5e                   	pop    %esi
  101bd5:	e9 d6 fe ff ff       	jmp    101ab0 <console_write_dec>
  101bda:	8d b6 00 00 00 00    	lea    0x0(%esi),%esi

00101be0 <print64int>:
  101be0:	e9 cb fe ff ff       	jmp    101ab0 <console_write_dec>
  101be5:	8d 74 26 00          	lea    0x0(%esi,%eiz,1),%esi
  101be9:	8d bc 27 00 00 00 00 	lea    0x0(%edi,%eiz,1),%edi

00101bf0 <_console_putentryat>:
  101bf0:	8b 44 24 10          	mov    0x10(%esp),%eax
  101bf4:	8b 15 fc 93 16 00    	mov    0x1693fc,%edx
  101bfa:	8d 04 80             	lea    (%eax,%eax,4),%eax
  101bfd:	c1 e0 04             	shl    $0x4,%eax
  101c00:	03 44 24 0c          	add    0xc(%esp),%eax
  101c04:	8d 0c 42             	lea    (%edx,%eax,2),%ecx
  101c07:	0f b6 44 24 08       	movzbl 0x8(%esp),%eax
  101c0c:	c1 e0 08             	shl    $0x8,%eax
  101c0f:	89 c2                	mov    %eax,%edx
  101c11:	66 0f be 44 24 04    	movsbw 0x4(%esp),%ax
  101c17:	09 d0                	or     %edx,%eax
  101c19:	66 89 01             	mov    %ax,(%ecx)
  101c1c:	c3                   	ret    
  101c1d:	8d 76 00             	lea    0x0(%esi),%esi

00101c20 <_putchar>:
  101c20:	56                   	push   %esi
  101c21:	53                   	push   %ebx
  101c22:	8b 44 24 0c          	mov    0xc(%esp),%eax
  101c26:	3c 0a                	cmp    $0xa,%al
  101c28:	0f 84 a2 00 00 00    	je     101cd0 <_putchar+0xb0>
  101c2e:	8b 35 b4 80 16 00    	mov    0x1680b4,%esi
  101c34:	3c 09                	cmp    $0x9,%al
  101c36:	8d 56 05             	lea    0x5(%esi),%edx
  101c39:	74 32                	je     101c6d <_putchar+0x4d>
  101c3b:	8b 0d f4 83 16 00    	mov    0x1683f4,%ecx
  101c41:	8b 15 b4 80 16 00    	mov    0x1680b4,%edx
  101c47:	8b 1d fc 93 16 00    	mov    0x1693fc,%ebx
  101c4d:	8d 0c 89             	lea    (%ecx,%ecx,4),%ecx
  101c50:	c1 e1 04             	shl    $0x4,%ecx
  101c53:	01 d1                	add    %edx,%ecx
  101c55:	8d 34 4b             	lea    (%ebx,%ecx,2),%esi
  101c58:	0f b6 0d 50 94 16 00 	movzbl 0x169450,%ecx
  101c5f:	89 cb                	mov    %ecx,%ebx
  101c61:	66 0f be c8          	movsbw %al,%cx
  101c65:	c1 e3 08             	shl    $0x8,%ebx
  101c68:	09 d9                	or     %ebx,%ecx
  101c6a:	66 89 0e             	mov    %cx,(%esi)
  101c6d:	83 c2 01             	add    $0x1,%edx
  101c70:	83 fa 4f             	cmp    $0x4f,%edx
  101c73:	77 1b                	ja     101c90 <_putchar+0x70>
  101c75:	89 15 b4 80 16 00    	mov    %edx,0x1680b4
  101c7b:	0f be c0             	movsbl %al,%eax
  101c7e:	5b                   	pop    %ebx
  101c7f:	5e                   	pop    %esi
  101c80:	c3                   	ret    
  101c81:	eb 0d                	jmp    101c90 <_putchar+0x70>
  101c83:	90                   	nop
  101c84:	90                   	nop
  101c85:	90                   	nop
  101c86:	90                   	nop
  101c87:	90                   	nop
  101c88:	90                   	nop
  101c89:	90                   	nop
  101c8a:	90                   	nop
  101c8b:	90                   	nop
  101c8c:	90                   	nop
  101c8d:	90                   	nop
  101c8e:	90                   	nop
  101c8f:	90                   	nop
  101c90:	8b 35 f4 83 16 00    	mov    0x1683f4,%esi
  101c96:	c7 05 b4 80 16 00 00 	movl   $0x0,0x1680b4
  101c9d:	00 00 00 
  101ca0:	8d 56 01             	lea    0x1(%esi),%edx
  101ca3:	83 fa 18             	cmp    $0x18,%edx
  101ca6:	89 15 f4 83 16 00    	mov    %edx,0x1683f4
  101cac:	76 cd                	jbe    101c7b <_putchar+0x5b>
  101cae:	8b 15 0c 96 16 00    	mov    0x16960c,%edx
  101cb4:	83 c2 01             	add    $0x1,%edx
  101cb7:	89 15 0c 96 16 00    	mov    %edx,0x16960c
  101cbd:	8b 15 10 96 16 00    	mov    0x169610,%edx
  101cc3:	83 c2 01             	add    $0x1,%edx
  101cc6:	89 15 10 96 16 00    	mov    %edx,0x169610
  101ccc:	eb ad                	jmp    101c7b <_putchar+0x5b>
  101cce:	66 90                	xchg   %ax,%ax
  101cd0:	a1 f4 83 16 00       	mov    0x1683f4,%eax
  101cd5:	c7 05 b4 80 16 00 00 	movl   $0x0,0x1680b4
  101cdc:	00 00 00 
  101cdf:	8d 50 01             	lea    0x1(%eax),%edx
  101ce2:	b8 0a 00 00 00       	mov    $0xa,%eax
  101ce7:	83 fa 18             	cmp    $0x18,%edx
  101cea:	89 15 f4 83 16 00    	mov    %edx,0x1683f4
  101cf0:	76 8c                	jbe    101c7e <_putchar+0x5e>
  101cf2:	8b 15 0c 96 16 00    	mov    0x16960c,%edx
  101cf8:	5b                   	pop    %ebx
  101cf9:	5e                   	pop    %esi
  101cfa:	83 c2 01             	add    $0x1,%edx
  101cfd:	89 15 0c 96 16 00    	mov    %edx,0x16960c
  101d03:	8b 15 10 96 16 00    	mov    0x169610,%edx
  101d09:	83 c2 01             	add    $0x1,%edx
  101d0c:	89 15 10 96 16 00    	mov    %edx,0x169610
  101d12:	c3                   	ret    
  101d13:	8d b6 00 00 00 00    	lea    0x0(%esi),%esi
  101d19:	8d bc 27 00 00 00 00 	lea    0x0(%edi,%eiz,1),%edi

00101d20 <_putchar_old>:
  101d20:	55                   	push   %ebp
  101d21:	89 e5                	mov    %esp,%ebp
  101d23:	57                   	push   %edi
  101d24:	56                   	push   %esi
  101d25:	53                   	push   %ebx
  101d26:	83 ec 1c             	sub    $0x1c,%esp
  101d29:	0f b6 45 08          	movzbl 0x8(%ebp),%eax
  101d2d:	0f b6 75 08          	movzbl 0x8(%ebp),%esi
  101d31:	8b 15 f4 83 16 00    	mov    0x1683f4,%edx
  101d37:	8b 0d b4 80 16 00    	mov    0x1680b4,%ecx
  101d3d:	83 e8 09             	sub    $0x9,%eax
  101d40:	8d 1c 92             	lea    (%edx,%edx,4),%ebx
  101d43:	3c 01                	cmp    $0x1,%al
  101d45:	b8 20 00 00 00       	mov    $0x20,%eax
  101d4a:	0f 47 c6             	cmova  %esi,%eax
  101d4d:	8b 35 fc 93 16 00    	mov    0x1693fc,%esi
  101d53:	c1 e3 04             	shl    $0x4,%ebx
  101d56:	01 cb                	add    %ecx,%ebx
  101d58:	66 98                	cbtw   
  101d5a:	8d 3c 5e             	lea    (%esi,%ebx,2),%edi
  101d5d:	0f b6 1d 50 94 16 00 	movzbl 0x169450,%ebx
  101d64:	c1 e3 08             	shl    $0x8,%ebx
  101d67:	09 d8                	or     %ebx,%eax
  101d69:	66 89 07             	mov    %ax,(%edi)
  101d6c:	8d 41 01             	lea    0x1(%ecx),%eax
  101d6f:	83 f8 50             	cmp    $0x50,%eax
  101d72:	74 21                	je     101d95 <_putchar_old+0x75>
  101d74:	80 7d 08 0a          	cmpb   $0xa,0x8(%ebp)
  101d78:	74 1b                	je     101d95 <_putchar_old+0x75>
  101d7a:	83 c1 06             	add    $0x6,%ecx
  101d7d:	80 7d 08 09          	cmpb   $0x9,0x8(%ebp)
  101d81:	0f 45 c8             	cmovne %eax,%ecx
  101d84:	89 0d b4 80 16 00    	mov    %ecx,0x1680b4
  101d8a:	8b 45 08             	mov    0x8(%ebp),%eax
  101d8d:	8d 65 f4             	lea    -0xc(%ebp),%esp
  101d90:	5b                   	pop    %ebx
  101d91:	5e                   	pop    %esi
  101d92:	5f                   	pop    %edi
  101d93:	5d                   	pop    %ebp
  101d94:	c3                   	ret    
  101d95:	83 c2 01             	add    $0x1,%edx
  101d98:	c7 05 b4 80 16 00 00 	movl   $0x0,0x1680b4
  101d9f:	00 00 00 
  101da2:	83 fa 19             	cmp    $0x19,%edx
  101da5:	89 15 f4 83 16 00    	mov    %edx,0x1683f4
  101dab:	75 dd                	jne    101d8a <_putchar_old+0x6a>
  101dad:	89 65 e4             	mov    %esp,-0x1c(%ebp)
  101db0:	81 ec f0 10 00 00    	sub    $0x10f0,%esp
  101db6:	c7 05 f4 83 16 00 18 	movl   $0x18,0x1683f4
  101dbd:	00 00 00 
  101dc0:	8d 94 24 e2 10 00 00 	lea    0x10e2(%esp),%edx
  101dc7:	89 e0                	mov    %esp,%eax
  101dc9:	89 65 e0             	mov    %esp,-0x20(%ebp)
  101dcc:	89 e7                	mov    %esp,%edi
  101dce:	66 90                	xchg   %ax,%ax
  101dd0:	31 c9                	xor    %ecx,%ecx
  101dd2:	83 c0 02             	add    $0x2,%eax
  101dd5:	66 89 48 fe          	mov    %cx,-0x2(%eax)
  101dd9:	39 d0                	cmp    %edx,%eax
  101ddb:	75 f3                	jne    101dd0 <_putchar_old+0xb0>
  101ddd:	8d 86 a0 0f 00 00    	lea    0xfa0(%esi),%eax
  101de3:	89 75 dc             	mov    %esi,-0x24(%ebp)
  101de6:	89 c3                	mov    %eax,%ebx
  101de8:	89 f0                	mov    %esi,%eax
  101dea:	89 de                	mov    %ebx,%esi
  101dec:	8d 74 26 00          	lea    0x0(%esi,%eiz,1),%esi
  101df0:	8d 98 a0 00 00 00    	lea    0xa0(%eax),%ebx
  101df6:	89 fa                	mov    %edi,%edx
  101df8:	90                   	nop
  101df9:	8d b4 26 00 00 00 00 	lea    0x0(%esi,%eiz,1),%esi
  101e00:	0f b7 08             	movzwl (%eax),%ecx
  101e03:	83 c0 02             	add    $0x2,%eax
  101e06:	83 c2 02             	add    $0x2,%edx
  101e09:	66 89 4a fe          	mov    %cx,-0x2(%edx)
  101e0d:	39 d8                	cmp    %ebx,%eax
  101e0f:	75 ef                	jne    101e00 <_putchar_old+0xe0>
  101e11:	81 c7 a0 00 00 00    	add    $0xa0,%edi
  101e17:	39 c6                	cmp    %eax,%esi
  101e19:	75 d5                	jne    101df0 <_putchar_old+0xd0>
  101e1b:	8b 5d e0             	mov    -0x20(%ebp),%ebx
  101e1e:	8b 75 dc             	mov    -0x24(%ebp),%esi
  101e21:	89 d8                	mov    %ebx,%eax
  101e23:	81 c3 40 10 00 00    	add    $0x1040,%ebx
  101e29:	05 a0 00 00 00       	add    $0xa0,%eax
  101e2e:	66 90                	xchg   %ax,%ax
  101e30:	8d b8 a0 00 00 00    	lea    0xa0(%eax),%edi
  101e36:	89 f2                	mov    %esi,%edx
  101e38:	90                   	nop
  101e39:	8d b4 26 00 00 00 00 	lea    0x0(%esi,%eiz,1),%esi
  101e40:	0f b7 08             	movzwl (%eax),%ecx
  101e43:	83 c0 02             	add    $0x2,%eax
  101e46:	83 c2 02             	add    $0x2,%edx
  101e49:	66 89 4a fe          	mov    %cx,-0x2(%edx)
  101e4d:	39 c7                	cmp    %eax,%edi
  101e4f:	75 ef                	jne    101e40 <_putchar_old+0x120>
  101e51:	81 c6 a0 00 00 00    	add    $0xa0,%esi
  101e57:	39 fb                	cmp    %edi,%ebx
  101e59:	75 d5                	jne    101e30 <_putchar_old+0x110>
  101e5b:	8b 45 08             	mov    0x8(%ebp),%eax
  101e5e:	8b 65 e4             	mov    -0x1c(%ebp),%esp
  101e61:	8d 65 f4             	lea    -0xc(%ebp),%esp
  101e64:	5b                   	pop    %ebx
  101e65:	5e                   	pop    %esi
  101e66:	5f                   	pop    %edi
  101e67:	5d                   	pop    %ebp
  101e68:	c3                   	ret    
  101e69:	8d b4 26 00 00 00 00 	lea    0x0(%esi,%eiz,1),%esi

00101e70 <_console_write_dec>:
  101e70:	55                   	push   %ebp
  101e71:	57                   	push   %edi
  101e72:	56                   	push   %esi
  101e73:	53                   	push   %ebx
  101e74:	8b 7c 24 14          	mov    0x14(%esp),%edi
  101e78:	85 ff                	test   %edi,%edi
  101e7a:	0f 84 80 00 00 00    	je     101f00 <_console_write_dec+0x90>
  101e80:	89 fa                	mov    %edi,%edx
  101e82:	31 f6                	xor    %esi,%esi
  101e84:	b9 cd cc cc cc       	mov    $0xcccccccd,%ecx
  101e89:	8d b4 26 00 00 00 00 	lea    0x0(%esi,%eiz,1),%esi
  101e90:	89 d0                	mov    %edx,%eax
  101e92:	83 c6 01             	add    $0x1,%esi
  101e95:	f7 e1                	mul    %ecx
  101e97:	c1 ea 03             	shr    $0x3,%edx
  101e9a:	85 d2                	test   %edx,%edx
  101e9c:	75 f2                	jne    101e90 <_console_write_dec+0x20>
  101e9e:	85 f6                	test   %esi,%esi
  101ea0:	bb 01 00 00 00       	mov    $0x1,%ebx
  101ea5:	74 51                	je     101ef8 <_console_write_dec+0x88>
  101ea7:	89 f6                	mov    %esi,%esi
  101ea9:	8d bc 27 00 00 00 00 	lea    0x0(%edi,%eiz,1),%edi
  101eb0:	8d 1c 9b             	lea    (%ebx,%ebx,4),%ebx
  101eb3:	83 c2 01             	add    $0x1,%edx
  101eb6:	01 db                	add    %ebx,%ebx
  101eb8:	39 d6                	cmp    %edx,%esi
  101eba:	77 f4                	ja     101eb0 <_console_write_dec+0x40>
  101ebc:	89 d8                	mov    %ebx,%eax
  101ebe:	ba cd cc cc cc       	mov    $0xcccccccd,%edx
  101ec3:	31 ed                	xor    %ebp,%ebp
  101ec5:	f7 e2                	mul    %edx
  101ec7:	89 d3                	mov    %edx,%ebx
  101ec9:	c1 eb 03             	shr    $0x3,%ebx
  101ecc:	8d 74 26 00          	lea    0x0(%esi,%eiz,1),%esi
  101ed0:	89 f8                	mov    %edi,%eax
  101ed2:	31 d2                	xor    %edx,%edx
  101ed4:	83 c5 01             	add    $0x1,%ebp
  101ed7:	f7 f3                	div    %ebx
  101ed9:	83 c0 30             	add    $0x30,%eax
  101edc:	89 d7                	mov    %edx,%edi
  101ede:	0f be c0             	movsbl %al,%eax
  101ee1:	50                   	push   %eax
  101ee2:	e8 39 fd ff ff       	call   101c20 <_putchar>
  101ee7:	b8 cd cc cc cc       	mov    $0xcccccccd,%eax
  101eec:	f7 e3                	mul    %ebx
  101eee:	58                   	pop    %eax
  101eef:	89 d3                	mov    %edx,%ebx
  101ef1:	c1 eb 03             	shr    $0x3,%ebx
  101ef4:	39 ee                	cmp    %ebp,%esi
  101ef6:	77 d8                	ja     101ed0 <_console_write_dec+0x60>
  101ef8:	5b                   	pop    %ebx
  101ef9:	5e                   	pop    %esi
  101efa:	5f                   	pop    %edi
  101efb:	5d                   	pop    %ebp
  101efc:	c3                   	ret    
  101efd:	8d 76 00             	lea    0x0(%esi),%esi
  101f00:	bb 0a 00 00 00       	mov    $0xa,%ebx
  101f05:	be 01 00 00 00       	mov    $0x1,%esi
  101f0a:	eb b0                	jmp    101ebc <_console_write_dec+0x4c>
  101f0c:	8d 74 26 00          	lea    0x0(%esi,%eiz,1),%esi

00101f10 <backspace>:
  101f10:	a1 b4 80 16 00       	mov    0x1680b4,%eax
  101f15:	8b 15 f4 83 16 00    	mov    0x1683f4,%edx
  101f1b:	83 e8 01             	sub    $0x1,%eax
  101f1e:	85 c0                	test   %eax,%eax
  101f20:	a3 b4 80 16 00       	mov    %eax,0x1680b4
  101f25:	75 1d                	jne    101f44 <backspace+0x34>
  101f27:	a1 f4 83 16 00       	mov    0x1683f4,%eax
  101f2c:	c7 05 b4 80 16 00 50 	movl   $0x50,0x1680b4
  101f33:	00 00 00 
  101f36:	8d 50 ff             	lea    -0x1(%eax),%edx
  101f39:	b8 50 00 00 00       	mov    $0x50,%eax
  101f3e:	89 15 f4 83 16 00    	mov    %edx,0x1683f4
  101f44:	8d 14 92             	lea    (%edx,%edx,4),%edx
  101f47:	c1 e2 04             	shl    $0x4,%edx
  101f4a:	01 d0                	add    %edx,%eax
  101f4c:	8b 15 fc 93 16 00    	mov    0x1693fc,%edx
  101f52:	8d 14 42             	lea    (%edx,%eax,2),%edx
  101f55:	0f b6 05 50 94 16 00 	movzbl 0x169450,%eax
  101f5c:	c1 e0 08             	shl    $0x8,%eax
  101f5f:	83 c8 20             	or     $0x20,%eax
  101f62:	66 89 02             	mov    %ax,(%edx)
  101f65:	c3                   	ret    
  101f66:	8d 76 00             	lea    0x0(%esi),%esi
  101f69:	8d bc 27 00 00 00 00 	lea    0x0(%edi,%eiz,1),%edi

00101f70 <clrline>:
  101f70:	f3 c3                	repz ret 
  101f72:	8d b4 26 00 00 00 00 	lea    0x0(%esi,%eiz,1),%esi
  101f79:	8d bc 27 00 00 00 00 	lea    0x0(%edi,%eiz,1),%edi

00101f80 <_printint>:
  101f80:	56                   	push   %esi
  101f81:	53                   	push   %ebx
  101f82:	8b 74 24 0c          	mov    0xc(%esp),%esi
  101f86:	81 fe ff c9 9a 3b    	cmp    $0x3b9ac9ff,%esi
  101f8c:	76 51                	jbe    101fdf <_printint+0x5f>
  101f8e:	89 f2                	mov    %esi,%edx
  101f90:	31 db                	xor    %ebx,%ebx
  101f92:	b9 cd cc cc cc       	mov    $0xcccccccd,%ecx
  101f97:	eb 09                	jmp    101fa2 <_printint+0x22>
  101f99:	8d b4 26 00 00 00 00 	lea    0x0(%esi,%eiz,1),%esi
  101fa0:	89 c3                	mov    %eax,%ebx
  101fa2:	89 d0                	mov    %edx,%eax
  101fa4:	f7 e1                	mul    %ecx
  101fa6:	8d 43 01             	lea    0x1(%ebx),%eax
  101fa9:	c1 ea 03             	shr    $0x3,%edx
  101fac:	85 d2                	test   %edx,%edx
  101fae:	75 f0                	jne    101fa0 <_printint+0x20>
  101fb0:	83 eb 08             	sub    $0x8,%ebx
  101fb3:	b9 01 00 00 00       	mov    $0x1,%ecx
  101fb8:	74 12                	je     101fcc <_printint+0x4c>
  101fba:	8d b6 00 00 00 00    	lea    0x0(%esi),%esi
  101fc0:	8d 0c 89             	lea    (%ecx,%ecx,4),%ecx
  101fc3:	83 c2 01             	add    $0x1,%edx
  101fc6:	01 c9                	add    %ecx,%ecx
  101fc8:	39 d3                	cmp    %edx,%ebx
  101fca:	75 f4                	jne    101fc0 <_printint+0x40>
  101fcc:	89 f0                	mov    %esi,%eax
  101fce:	31 d2                	xor    %edx,%edx
  101fd0:	f7 f1                	div    %ecx
  101fd2:	50                   	push   %eax
  101fd3:	89 d6                	mov    %edx,%esi
  101fd5:	e8 96 fe ff ff       	call   101e70 <_console_write_dec>
  101fda:	58                   	pop    %eax
  101fdb:	89 74 24 0c          	mov    %esi,0xc(%esp)
  101fdf:	5b                   	pop    %ebx
  101fe0:	5e                   	pop    %esi
  101fe1:	e9 8a fe ff ff       	jmp    101e70 <_console_write_dec>
  101fe6:	8d 76 00             	lea    0x0(%esi),%esi
  101fe9:	8d bc 27 00 00 00 00 	lea    0x0(%edi,%eiz,1),%edi

00101ff0 <_printf>:
  101ff0:	55                   	push   %ebp
  101ff1:	57                   	push   %edi
  101ff2:	56                   	push   %esi
  101ff3:	53                   	push   %ebx
  101ff4:	83 ec 0c             	sub    $0xc,%esp
  101ff7:	8b 5c 24 20          	mov    0x20(%esp),%ebx
  101ffb:	8d 44 24 24          	lea    0x24(%esp),%eax
  101fff:	c6 44 24 07 00       	movb   $0x0,0x7(%esp)
  102004:	c7 04 24 00 00 00 00 	movl   $0x0,(%esp)
  10200b:	89 44 24 08          	mov    %eax,0x8(%esp)
  10200f:	0f b6 13             	movzbl (%ebx),%edx
  102012:	84 d2                	test   %dl,%dl
  102014:	74 78                	je     10208e <_printf+0x9e>
  102016:	8d 76 00             	lea    0x0(%esi),%esi
  102019:	8d bc 27 00 00 00 00 	lea    0x0(%edi,%eiz,1),%edi
  102020:	80 fa 25             	cmp    $0x25,%dl
  102023:	74 7b                	je     1020a0 <_printf+0xb0>
  102025:	0f b6 43 01          	movzbl 0x1(%ebx),%eax
  102029:	8d 73 01             	lea    0x1(%ebx),%esi
  10202c:	84 c0                	test   %al,%al
  10202e:	0f 84 d5 00 00 00    	je     102109 <_printf+0x119>
  102034:	3c 25                	cmp    $0x25,%al
  102036:	0f 84 cd 00 00 00    	je     102109 <_printf+0x119>
  10203c:	8d 43 02             	lea    0x2(%ebx),%eax
  10203f:	bf 01 00 00 00       	mov    $0x1,%edi
  102044:	eb 0f                	jmp    102055 <_printf+0x65>
  102046:	8d 76 00             	lea    0x0(%esi),%esi
  102049:	8d bc 27 00 00 00 00 	lea    0x0(%edi,%eiz,1),%edi
  102050:	80 fa 25             	cmp    $0x25,%dl
  102053:	74 0f                	je     102064 <_printf+0x74>
  102055:	0f b6 10             	movzbl (%eax),%edx
  102058:	83 c7 01             	add    $0x1,%edi
  10205b:	89 c6                	mov    %eax,%esi
  10205d:	83 c0 01             	add    $0x1,%eax
  102060:	84 d2                	test   %dl,%dl
  102062:	75 ec                	jne    102050 <_printf+0x60>
  102064:	85 ff                	test   %edi,%edi
  102066:	74 1d                	je     102085 <_printf+0x95>
  102068:	31 ed                	xor    %ebp,%ebp
  10206a:	8d b6 00 00 00 00    	lea    0x0(%esi),%esi
  102070:	0f be 04 2b          	movsbl (%ebx,%ebp,1),%eax
  102074:	83 c5 01             	add    $0x1,%ebp
  102077:	50                   	push   %eax
  102078:	e8 a3 fb ff ff       	call   101c20 <_putchar>
  10207d:	39 ef                	cmp    %ebp,%edi
  10207f:	58                   	pop    %eax
  102080:	77 ee                	ja     102070 <_printf+0x80>
  102082:	0f b6 16             	movzbl (%esi),%edx
  102085:	01 3c 24             	add    %edi,(%esp)
  102088:	84 d2                	test   %dl,%dl
  10208a:	89 f3                	mov    %esi,%ebx
  10208c:	75 92                	jne    102020 <_printf+0x30>
  10208e:	8b 04 24             	mov    (%esp),%eax
  102091:	83 c4 0c             	add    $0xc,%esp
  102094:	5b                   	pop    %ebx
  102095:	5e                   	pop    %esi
  102096:	5f                   	pop    %edi
  102097:	5d                   	pop    %ebp
  102098:	c3                   	ret    
  102099:	8d b4 26 00 00 00 00 	lea    0x0(%esi,%eiz,1),%esi
  1020a0:	0f b6 43 01          	movzbl 0x1(%ebx),%eax
  1020a4:	8d 7b 01             	lea    0x1(%ebx),%edi
  1020a7:	3c 25                	cmp    $0x25,%al
  1020a9:	74 7c                	je     102127 <_printf+0x137>
  1020ab:	80 7c 24 07 00       	cmpb   $0x0,0x7(%esp)
  1020b0:	75 6e                	jne    102120 <_printf+0x130>
  1020b2:	3c 63                	cmp    $0x63,%al
  1020b4:	0f 84 c6 00 00 00    	je     102180 <_printf+0x190>
  1020ba:	3c 73                	cmp    $0x73,%al
  1020bc:	0f 84 e3 00 00 00    	je     1021a5 <_printf+0x1b5>
  1020c2:	3c 69                	cmp    $0x69,%al
  1020c4:	0f 94 c1             	sete   %cl
  1020c7:	3c 64                	cmp    $0x64,%al
  1020c9:	89 ce                	mov    %ecx,%esi
  1020cb:	0f 94 c1             	sete   %cl
  1020ce:	89 f2                	mov    %esi,%edx
  1020d0:	08 ca                	or     %cl,%dl
  1020d2:	75 61                	jne    102135 <_printf+0x145>
  1020d4:	3c 6c                	cmp    $0x6c,%al
  1020d6:	0f 94 c1             	sete   %cl
  1020d9:	3c 78                	cmp    $0x78,%al
  1020db:	89 ce                	mov    %ecx,%esi
  1020dd:	0f 94 c1             	sete   %cl
  1020e0:	89 f2                	mov    %esi,%edx
  1020e2:	08 ca                	or     %cl,%dl
  1020e4:	88 54 24 07          	mov    %dl,0x7(%esp)
  1020e8:	75 6e                	jne    102158 <_printf+0x168>
  1020ea:	3c 70                	cmp    $0x70,%al
  1020ec:	0f 84 fa 00 00 00    	je     1021ec <_printf+0x1fc>
  1020f2:	3c 67                	cmp    $0x67,%al
  1020f4:	0f 84 f2 00 00 00    	je     1021ec <_printf+0x1fc>
  1020fa:	84 c0                	test   %al,%al
  1020fc:	89 fe                	mov    %edi,%esi
  1020fe:	c6 44 24 07 01       	movb   $0x1,0x7(%esp)
  102103:	0f 85 2b ff ff ff    	jne    102034 <_printf+0x44>
  102109:	0f be 03             	movsbl (%ebx),%eax
  10210c:	bf 01 00 00 00       	mov    $0x1,%edi
  102111:	50                   	push   %eax
  102112:	e8 09 fb ff ff       	call   101c20 <_putchar>
  102117:	58                   	pop    %eax
  102118:	e9 65 ff ff ff       	jmp    102082 <_printf+0x92>
  10211d:	8d 76 00             	lea    0x0(%esi),%esi
  102120:	89 fe                	mov    %edi,%esi
  102122:	e9 05 ff ff ff       	jmp    10202c <_printf+0x3c>
  102127:	8d 73 02             	lea    0x2(%ebx),%esi
  10212a:	0f b6 43 02          	movzbl 0x2(%ebx),%eax
  10212e:	89 fb                	mov    %edi,%ebx
  102130:	e9 f7 fe ff ff       	jmp    10202c <_printf+0x3c>
  102135:	8b 4c 24 08          	mov    0x8(%esp),%ecx
  102139:	8d 73 02             	lea    0x2(%ebx),%esi
  10213c:	89 c8                	mov    %ecx,%eax
  10213e:	83 c1 04             	add    $0x4,%ecx
  102141:	89 4c 24 08          	mov    %ecx,0x8(%esp)
  102145:	ff 30                	pushl  (%eax)
  102147:	e8 34 fe ff ff       	call   101f80 <_printint>
  10214c:	0f b6 53 02          	movzbl 0x2(%ebx),%edx
  102150:	5b                   	pop    %ebx
  102151:	89 f3                	mov    %esi,%ebx
  102153:	e9 ba fe ff ff       	jmp    102012 <_printf+0x22>
  102158:	8b 4c 24 08          	mov    0x8(%esp),%ecx
  10215c:	8d 73 02             	lea    0x2(%ebx),%esi
  10215f:	89 c8                	mov    %ecx,%eax
  102161:	83 c1 04             	add    $0x4,%ecx
  102164:	89 4c 24 08          	mov    %ecx,0x8(%esp)
  102168:	ff 30                	pushl  (%eax)
  10216a:	e8 11 fe ff ff       	call   101f80 <_printint>
  10216f:	59                   	pop    %ecx
  102170:	0f b6 53 02          	movzbl 0x2(%ebx),%edx
  102174:	89 f3                	mov    %esi,%ebx
  102176:	c6 44 24 07 00       	movb   $0x0,0x7(%esp)
  10217b:	e9 92 fe ff ff       	jmp    102012 <_printf+0x22>
  102180:	8b 4c 24 08          	mov    0x8(%esp),%ecx
  102184:	8d 73 02             	lea    0x2(%ebx),%esi
  102187:	89 c8                	mov    %ecx,%eax
  102189:	83 c1 04             	add    $0x4,%ecx
  10218c:	0f be 00             	movsbl (%eax),%eax
  10218f:	89 4c 24 08          	mov    %ecx,0x8(%esp)
  102193:	50                   	push   %eax
  102194:	e8 87 fa ff ff       	call   101c20 <_putchar>
  102199:	0f b6 53 02          	movzbl 0x2(%ebx),%edx
  10219d:	89 f3                	mov    %esi,%ebx
  10219f:	58                   	pop    %eax
  1021a0:	e9 6d fe ff ff       	jmp    102012 <_printf+0x22>
  1021a5:	8b 4c 24 08          	mov    0x8(%esp),%ecx
  1021a9:	31 ed                	xor    %ebp,%ebp
  1021ab:	8d 73 02             	lea    0x2(%ebx),%esi
  1021ae:	89 c8                	mov    %ecx,%eax
  1021b0:	83 c1 04             	add    $0x4,%ecx
  1021b3:	8b 10                	mov    (%eax),%edx
  1021b5:	89 4c 24 08          	mov    %ecx,0x8(%esp)
  1021b9:	80 3a 00             	cmpb   $0x0,(%edx)
  1021bc:	74 23                	je     1021e1 <_printf+0x1f1>
  1021be:	66 90                	xchg   %ax,%ax
  1021c0:	83 c5 01             	add    $0x1,%ebp
  1021c3:	80 3c 2a 00          	cmpb   $0x0,(%edx,%ebp,1)
  1021c7:	75 f7                	jne    1021c0 <_printf+0x1d0>
  1021c9:	89 d7                	mov    %edx,%edi
  1021cb:	01 d5                	add    %edx,%ebp
  1021cd:	8d 76 00             	lea    0x0(%esi),%esi
  1021d0:	0f be 07             	movsbl (%edi),%eax
  1021d3:	83 c7 01             	add    $0x1,%edi
  1021d6:	50                   	push   %eax
  1021d7:	e8 44 fa ff ff       	call   101c20 <_putchar>
  1021dc:	39 fd                	cmp    %edi,%ebp
  1021de:	58                   	pop    %eax
  1021df:	75 ef                	jne    1021d0 <_printf+0x1e0>
  1021e1:	0f b6 53 02          	movzbl 0x2(%ebx),%edx
  1021e5:	89 f3                	mov    %esi,%ebx
  1021e7:	e9 26 fe ff ff       	jmp    102012 <_printf+0x22>
  1021ec:	8b 74 24 08          	mov    0x8(%esp),%esi
  1021f0:	8d 43 02             	lea    0x2(%ebx),%eax
  1021f3:	8b 16                	mov    (%esi),%edx
  1021f5:	89 f1                	mov    %esi,%ecx
  1021f7:	83 c1 04             	add    $0x4,%ecx
  1021fa:	85 d2                	test   %edx,%edx
  1021fc:	75 1b                	jne    102219 <_printf+0x229>
  1021fe:	8b 15 60 88 16 00    	mov    0x168860,%edx
  102204:	89 4c 24 08          	mov    %ecx,0x8(%esp)
  102208:	88 15 50 94 16 00    	mov    %dl,0x169450
  10220e:	0f b6 53 02          	movzbl 0x2(%ebx),%edx
  102212:	89 c3                	mov    %eax,%ebx
  102214:	e9 f9 fd ff ff       	jmp    102012 <_printf+0x22>
  102219:	88 15 50 94 16 00    	mov    %dl,0x169450
  10221f:	89 4c 24 08          	mov    %ecx,0x8(%esp)
  102223:	0f b6 53 02          	movzbl 0x2(%ebx),%edx
  102227:	89 c3                	mov    %eax,%ebx
  102229:	e9 e4 fd ff ff       	jmp    102012 <_printf+0x22>
  10222e:	66 90                	xchg   %ax,%ax

00102230 <init_descriptor_tables>:
  102230:	83 ec 0c             	sub    $0xc,%esp
  102233:	e8 08 00 00 00       	call   102240 <init_gdt>
  102238:	83 c4 0c             	add    $0xc,%esp
  10223b:	e9 b0 06 00 00       	jmp    1028f0 <init_idt>

00102240 <init_gdt>:
  102240:	53                   	push   %ebx
  102241:	83 ec 10             	sub    $0x10,%esp
  102244:	a1 28 94 16 00       	mov    0x169428,%eax
  102249:	8d 98 10 20 00 00    	lea    0x2010(%eax),%ebx
  10224f:	05 18 20 00 00       	add    $0x2018,%eax
  102254:	53                   	push   %ebx
  102255:	50                   	push   %eax
  102256:	e8 15 00 00 00       	call   102270 <AP_gdt_Setup>
  10225b:	89 1c 24             	mov    %ebx,(%esp)
  10225e:	e8 1d e0 ff ff       	call   100280 <lgdt>
  102263:	83 c4 18             	add    $0x18,%esp
  102266:	5b                   	pop    %ebx
  102267:	c3                   	ret    
  102268:	90                   	nop
  102269:	8d b4 26 00 00 00 00 	lea    0x0(%esi,%eiz,1),%esi

00102270 <AP_gdt_Setup>:
  102270:	53                   	push   %ebx
  102271:	83 ec 70             	sub    $0x70,%esp
  102274:	8b 5c 24 7c          	mov    0x7c(%esp),%ebx
  102278:	8b 4c 24 78          	mov    0x78(%esp),%ecx
  10227c:	8d 53 08             	lea    0x8(%ebx),%edx
  10227f:	89 d8                	mov    %ebx,%eax
  102281:	eb 0d                	jmp    102290 <AP_gdt_Setup+0x20>
  102283:	90                   	nop
  102284:	90                   	nop
  102285:	90                   	nop
  102286:	90                   	nop
  102287:	90                   	nop
  102288:	90                   	nop
  102289:	90                   	nop
  10228a:	90                   	nop
  10228b:	90                   	nop
  10228c:	90                   	nop
  10228d:	90                   	nop
  10228e:	90                   	nop
  10228f:	90                   	nop
  102290:	83 c0 01             	add    $0x1,%eax
  102293:	c6 40 ff 00          	movb   $0x0,-0x1(%eax)
  102297:	39 c2                	cmp    %eax,%edx
  102299:	75 f5                	jne    102290 <AP_gdt_Setup+0x20>
  10229b:	8d 51 28             	lea    0x28(%ecx),%edx
  10229e:	89 c8                	mov    %ecx,%eax
  1022a0:	83 c0 01             	add    $0x1,%eax
  1022a3:	c6 40 ff 00          	movb   $0x0,-0x1(%eax)
  1022a7:	39 d0                	cmp    %edx,%eax
  1022a9:	75 f5                	jne    1022a0 <AP_gdt_Setup+0x30>
  1022ab:	b8 27 00 00 00       	mov    $0x27,%eax
  1022b0:	89 4b 02             	mov    %ecx,0x2(%ebx)
  1022b3:	66 89 03             	mov    %ax,(%ebx)
  1022b6:	8d 44 24 08          	lea    0x8(%esp),%eax
  1022ba:	c7 01 00 00 00 00    	movl   $0x0,(%ecx)
  1022c0:	c7 41 04 00 00 00 00 	movl   $0x0,0x4(%ecx)
  1022c7:	c7 41 08 ff ff 00 00 	movl   $0xffff,0x8(%ecx)
  1022ce:	89 c2                	mov    %eax,%edx
  1022d0:	c7 41 0c 00 9a cf 00 	movl   $0xcf9a00,0xc(%ecx)
  1022d7:	c7 41 10 ff ff 00 00 	movl   $0xffff,0x10(%ecx)
  1022de:	c1 e2 10             	shl    $0x10,%edx
  1022e1:	c7 41 14 00 92 cf 00 	movl   $0xcf9200,0x14(%ecx)
  1022e8:	c7 41 18 ff ff 00 00 	movl   $0xffff,0x18(%ecx)
  1022ef:	83 ca 68             	or     $0x68,%edx
  1022f2:	c7 41 1c 00 fa cf 00 	movl   $0xcffa00,0x1c(%ecx)
  1022f9:	c7 41 20 ff ff 00 00 	movl   $0xffff,0x20(%ecx)
  102300:	89 51 28             	mov    %edx,0x28(%ecx)
  102303:	89 c2                	mov    %eax,%edx
  102305:	25 00 00 00 ff       	and    $0xff000000,%eax
  10230a:	c1 ea 10             	shr    $0x10,%edx
  10230d:	0d 00 89 40 00       	or     $0x408900,%eax
  102312:	c7 41 24 00 f2 cf 00 	movl   $0xcff200,0x24(%ecx)
  102319:	0f b6 d2             	movzbl %dl,%edx
  10231c:	09 d0                	or     %edx,%eax
  10231e:	ba 10 00 00 00       	mov    $0x10,%edx
  102323:	89 41 2c             	mov    %eax,0x2c(%ecx)
  102326:	a1 38 89 16 00       	mov    0x168938,%eax
  10232b:	b9 68 00 00 00       	mov    $0x68,%ecx
  102330:	66 89 54 24 10       	mov    %dx,0x10(%esp)
  102335:	89 44 24 0c          	mov    %eax,0xc(%esp)
  102339:	66 89 4c 24 6e       	mov    %cx,0x6e(%esp)
  10233e:	83 c4 70             	add    $0x70,%esp
  102341:	5b                   	pop    %ebx
  102342:	c3                   	ret    
  102343:	8d b6 00 00 00 00    	lea    0x0(%esi),%esi
  102349:	8d bc 27 00 00 00 00 	lea    0x0(%edi,%eiz,1),%edi

00102350 <gdt_set_gate>:
  102350:	55                   	push   %ebp
  102351:	57                   	push   %edi
  102352:	56                   	push   %esi
  102353:	53                   	push   %ebx
  102354:	8b 7c 24 14          	mov    0x14(%esp),%edi
  102358:	8b 5c 24 18          	mov    0x18(%esp),%ebx
  10235c:	8b 44 24 24          	mov    0x24(%esp),%eax
  102360:	8b 4c 24 1c          	mov    0x1c(%esp),%ecx
  102364:	8b 74 24 20          	mov    0x20(%esp),%esi
  102368:	8d 14 fd 00 00 00 00 	lea    0x0(,%edi,8),%edx
  10236f:	03 54 24 28          	add    0x28(%esp),%edx
  102373:	89 dd                	mov    %ebx,%ebp
  102375:	0f b7 f9             	movzwl %cx,%edi
  102378:	c1 e5 10             	shl    $0x10,%ebp
  10237b:	c1 e0 10             	shl    $0x10,%eax
  10237e:	09 ef                	or     %ebp,%edi
  102380:	25 00 00 f0 00       	and    $0xf00000,%eax
  102385:	81 e1 00 00 0f 00    	and    $0xf0000,%ecx
  10238b:	89 3a                	mov    %edi,(%edx)
  10238d:	89 c7                	mov    %eax,%edi
  10238f:	89 f0                	mov    %esi,%eax
  102391:	0f b6 f0             	movzbl %al,%esi
  102394:	89 f8                	mov    %edi,%eax
  102396:	c1 e6 08             	shl    $0x8,%esi
  102399:	09 f0                	or     %esi,%eax
  10239b:	89 de                	mov    %ebx,%esi
  10239d:	c1 eb 10             	shr    $0x10,%ebx
  1023a0:	81 e6 00 00 00 ff    	and    $0xff000000,%esi
  1023a6:	0f b6 db             	movzbl %bl,%ebx
  1023a9:	09 f0                	or     %esi,%eax
  1023ab:	09 d8                	or     %ebx,%eax
  1023ad:	09 c8                	or     %ecx,%eax
  1023af:	89 42 04             	mov    %eax,0x4(%edx)
  1023b2:	5b                   	pop    %ebx
  1023b3:	5e                   	pop    %esi
  1023b4:	5f                   	pop    %edi
  1023b5:	5d                   	pop    %ebp
  1023b6:	c3                   	ret    
  1023b7:	89 f6                	mov    %esi,%esi
  1023b9:	8d bc 27 00 00 00 00 	lea    0x0(%edi,%eiz,1),%edi

001023c0 <test_handler>:
  1023c0:	f4                   	hlt    
  1023c1:	eb fe                	jmp    1023c1 <test_handler+0x1>
  1023c3:	8d b6 00 00 00 00    	lea    0x0(%esi),%esi
  1023c9:	8d bc 27 00 00 00 00 	lea    0x0(%edi,%eiz,1),%edi

001023d0 <ttt_t>:
  1023d0:	a1 d0 95 16 00       	mov    0x1695d0,%eax
  1023d5:	83 c0 01             	add    $0x1,%eax
  1023d8:	83 f8 06             	cmp    $0x6,%eax
  1023db:	a3 d0 95 16 00       	mov    %eax,0x1695d0
  1023e0:	74 0e                	je     1023f0 <ttt_t+0x20>
  1023e2:	f3 c3                	repz ret 
  1023e4:	8d b6 00 00 00 00    	lea    0x0(%esi),%esi
  1023ea:	8d bf 00 00 00 00    	lea    0x0(%edi),%edi
  1023f0:	c7 05 fc 88 16 00 01 	movl   $0x1,0x1688fc
  1023f7:	00 00 00 
  1023fa:	c7 05 d0 95 16 00 00 	movl   $0x0,0x1695d0
  102401:	00 00 00 
  102404:	c3                   	ret    
  102405:	8d 74 26 00          	lea    0x0(%esi,%eiz,1),%esi
  102409:	8d bc 27 00 00 00 00 	lea    0x0(%edi,%eiz,1),%edi

00102410 <AP_idt_Setup>:
  102410:	8b 54 24 04          	mov    0x4(%esp),%edx
  102414:	8b 44 24 08          	mov    0x8(%esp),%eax
  102418:	b9 ff 07 00 00       	mov    $0x7ff,%ecx
  10241d:	66 89 08             	mov    %cx,(%eax)
  102420:	8d 8a 00 08 00 00    	lea    0x800(%edx),%ecx
  102426:	89 50 02             	mov    %edx,0x2(%eax)
  102429:	89 d0                	mov    %edx,%eax
  10242b:	90                   	nop
  10242c:	8d 74 26 00          	lea    0x0(%esi,%eiz,1),%esi
  102430:	83 c0 01             	add    $0x1,%eax
  102433:	c6 40 ff 00          	movb   $0x0,-0x1(%eax)
  102437:	39 c8                	cmp    %ecx,%eax
  102439:	75 f5                	jne    102430 <AP_idt_Setup+0x20>
  10243b:	b8 60 2f 10 00       	mov    $0x102f60,%eax
  102440:	0f b7 c8             	movzwl %ax,%ecx
  102443:	66 31 c0             	xor    %ax,%ax
  102446:	80 cc 8e             	or     $0x8e,%ah
  102449:	81 c9 00 00 08 00    	or     $0x80000,%ecx
  10244f:	89 42 04             	mov    %eax,0x4(%edx)
  102452:	b8 80 2f 10 00       	mov    $0x102f80,%eax
  102457:	89 0a                	mov    %ecx,(%edx)
  102459:	0f b7 c8             	movzwl %ax,%ecx
  10245c:	66 31 c0             	xor    %ax,%ax
  10245f:	80 cc 8e             	or     $0x8e,%ah
  102462:	81 c9 00 00 08 00    	or     $0x80000,%ecx
  102468:	89 42 0c             	mov    %eax,0xc(%edx)
  10246b:	b8 a0 2f 10 00       	mov    $0x102fa0,%eax
  102470:	89 4a 08             	mov    %ecx,0x8(%edx)
  102473:	0f b7 c8             	movzwl %ax,%ecx
  102476:	66 31 c0             	xor    %ax,%ax
  102479:	80 cc 8e             	or     $0x8e,%ah
  10247c:	81 c9 00 00 08 00    	or     $0x80000,%ecx
  102482:	89 42 14             	mov    %eax,0x14(%edx)
  102485:	b8 c0 2f 10 00       	mov    $0x102fc0,%eax
  10248a:	89 4a 10             	mov    %ecx,0x10(%edx)
  10248d:	0f b7 c8             	movzwl %ax,%ecx
  102490:	66 31 c0             	xor    %ax,%ax
  102493:	80 cc 8e             	or     $0x8e,%ah
  102496:	81 c9 00 00 08 00    	or     $0x80000,%ecx
  10249c:	89 42 1c             	mov    %eax,0x1c(%edx)
  10249f:	b8 e0 2f 10 00       	mov    $0x102fe0,%eax
  1024a4:	89 4a 18             	mov    %ecx,0x18(%edx)
  1024a7:	0f b7 c8             	movzwl %ax,%ecx
  1024aa:	66 31 c0             	xor    %ax,%ax
  1024ad:	80 cc 8e             	or     $0x8e,%ah
  1024b0:	81 c9 00 00 08 00    	or     $0x80000,%ecx
  1024b6:	89 42 24             	mov    %eax,0x24(%edx)
  1024b9:	b8 00 30 10 00       	mov    $0x103000,%eax
  1024be:	89 4a 20             	mov    %ecx,0x20(%edx)
  1024c1:	0f b7 c8             	movzwl %ax,%ecx
  1024c4:	66 31 c0             	xor    %ax,%ax
  1024c7:	80 cc 8e             	or     $0x8e,%ah
  1024ca:	81 c9 00 00 08 00    	or     $0x80000,%ecx
  1024d0:	89 42 2c             	mov    %eax,0x2c(%edx)
  1024d3:	b8 30 30 10 00       	mov    $0x103030,%eax
  1024d8:	89 4a 28             	mov    %ecx,0x28(%edx)
  1024db:	0f b7 c8             	movzwl %ax,%ecx
  1024de:	66 31 c0             	xor    %ax,%ax
  1024e1:	80 cc 8e             	or     $0x8e,%ah
  1024e4:	81 c9 00 00 08 00    	or     $0x80000,%ecx
  1024ea:	89 42 34             	mov    %eax,0x34(%edx)
  1024ed:	b8 50 30 10 00       	mov    $0x103050,%eax
  1024f2:	89 4a 30             	mov    %ecx,0x30(%edx)
  1024f5:	0f b7 c8             	movzwl %ax,%ecx
  1024f8:	66 31 c0             	xor    %ax,%ax
  1024fb:	80 cc 8e             	or     $0x8e,%ah
  1024fe:	81 c9 00 00 08 00    	or     $0x80000,%ecx
  102504:	89 42 3c             	mov    %eax,0x3c(%edx)
  102507:	b8 70 30 10 00       	mov    $0x103070,%eax
  10250c:	89 4a 38             	mov    %ecx,0x38(%edx)
  10250f:	0f b7 c8             	movzwl %ax,%ecx
  102512:	66 31 c0             	xor    %ax,%ax
  102515:	80 cc 8e             	or     $0x8e,%ah
  102518:	81 c9 00 00 08 00    	or     $0x80000,%ecx
  10251e:	89 42 44             	mov    %eax,0x44(%edx)
  102521:	b8 90 30 10 00       	mov    $0x103090,%eax
  102526:	89 4a 40             	mov    %ecx,0x40(%edx)
  102529:	0f b7 c8             	movzwl %ax,%ecx
  10252c:	66 31 c0             	xor    %ax,%ax
  10252f:	80 cc 8e             	or     $0x8e,%ah
  102532:	81 c9 00 00 08 00    	or     $0x80000,%ecx
  102538:	89 42 4c             	mov    %eax,0x4c(%edx)
  10253b:	b8 b0 30 10 00       	mov    $0x1030b0,%eax
  102540:	89 4a 48             	mov    %ecx,0x48(%edx)
  102543:	0f b7 c8             	movzwl %ax,%ecx
  102546:	66 31 c0             	xor    %ax,%ax
  102549:	81 c9 00 00 08 00    	or     $0x80000,%ecx
  10254f:	80 cc 8e             	or     $0x8e,%ah
  102552:	89 42 54             	mov    %eax,0x54(%edx)
  102555:	b8 d0 30 10 00       	mov    $0x1030d0,%eax
  10255a:	89 4a 50             	mov    %ecx,0x50(%edx)
  10255d:	0f b7 c8             	movzwl %ax,%ecx
  102560:	66 31 c0             	xor    %ax,%ax
  102563:	80 cc 8e             	or     $0x8e,%ah
  102566:	81 c9 00 00 08 00    	or     $0x80000,%ecx
  10256c:	89 42 5c             	mov    %eax,0x5c(%edx)
  10256f:	b8 f0 30 10 00       	mov    $0x1030f0,%eax
  102574:	89 4a 58             	mov    %ecx,0x58(%edx)
  102577:	0f b7 c8             	movzwl %ax,%ecx
  10257a:	66 31 c0             	xor    %ax,%ax
  10257d:	80 cc 8e             	or     $0x8e,%ah
  102580:	81 c9 00 00 08 00    	or     $0x80000,%ecx
  102586:	89 42 64             	mov    %eax,0x64(%edx)
  102589:	b8 6b 00 10 00       	mov    $0x10006b,%eax
  10258e:	89 4a 60             	mov    %ecx,0x60(%edx)
  102591:	0f b7 c8             	movzwl %ax,%ecx
  102594:	66 31 c0             	xor    %ax,%ax
  102597:	80 cc 8e             	or     $0x8e,%ah
  10259a:	81 c9 00 00 08 00    	or     $0x80000,%ecx
  1025a0:	89 42 6c             	mov    %eax,0x6c(%edx)
  1025a3:	b8 b0 02 10 00       	mov    $0x1002b0,%eax
  1025a8:	89 4a 68             	mov    %ecx,0x68(%edx)
  1025ab:	0f b7 c8             	movzwl %ax,%ecx
  1025ae:	66 31 c0             	xor    %ax,%ax
  1025b1:	80 cc 8e             	or     $0x8e,%ah
  1025b4:	81 c9 00 00 08 00    	or     $0x80000,%ecx
  1025ba:	89 42 74             	mov    %eax,0x74(%edx)
  1025bd:	b8 40 31 10 00       	mov    $0x103140,%eax
  1025c2:	89 4a 70             	mov    %ecx,0x70(%edx)
  1025c5:	0f b7 c8             	movzwl %ax,%ecx
  1025c8:	66 31 c0             	xor    %ax,%ax
  1025cb:	80 cc 8e             	or     $0x8e,%ah
  1025ce:	81 c9 00 00 08 00    	or     $0x80000,%ecx
  1025d4:	89 42 7c             	mov    %eax,0x7c(%edx)
  1025d7:	b8 60 31 10 00       	mov    $0x103160,%eax
  1025dc:	89 4a 78             	mov    %ecx,0x78(%edx)
  1025df:	0f b7 c8             	movzwl %ax,%ecx
  1025e2:	66 31 c0             	xor    %ax,%ax
  1025e5:	81 c9 00 00 08 00    	or     $0x80000,%ecx
  1025eb:	80 cc 8e             	or     $0x8e,%ah
  1025ee:	89 8a 80 00 00 00    	mov    %ecx,0x80(%edx)
  1025f4:	89 82 84 00 00 00    	mov    %eax,0x84(%edx)
  1025fa:	b8 80 31 10 00       	mov    $0x103180,%eax
  1025ff:	0f b7 c8             	movzwl %ax,%ecx
  102602:	66 31 c0             	xor    %ax,%ax
  102605:	80 cc 8e             	or     $0x8e,%ah
  102608:	81 c9 00 00 08 00    	or     $0x80000,%ecx
  10260e:	89 82 8c 00 00 00    	mov    %eax,0x8c(%edx)
  102614:	b8 a0 31 10 00       	mov    $0x1031a0,%eax
  102619:	89 8a 88 00 00 00    	mov    %ecx,0x88(%edx)
  10261f:	0f b7 c8             	movzwl %ax,%ecx
  102622:	66 31 c0             	xor    %ax,%ax
  102625:	80 cc 8e             	or     $0x8e,%ah
  102628:	81 c9 00 00 08 00    	or     $0x80000,%ecx
  10262e:	89 82 94 00 00 00    	mov    %eax,0x94(%edx)
  102634:	b8 c0 31 10 00       	mov    $0x1031c0,%eax
  102639:	89 8a 90 00 00 00    	mov    %ecx,0x90(%edx)
  10263f:	0f b7 c8             	movzwl %ax,%ecx
  102642:	66 31 c0             	xor    %ax,%ax
  102645:	80 cc 8e             	or     $0x8e,%ah
  102648:	81 c9 00 00 08 00    	or     $0x80000,%ecx
  10264e:	89 82 9c 00 00 00    	mov    %eax,0x9c(%edx)
  102654:	89 82 a4 00 00 00    	mov    %eax,0xa4(%edx)
  10265a:	89 82 ac 00 00 00    	mov    %eax,0xac(%edx)
  102660:	89 82 b4 00 00 00    	mov    %eax,0xb4(%edx)
  102666:	89 82 bc 00 00 00    	mov    %eax,0xbc(%edx)
  10266c:	89 82 c4 00 00 00    	mov    %eax,0xc4(%edx)
  102672:	89 82 cc 00 00 00    	mov    %eax,0xcc(%edx)
  102678:	89 82 d4 00 00 00    	mov    %eax,0xd4(%edx)
  10267e:	89 82 dc 00 00 00    	mov    %eax,0xdc(%edx)
  102684:	89 82 e4 00 00 00    	mov    %eax,0xe4(%edx)
  10268a:	89 82 ec 00 00 00    	mov    %eax,0xec(%edx)
  102690:	89 82 f4 00 00 00    	mov    %eax,0xf4(%edx)
  102696:	89 82 fc 00 00 00    	mov    %eax,0xfc(%edx)
  10269c:	b8 e0 31 10 00       	mov    $0x1031e0,%eax
  1026a1:	89 8a 98 00 00 00    	mov    %ecx,0x98(%edx)
  1026a7:	89 8a a0 00 00 00    	mov    %ecx,0xa0(%edx)
  1026ad:	89 8a a8 00 00 00    	mov    %ecx,0xa8(%edx)
  1026b3:	89 8a b0 00 00 00    	mov    %ecx,0xb0(%edx)
  1026b9:	89 8a b8 00 00 00    	mov    %ecx,0xb8(%edx)
  1026bf:	89 8a c0 00 00 00    	mov    %ecx,0xc0(%edx)
  1026c5:	89 8a c8 00 00 00    	mov    %ecx,0xc8(%edx)
  1026cb:	89 8a d0 00 00 00    	mov    %ecx,0xd0(%edx)
  1026d1:	89 8a d8 00 00 00    	mov    %ecx,0xd8(%edx)
  1026d7:	89 8a e0 00 00 00    	mov    %ecx,0xe0(%edx)
  1026dd:	89 8a e8 00 00 00    	mov    %ecx,0xe8(%edx)
  1026e3:	89 8a f0 00 00 00    	mov    %ecx,0xf0(%edx)
  1026e9:	89 8a f8 00 00 00    	mov    %ecx,0xf8(%edx)
  1026ef:	0f b7 c8             	movzwl %ax,%ecx
  1026f2:	66 31 c0             	xor    %ax,%ax
  1026f5:	81 c9 00 00 08 00    	or     $0x80000,%ecx
  1026fb:	80 cc 8e             	or     $0x8e,%ah
  1026fe:	89 8a 00 01 00 00    	mov    %ecx,0x100(%edx)
  102704:	89 82 04 01 00 00    	mov    %eax,0x104(%edx)
  10270a:	b8 fe 02 10 00       	mov    $0x1002fe,%eax
  10270f:	0f b7 c8             	movzwl %ax,%ecx
  102712:	81 c9 00 00 08 00    	or     $0x80000,%ecx
  102718:	66 31 c0             	xor    %ax,%ax
  10271b:	80 cc 8e             	or     $0x8e,%ah
  10271e:	89 8a 08 01 00 00    	mov    %ecx,0x108(%edx)
  102724:	89 82 0c 01 00 00    	mov    %eax,0x10c(%edx)
  10272a:	b8 60 34 10 00       	mov    $0x103460,%eax
  10272f:	0f b7 c8             	movzwl %ax,%ecx
  102732:	66 31 c0             	xor    %ax,%ax
  102735:	80 cc 8e             	or     $0x8e,%ah
  102738:	81 c9 00 00 08 00    	or     $0x80000,%ecx
  10273e:	89 82 14 01 00 00    	mov    %eax,0x114(%edx)
  102744:	b8 80 34 10 00       	mov    $0x103480,%eax
  102749:	89 8a 10 01 00 00    	mov    %ecx,0x110(%edx)
  10274f:	0f b7 c8             	movzwl %ax,%ecx
  102752:	66 31 c0             	xor    %ax,%ax
  102755:	80 cc 8e             	or     $0x8e,%ah
  102758:	81 c9 00 00 08 00    	or     $0x80000,%ecx
  10275e:	89 82 1c 01 00 00    	mov    %eax,0x11c(%edx)
  102764:	b8 a0 34 10 00       	mov    $0x1034a0,%eax
  102769:	89 8a 18 01 00 00    	mov    %ecx,0x118(%edx)
  10276f:	0f b7 c8             	movzwl %ax,%ecx
  102772:	66 31 c0             	xor    %ax,%ax
  102775:	80 cc 8e             	or     $0x8e,%ah
  102778:	81 c9 00 00 08 00    	or     $0x80000,%ecx
  10277e:	89 82 24 01 00 00    	mov    %eax,0x124(%edx)
  102784:	b8 c0 34 10 00       	mov    $0x1034c0,%eax
  102789:	89 8a 20 01 00 00    	mov    %ecx,0x120(%edx)
  10278f:	0f b7 c8             	movzwl %ax,%ecx
  102792:	66 31 c0             	xor    %ax,%ax
  102795:	80 cc 8e             	or     $0x8e,%ah
  102798:	81 c9 00 00 08 00    	or     $0x80000,%ecx
  10279e:	89 82 2c 01 00 00    	mov    %eax,0x12c(%edx)
  1027a4:	b8 e0 34 10 00       	mov    $0x1034e0,%eax
  1027a9:	89 8a 28 01 00 00    	mov    %ecx,0x128(%edx)
  1027af:	0f b7 c8             	movzwl %ax,%ecx
  1027b2:	66 31 c0             	xor    %ax,%ax
  1027b5:	80 cc 8e             	or     $0x8e,%ah
  1027b8:	81 c9 00 00 08 00    	or     $0x80000,%ecx
  1027be:	89 82 34 01 00 00    	mov    %eax,0x134(%edx)
  1027c4:	b8 00 35 10 00       	mov    $0x103500,%eax
  1027c9:	89 8a 30 01 00 00    	mov    %ecx,0x130(%edx)
  1027cf:	0f b7 c8             	movzwl %ax,%ecx
  1027d2:	66 31 c0             	xor    %ax,%ax
  1027d5:	80 cc 8e             	or     $0x8e,%ah
  1027d8:	81 c9 00 00 08 00    	or     $0x80000,%ecx
  1027de:	89 82 3c 01 00 00    	mov    %eax,0x13c(%edx)
  1027e4:	b8 20 35 10 00       	mov    $0x103520,%eax
  1027e9:	89 8a 38 01 00 00    	mov    %ecx,0x138(%edx)
  1027ef:	0f b7 c8             	movzwl %ax,%ecx
  1027f2:	66 31 c0             	xor    %ax,%ax
  1027f5:	80 cc 8e             	or     $0x8e,%ah
  1027f8:	81 c9 00 00 08 00    	or     $0x80000,%ecx
  1027fe:	89 82 44 01 00 00    	mov    %eax,0x144(%edx)
  102804:	b8 40 35 10 00       	mov    $0x103540,%eax
  102809:	89 8a 40 01 00 00    	mov    %ecx,0x140(%edx)
  10280f:	0f b7 c8             	movzwl %ax,%ecx
  102812:	66 31 c0             	xor    %ax,%ax
  102815:	80 cc 8e             	or     $0x8e,%ah
  102818:	81 c9 00 00 08 00    	or     $0x80000,%ecx
  10281e:	89 82 4c 01 00 00    	mov    %eax,0x14c(%edx)
  102824:	b8 60 35 10 00       	mov    $0x103560,%eax
  102829:	89 8a 48 01 00 00    	mov    %ecx,0x148(%edx)
  10282f:	0f b7 c8             	movzwl %ax,%ecx
  102832:	66 31 c0             	xor    %ax,%ax
  102835:	80 cc 8e             	or     $0x8e,%ah
  102838:	81 c9 00 00 08 00    	or     $0x80000,%ecx
  10283e:	89 82 54 01 00 00    	mov    %eax,0x154(%edx)
  102844:	b8 80 35 10 00       	mov    $0x103580,%eax
  102849:	89 8a 50 01 00 00    	mov    %ecx,0x150(%edx)
  10284f:	0f b7 c8             	movzwl %ax,%ecx
  102852:	66 31 c0             	xor    %ax,%ax
  102855:	80 cc 8e             	or     $0x8e,%ah
  102858:	81 c9 00 00 08 00    	or     $0x80000,%ecx
  10285e:	89 82 5c 01 00 00    	mov    %eax,0x15c(%edx)
  102864:	b8 2e 03 10 00       	mov    $0x10032e,%eax
  102869:	89 8a 58 01 00 00    	mov    %ecx,0x158(%edx)
  10286f:	0f b7 c8             	movzwl %ax,%ecx
  102872:	81 c9 00 00 08 00    	or     $0x80000,%ecx
  102878:	66 31 c0             	xor    %ax,%ax
  10287b:	80 cc 8e             	or     $0x8e,%ah
  10287e:	89 8a 60 01 00 00    	mov    %ecx,0x160(%edx)
  102884:	89 82 64 01 00 00    	mov    %eax,0x164(%edx)
  10288a:	b8 30 36 10 00       	mov    $0x103630,%eax
  10288f:	0f b7 c8             	movzwl %ax,%ecx
  102892:	66 31 c0             	xor    %ax,%ax
  102895:	80 cc 8e             	or     $0x8e,%ah
  102898:	81 c9 00 00 08 00    	or     $0x80000,%ecx
  10289e:	89 82 6c 01 00 00    	mov    %eax,0x16c(%edx)
  1028a4:	b8 50 36 10 00       	mov    $0x103650,%eax
  1028a9:	89 8a 68 01 00 00    	mov    %ecx,0x168(%edx)
  1028af:	0f b7 c8             	movzwl %ax,%ecx
  1028b2:	66 31 c0             	xor    %ax,%ax
  1028b5:	80 cc 8e             	or     $0x8e,%ah
  1028b8:	81 c9 00 00 08 00    	or     $0x80000,%ecx
  1028be:	89 82 74 01 00 00    	mov    %eax,0x174(%edx)
  1028c4:	b8 70 36 10 00       	mov    $0x103670,%eax
  1028c9:	89 8a 70 01 00 00    	mov    %ecx,0x170(%edx)
  1028cf:	0f b7 c8             	movzwl %ax,%ecx
  1028d2:	66 31 c0             	xor    %ax,%ax
  1028d5:	81 c9 00 00 08 00    	or     $0x80000,%ecx
  1028db:	80 cc 8e             	or     $0x8e,%ah
  1028de:	89 8a 78 01 00 00    	mov    %ecx,0x178(%edx)
  1028e4:	89 82 7c 01 00 00    	mov    %eax,0x17c(%edx)
  1028ea:	c3                   	ret    
  1028eb:	90                   	nop
  1028ec:	8d 74 26 00          	lea    0x0(%esi,%eiz,1),%esi

001028f0 <init_idt>:
  1028f0:	b8 ff 07 00 00       	mov    $0x7ff,%eax
  1028f5:	83 ec 0c             	sub    $0xc,%esp
  1028f8:	c7 05 ca 80 16 00 a0 	movl   $0x168ba0,0x1680ca
  1028ff:	8b 16 00 
  102902:	66 a3 c8 80 16 00    	mov    %ax,0x1680c8
  102908:	b8 a0 8b 16 00       	mov    $0x168ba0,%eax
  10290d:	8d 76 00             	lea    0x0(%esi),%esi
  102910:	83 c0 01             	add    $0x1,%eax
  102913:	c6 40 ff 00          	movb   $0x0,-0x1(%eax)
  102917:	3d a0 93 16 00       	cmp    $0x1693a0,%eax
  10291c:	75 f2                	jne    102910 <init_idt+0x20>
  10291e:	b8 60 2f 10 00       	mov    $0x102f60,%eax
  102923:	0f b7 d0             	movzwl %ax,%edx
  102926:	66 31 c0             	xor    %ax,%ax
  102929:	80 cc 8e             	or     $0x8e,%ah
  10292c:	81 ca 00 00 08 00    	or     $0x80000,%edx
  102932:	a3 a4 8b 16 00       	mov    %eax,0x168ba4
  102937:	b8 80 2f 10 00       	mov    $0x102f80,%eax
  10293c:	89 15 a0 8b 16 00    	mov    %edx,0x168ba0
  102942:	0f b7 d0             	movzwl %ax,%edx
  102945:	66 31 c0             	xor    %ax,%ax
  102948:	80 cc 8e             	or     $0x8e,%ah
  10294b:	81 ca 00 00 08 00    	or     $0x80000,%edx
  102951:	a3 ac 8b 16 00       	mov    %eax,0x168bac
  102956:	b8 a0 2f 10 00       	mov    $0x102fa0,%eax
  10295b:	89 15 a8 8b 16 00    	mov    %edx,0x168ba8
  102961:	0f b7 d0             	movzwl %ax,%edx
  102964:	66 31 c0             	xor    %ax,%ax
  102967:	80 cc 8e             	or     $0x8e,%ah
  10296a:	81 ca 00 00 08 00    	or     $0x80000,%edx
  102970:	a3 b4 8b 16 00       	mov    %eax,0x168bb4
  102975:	b8 c0 2f 10 00       	mov    $0x102fc0,%eax
  10297a:	89 15 b0 8b 16 00    	mov    %edx,0x168bb0
  102980:	0f b7 d0             	movzwl %ax,%edx
  102983:	66 31 c0             	xor    %ax,%ax
  102986:	80 cc 8e             	or     $0x8e,%ah
  102989:	81 ca 00 00 08 00    	or     $0x80000,%edx
  10298f:	a3 bc 8b 16 00       	mov    %eax,0x168bbc
  102994:	b8 e0 2f 10 00       	mov    $0x102fe0,%eax
  102999:	89 15 b8 8b 16 00    	mov    %edx,0x168bb8
  10299f:	0f b7 d0             	movzwl %ax,%edx
  1029a2:	66 31 c0             	xor    %ax,%ax
  1029a5:	80 cc 8e             	or     $0x8e,%ah
  1029a8:	81 ca 00 00 08 00    	or     $0x80000,%edx
  1029ae:	a3 c4 8b 16 00       	mov    %eax,0x168bc4
  1029b3:	b8 00 30 10 00       	mov    $0x103000,%eax
  1029b8:	89 15 c0 8b 16 00    	mov    %edx,0x168bc0
  1029be:	0f b7 d0             	movzwl %ax,%edx
  1029c1:	66 31 c0             	xor    %ax,%ax
  1029c4:	80 cc 8e             	or     $0x8e,%ah
  1029c7:	81 ca 00 00 08 00    	or     $0x80000,%edx
  1029cd:	a3 cc 8b 16 00       	mov    %eax,0x168bcc
  1029d2:	b8 30 30 10 00       	mov    $0x103030,%eax
  1029d7:	89 15 c8 8b 16 00    	mov    %edx,0x168bc8
  1029dd:	0f b7 d0             	movzwl %ax,%edx
  1029e0:	66 31 c0             	xor    %ax,%ax
  1029e3:	80 cc 8e             	or     $0x8e,%ah
  1029e6:	81 ca 00 00 08 00    	or     $0x80000,%edx
  1029ec:	a3 d4 8b 16 00       	mov    %eax,0x168bd4
  1029f1:	b8 50 30 10 00       	mov    $0x103050,%eax
  1029f6:	89 15 d0 8b 16 00    	mov    %edx,0x168bd0
  1029fc:	0f b7 d0             	movzwl %ax,%edx
  1029ff:	66 31 c0             	xor    %ax,%ax
  102a02:	80 cc 8e             	or     $0x8e,%ah
  102a05:	81 ca 00 00 08 00    	or     $0x80000,%edx
  102a0b:	a3 dc 8b 16 00       	mov    %eax,0x168bdc
  102a10:	b8 70 30 10 00       	mov    $0x103070,%eax
  102a15:	89 15 d8 8b 16 00    	mov    %edx,0x168bd8
  102a1b:	0f b7 d0             	movzwl %ax,%edx
  102a1e:	66 31 c0             	xor    %ax,%ax
  102a21:	80 cc 8e             	or     $0x8e,%ah
  102a24:	81 ca 00 00 08 00    	or     $0x80000,%edx
  102a2a:	a3 e4 8b 16 00       	mov    %eax,0x168be4
  102a2f:	b8 90 30 10 00       	mov    $0x103090,%eax
  102a34:	89 15 e0 8b 16 00    	mov    %edx,0x168be0
  102a3a:	0f b7 d0             	movzwl %ax,%edx
  102a3d:	66 31 c0             	xor    %ax,%ax
  102a40:	80 cc 8e             	or     $0x8e,%ah
  102a43:	81 ca 00 00 08 00    	or     $0x80000,%edx
  102a49:	a3 ec 8b 16 00       	mov    %eax,0x168bec
  102a4e:	b8 b0 30 10 00       	mov    $0x1030b0,%eax
  102a53:	89 15 e8 8b 16 00    	mov    %edx,0x168be8
  102a59:	0f b7 d0             	movzwl %ax,%edx
  102a5c:	66 31 c0             	xor    %ax,%ax
  102a5f:	81 ca 00 00 08 00    	or     $0x80000,%edx
  102a65:	80 cc 8e             	or     $0x8e,%ah
  102a68:	a3 f4 8b 16 00       	mov    %eax,0x168bf4
  102a6d:	b8 d0 30 10 00       	mov    $0x1030d0,%eax
  102a72:	89 15 f0 8b 16 00    	mov    %edx,0x168bf0
  102a78:	0f b7 d0             	movzwl %ax,%edx
  102a7b:	66 31 c0             	xor    %ax,%ax
  102a7e:	80 cc 8e             	or     $0x8e,%ah
  102a81:	81 ca 00 00 08 00    	or     $0x80000,%edx
  102a87:	a3 fc 8b 16 00       	mov    %eax,0x168bfc
  102a8c:	b8 f0 30 10 00       	mov    $0x1030f0,%eax
  102a91:	89 15 f8 8b 16 00    	mov    %edx,0x168bf8
  102a97:	0f b7 d0             	movzwl %ax,%edx
  102a9a:	66 31 c0             	xor    %ax,%ax
  102a9d:	80 cc 8e             	or     $0x8e,%ah
  102aa0:	81 ca 00 00 08 00    	or     $0x80000,%edx
  102aa6:	a3 04 8c 16 00       	mov    %eax,0x168c04
  102aab:	b8 10 31 10 00       	mov    $0x103110,%eax
  102ab0:	89 15 00 8c 16 00    	mov    %edx,0x168c00
  102ab6:	0f b7 d0             	movzwl %ax,%edx
  102ab9:	66 31 c0             	xor    %ax,%ax
  102abc:	80 cc 8e             	or     $0x8e,%ah
  102abf:	81 ca 00 00 08 00    	or     $0x80000,%edx
  102ac5:	a3 0c 8c 16 00       	mov    %eax,0x168c0c
  102aca:	b8 b0 02 10 00       	mov    $0x1002b0,%eax
  102acf:	89 15 08 8c 16 00    	mov    %edx,0x168c08
  102ad5:	0f b7 d0             	movzwl %ax,%edx
  102ad8:	66 31 c0             	xor    %ax,%ax
  102adb:	80 cc 8e             	or     $0x8e,%ah
  102ade:	81 ca 00 00 08 00    	or     $0x80000,%edx
  102ae4:	a3 14 8c 16 00       	mov    %eax,0x168c14
  102ae9:	b8 40 31 10 00       	mov    $0x103140,%eax
  102aee:	89 15 10 8c 16 00    	mov    %edx,0x168c10
  102af4:	0f b7 d0             	movzwl %ax,%edx
  102af7:	66 31 c0             	xor    %ax,%ax
  102afa:	80 cc 8e             	or     $0x8e,%ah
  102afd:	81 ca 00 00 08 00    	or     $0x80000,%edx
  102b03:	a3 1c 8c 16 00       	mov    %eax,0x168c1c
  102b08:	b8 60 31 10 00       	mov    $0x103160,%eax
  102b0d:	89 15 18 8c 16 00    	mov    %edx,0x168c18
  102b13:	0f b7 d0             	movzwl %ax,%edx
  102b16:	66 31 c0             	xor    %ax,%ax
  102b19:	81 ca 00 00 08 00    	or     $0x80000,%edx
  102b1f:	80 cc 8e             	or     $0x8e,%ah
  102b22:	89 15 20 8c 16 00    	mov    %edx,0x168c20
  102b28:	a3 24 8c 16 00       	mov    %eax,0x168c24
  102b2d:	b8 80 31 10 00       	mov    $0x103180,%eax
  102b32:	0f b7 d0             	movzwl %ax,%edx
  102b35:	66 31 c0             	xor    %ax,%ax
  102b38:	80 cc 8e             	or     $0x8e,%ah
  102b3b:	81 ca 00 00 08 00    	or     $0x80000,%edx
  102b41:	a3 2c 8c 16 00       	mov    %eax,0x168c2c
  102b46:	b8 a0 31 10 00       	mov    $0x1031a0,%eax
  102b4b:	89 15 28 8c 16 00    	mov    %edx,0x168c28
  102b51:	0f b7 d0             	movzwl %ax,%edx
  102b54:	66 31 c0             	xor    %ax,%ax
  102b57:	80 cc 8e             	or     $0x8e,%ah
  102b5a:	81 ca 00 00 08 00    	or     $0x80000,%edx
  102b60:	a3 34 8c 16 00       	mov    %eax,0x168c34
  102b65:	b8 c0 31 10 00       	mov    $0x1031c0,%eax
  102b6a:	89 15 30 8c 16 00    	mov    %edx,0x168c30
  102b70:	0f b7 d0             	movzwl %ax,%edx
  102b73:	66 31 c0             	xor    %ax,%ax
  102b76:	80 cc 8e             	or     $0x8e,%ah
  102b79:	81 ca 00 00 08 00    	or     $0x80000,%edx
  102b7f:	a3 3c 8c 16 00       	mov    %eax,0x168c3c
  102b84:	a3 44 8c 16 00       	mov    %eax,0x168c44
  102b89:	a3 4c 8c 16 00       	mov    %eax,0x168c4c
  102b8e:	a3 54 8c 16 00       	mov    %eax,0x168c54
  102b93:	a3 5c 8c 16 00       	mov    %eax,0x168c5c
  102b98:	a3 64 8c 16 00       	mov    %eax,0x168c64
  102b9d:	a3 6c 8c 16 00       	mov    %eax,0x168c6c
  102ba2:	a3 74 8c 16 00       	mov    %eax,0x168c74
  102ba7:	a3 7c 8c 16 00       	mov    %eax,0x168c7c
  102bac:	a3 84 8c 16 00       	mov    %eax,0x168c84
  102bb1:	a3 8c 8c 16 00       	mov    %eax,0x168c8c
  102bb6:	a3 94 8c 16 00       	mov    %eax,0x168c94
  102bbb:	a3 9c 8c 16 00       	mov    %eax,0x168c9c
  102bc0:	b8 48 03 10 00       	mov    $0x100348,%eax
  102bc5:	89 15 38 8c 16 00    	mov    %edx,0x168c38
  102bcb:	89 15 40 8c 16 00    	mov    %edx,0x168c40
  102bd1:	89 15 48 8c 16 00    	mov    %edx,0x168c48
  102bd7:	89 15 50 8c 16 00    	mov    %edx,0x168c50
  102bdd:	89 15 58 8c 16 00    	mov    %edx,0x168c58
  102be3:	89 15 60 8c 16 00    	mov    %edx,0x168c60
  102be9:	89 15 68 8c 16 00    	mov    %edx,0x168c68
  102bef:	89 15 70 8c 16 00    	mov    %edx,0x168c70
  102bf5:	89 15 78 8c 16 00    	mov    %edx,0x168c78
  102bfb:	89 15 80 8c 16 00    	mov    %edx,0x168c80
  102c01:	89 15 88 8c 16 00    	mov    %edx,0x168c88
  102c07:	89 15 90 8c 16 00    	mov    %edx,0x168c90
  102c0d:	89 15 98 8c 16 00    	mov    %edx,0x168c98
  102c13:	0f b7 d0             	movzwl %ax,%edx
  102c16:	66 31 c0             	xor    %ax,%ax
  102c19:	81 ca 00 00 08 00    	or     $0x80000,%edx
  102c1f:	80 cc 8e             	or     $0x8e,%ah
  102c22:	89 15 a0 8c 16 00    	mov    %edx,0x168ca0
  102c28:	a3 a4 8c 16 00       	mov    %eax,0x168ca4
  102c2d:	b8 fe 02 10 00       	mov    $0x1002fe,%eax
  102c32:	0f b7 d0             	movzwl %ax,%edx
  102c35:	81 ca 00 00 08 00    	or     $0x80000,%edx
  102c3b:	66 31 c0             	xor    %ax,%ax
  102c3e:	80 cc 8e             	or     $0x8e,%ah
  102c41:	89 15 a8 8c 16 00    	mov    %edx,0x168ca8
  102c47:	a3 ac 8c 16 00       	mov    %eax,0x168cac
  102c4c:	b8 60 34 10 00       	mov    $0x103460,%eax
  102c51:	0f b7 d0             	movzwl %ax,%edx
  102c54:	66 31 c0             	xor    %ax,%ax
  102c57:	80 cc 8e             	or     $0x8e,%ah
  102c5a:	81 ca 00 00 08 00    	or     $0x80000,%edx
  102c60:	a3 b4 8c 16 00       	mov    %eax,0x168cb4
  102c65:	b8 80 34 10 00       	mov    $0x103480,%eax
  102c6a:	89 15 b0 8c 16 00    	mov    %edx,0x168cb0
  102c70:	0f b7 d0             	movzwl %ax,%edx
  102c73:	66 31 c0             	xor    %ax,%ax
  102c76:	80 cc 8e             	or     $0x8e,%ah
  102c79:	81 ca 00 00 08 00    	or     $0x80000,%edx
  102c7f:	a3 bc 8c 16 00       	mov    %eax,0x168cbc
  102c84:	b8 a0 34 10 00       	mov    $0x1034a0,%eax
  102c89:	89 15 b8 8c 16 00    	mov    %edx,0x168cb8
  102c8f:	0f b7 d0             	movzwl %ax,%edx
  102c92:	66 31 c0             	xor    %ax,%ax
  102c95:	80 cc 8e             	or     $0x8e,%ah
  102c98:	81 ca 00 00 08 00    	or     $0x80000,%edx
  102c9e:	a3 c4 8c 16 00       	mov    %eax,0x168cc4
  102ca3:	b8 c0 34 10 00       	mov    $0x1034c0,%eax
  102ca8:	89 15 c0 8c 16 00    	mov    %edx,0x168cc0
  102cae:	0f b7 d0             	movzwl %ax,%edx
  102cb1:	66 31 c0             	xor    %ax,%ax
  102cb4:	80 cc 8e             	or     $0x8e,%ah
  102cb7:	81 ca 00 00 08 00    	or     $0x80000,%edx
  102cbd:	a3 cc 8c 16 00       	mov    %eax,0x168ccc
  102cc2:	b8 e0 34 10 00       	mov    $0x1034e0,%eax
  102cc7:	89 15 c8 8c 16 00    	mov    %edx,0x168cc8
  102ccd:	0f b7 d0             	movzwl %ax,%edx
  102cd0:	66 31 c0             	xor    %ax,%ax
  102cd3:	80 cc 8e             	or     $0x8e,%ah
  102cd6:	81 ca 00 00 08 00    	or     $0x80000,%edx
  102cdc:	a3 d4 8c 16 00       	mov    %eax,0x168cd4
  102ce1:	b8 00 35 10 00       	mov    $0x103500,%eax
  102ce6:	89 15 d0 8c 16 00    	mov    %edx,0x168cd0
  102cec:	0f b7 d0             	movzwl %ax,%edx
  102cef:	66 31 c0             	xor    %ax,%ax
  102cf2:	80 cc 8e             	or     $0x8e,%ah
  102cf5:	81 ca 00 00 08 00    	or     $0x80000,%edx
  102cfb:	a3 dc 8c 16 00       	mov    %eax,0x168cdc
  102d00:	b8 20 35 10 00       	mov    $0x103520,%eax
  102d05:	89 15 d8 8c 16 00    	mov    %edx,0x168cd8
  102d0b:	0f b7 d0             	movzwl %ax,%edx
  102d0e:	66 31 c0             	xor    %ax,%ax
  102d11:	80 cc 8e             	or     $0x8e,%ah
  102d14:	81 ca 00 00 08 00    	or     $0x80000,%edx
  102d1a:	a3 e4 8c 16 00       	mov    %eax,0x168ce4
  102d1f:	b8 40 35 10 00       	mov    $0x103540,%eax
  102d24:	89 15 e0 8c 16 00    	mov    %edx,0x168ce0
  102d2a:	0f b7 d0             	movzwl %ax,%edx
  102d2d:	66 31 c0             	xor    %ax,%ax
  102d30:	80 cc 8e             	or     $0x8e,%ah
  102d33:	81 ca 00 00 08 00    	or     $0x80000,%edx
  102d39:	a3 ec 8c 16 00       	mov    %eax,0x168cec
  102d3e:	b8 60 35 10 00       	mov    $0x103560,%eax
  102d43:	89 15 e8 8c 16 00    	mov    %edx,0x168ce8
  102d49:	0f b7 d0             	movzwl %ax,%edx
  102d4c:	66 31 c0             	xor    %ax,%ax
  102d4f:	80 cc 8e             	or     $0x8e,%ah
  102d52:	81 ca 00 00 08 00    	or     $0x80000,%edx
  102d58:	a3 f4 8c 16 00       	mov    %eax,0x168cf4
  102d5d:	b8 80 35 10 00       	mov    $0x103580,%eax
  102d62:	89 15 f0 8c 16 00    	mov    %edx,0x168cf0
  102d68:	0f b7 d0             	movzwl %ax,%edx
  102d6b:	66 31 c0             	xor    %ax,%ax
  102d6e:	80 cc 8e             	or     $0x8e,%ah
  102d71:	81 ca 00 00 08 00    	or     $0x80000,%edx
  102d77:	a3 fc 8c 16 00       	mov    %eax,0x168cfc
  102d7c:	b8 2e 03 10 00       	mov    $0x10032e,%eax
  102d81:	89 15 f8 8c 16 00    	mov    %edx,0x168cf8
  102d87:	0f b7 d0             	movzwl %ax,%edx
  102d8a:	81 ca 00 00 08 00    	or     $0x80000,%edx
  102d90:	66 31 c0             	xor    %ax,%ax
  102d93:	83 ec 0c             	sub    $0xc,%esp
  102d96:	80 cc 8e             	or     $0x8e,%ah
  102d99:	89 15 00 8d 16 00    	mov    %edx,0x168d00
  102d9f:	a3 04 8d 16 00       	mov    %eax,0x168d04
  102da4:	b8 30 36 10 00       	mov    $0x103630,%eax
  102da9:	0f b7 d0             	movzwl %ax,%edx
  102dac:	66 31 c0             	xor    %ax,%ax
  102daf:	80 cc 8e             	or     $0x8e,%ah
  102db2:	81 ca 00 00 08 00    	or     $0x80000,%edx
  102db8:	a3 0c 8d 16 00       	mov    %eax,0x168d0c
  102dbd:	b8 50 36 10 00       	mov    $0x103650,%eax
  102dc2:	89 15 08 8d 16 00    	mov    %edx,0x168d08
  102dc8:	0f b7 d0             	movzwl %ax,%edx
  102dcb:	66 31 c0             	xor    %ax,%ax
  102dce:	80 cc 8e             	or     $0x8e,%ah
  102dd1:	81 ca 00 00 08 00    	or     $0x80000,%edx
  102dd7:	a3 14 8d 16 00       	mov    %eax,0x168d14
  102ddc:	b8 70 36 10 00       	mov    $0x103670,%eax
  102de1:	89 15 10 8d 16 00    	mov    %edx,0x168d10
  102de7:	0f b7 d0             	movzwl %ax,%edx
  102dea:	66 31 c0             	xor    %ax,%ax
  102ded:	80 cc 8e             	or     $0x8e,%ah
  102df0:	81 ca 00 00 08 00    	or     $0x80000,%edx
  102df6:	a3 1c 8d 16 00       	mov    %eax,0x168d1c
  102dfb:	b8 c0 23 10 00       	mov    $0x1023c0,%eax
  102e00:	89 15 18 8d 16 00    	mov    %edx,0x168d18
  102e06:	0f b7 d0             	movzwl %ax,%edx
  102e09:	66 31 c0             	xor    %ax,%ax
  102e0c:	81 ca 00 00 08 00    	or     $0x80000,%edx
  102e12:	80 cc 8e             	or     $0x8e,%ah
  102e15:	89 15 38 8d 16 00    	mov    %edx,0x168d38
  102e1b:	a3 3c 8d 16 00       	mov    %eax,0x168d3c
  102e20:	89 15 30 8d 16 00    	mov    %edx,0x168d30
  102e26:	68 c8 80 16 00       	push   $0x1680c8
  102e2b:	a3 34 8d 16 00       	mov    %eax,0x168d34
  102e30:	e8 68 d4 ff ff       	call   10029d <lidt>
  102e35:	83 c4 1c             	add    $0x1c,%esp
  102e38:	c3                   	ret    
  102e39:	8d b4 26 00 00 00 00 	lea    0x0(%esi,%eiz,1),%esi

00102e40 <makeFlagByte>:
  102e40:	c1 e2 05             	shl    $0x5,%edx
  102e43:	c1 e0 07             	shl    $0x7,%eax
  102e46:	83 e2 60             	and    $0x60,%edx
  102e49:	09 d0                	or     %edx,%eax
  102e4b:	83 c8 0e             	or     $0xe,%eax
  102e4e:	c3                   	ret    
  102e4f:	90                   	nop

00102e50 <idtSetEntry>:
  102e50:	53                   	push   %ebx
  102e51:	8b 5c 24 0c          	mov    0xc(%esp),%ebx
  102e55:	c1 e1 10             	shl    $0x10,%ecx
  102e58:	8d 04 c3             	lea    (%ebx,%eax,8),%eax
  102e5b:	0f b7 da             	movzwl %dx,%ebx
  102e5e:	66 31 d2             	xor    %dx,%dx
  102e61:	09 d9                	or     %ebx,%ecx
  102e63:	89 08                	mov    %ecx,(%eax)
  102e65:	8b 4c 24 08          	mov    0x8(%esp),%ecx
  102e69:	c1 e1 08             	shl    $0x8,%ecx
  102e6c:	09 ca                	or     %ecx,%edx
  102e6e:	89 50 04             	mov    %edx,0x4(%eax)
  102e71:	5b                   	pop    %ebx
  102e72:	c3                   	ret    
  102e73:	8d b6 00 00 00 00    	lea    0x0(%esi),%esi
  102e79:	8d bc 27 00 00 00 00 	lea    0x0(%edi,%eiz,1),%edi

00102e80 <abort>:
  102e80:	83 ec 18             	sub    $0x18,%esp
  102e83:	68 6c d1 11 00       	push   $0x11d16c
  102e88:	e8 73 e4 ff ff       	call   101300 <printf>
  102e8d:	83 c4 10             	add    $0x10,%esp
  102e90:	eb fe                	jmp    102e90 <abort+0x10>
  102e92:	8d b4 26 00 00 00 00 	lea    0x0(%esi,%eiz,1),%esi
  102e99:	8d bc 27 00 00 00 00 	lea    0x0(%edi,%eiz,1),%edi

00102ea0 <StrToInt>:
  102ea0:	55                   	push   %ebp
  102ea1:	57                   	push   %edi
  102ea2:	56                   	push   %esi
  102ea3:	53                   	push   %ebx
  102ea4:	8b 74 24 14          	mov    0x14(%esp),%esi
  102ea8:	85 f6                	test   %esi,%esi
  102eaa:	0f 84 90 00 00 00    	je     102f40 <StrToInt+0xa0>
  102eb0:	80 3e 00             	cmpb   $0x0,(%esi)
  102eb3:	0f 84 90 00 00 00    	je     102f49 <StrToInt+0xa9>
  102eb9:	31 c0                	xor    %eax,%eax
  102ebb:	90                   	nop
  102ebc:	8d 74 26 00          	lea    0x0(%esi,%eiz,1),%esi
  102ec0:	83 c0 01             	add    $0x1,%eax
  102ec3:	80 3c 06 00          	cmpb   $0x0,(%esi,%eax,1)
  102ec7:	75 f7                	jne    102ec0 <StrToInt+0x20>
  102ec9:	85 c0                	test   %eax,%eax
  102ecb:	89 c5                	mov    %eax,%ebp
  102ecd:	78 71                	js     102f40 <StrToInt+0xa0>
  102ecf:	31 d2                	xor    %edx,%edx
  102ed1:	bb 01 00 00 00       	mov    $0x1,%ebx
  102ed6:	8d 76 00             	lea    0x0(%esi),%esi
  102ed9:	8d bc 27 00 00 00 00 	lea    0x0(%edi,%eiz,1),%edi
  102ee0:	8d 1c 9b             	lea    (%ebx,%ebx,4),%ebx
  102ee3:	83 c2 01             	add    $0x1,%edx
  102ee6:	01 db                	add    %ebx,%ebx
  102ee8:	39 d0                	cmp    %edx,%eax
  102eea:	7d f4                	jge    102ee0 <StrToInt+0x40>
  102eec:	89 d8                	mov    %ebx,%eax
  102eee:	ba 1f 85 eb 51       	mov    $0x51eb851f,%edx
  102ef3:	c1 fb 1f             	sar    $0x1f,%ebx
  102ef6:	f7 ea                	imul   %edx
  102ef8:	31 ff                	xor    %edi,%edi
  102efa:	c1 fa 05             	sar    $0x5,%edx
  102efd:	89 d1                	mov    %edx,%ecx
  102eff:	29 d9                	sub    %ebx,%ecx
  102f01:	31 db                	xor    %ebx,%ebx
  102f03:	8d b6 00 00 00 00    	lea    0x0(%esi),%esi
  102f09:	8d bc 27 00 00 00 00 	lea    0x0(%edi,%eiz,1),%edi
  102f10:	0f be 04 1e          	movsbl (%esi,%ebx,1),%eax
  102f14:	83 c3 01             	add    $0x1,%ebx
  102f17:	83 e8 30             	sub    $0x30,%eax
  102f1a:	0f af c1             	imul   %ecx,%eax
  102f1d:	01 c7                	add    %eax,%edi
  102f1f:	b8 67 66 66 66       	mov    $0x66666667,%eax
  102f24:	f7 e9                	imul   %ecx
  102f26:	c1 f9 1f             	sar    $0x1f,%ecx
  102f29:	c1 fa 02             	sar    $0x2,%edx
  102f2c:	29 ca                	sub    %ecx,%edx
  102f2e:	39 eb                	cmp    %ebp,%ebx
  102f30:	89 d1                	mov    %edx,%ecx
  102f32:	7e dc                	jle    102f10 <StrToInt+0x70>
  102f34:	5b                   	pop    %ebx
  102f35:	89 f8                	mov    %edi,%eax
  102f37:	5e                   	pop    %esi
  102f38:	5f                   	pop    %edi
  102f39:	5d                   	pop    %ebp
  102f3a:	c3                   	ret    
  102f3b:	90                   	nop
  102f3c:	8d 74 26 00          	lea    0x0(%esi,%eiz,1),%esi
  102f40:	31 ff                	xor    %edi,%edi
  102f42:	5b                   	pop    %ebx
  102f43:	89 f8                	mov    %edi,%eax
  102f45:	5e                   	pop    %esi
  102f46:	5f                   	pop    %edi
  102f47:	5d                   	pop    %ebp
  102f48:	c3                   	ret    
  102f49:	bb 0a 00 00 00       	mov    $0xa,%ebx
  102f4e:	31 ed                	xor    %ebp,%ebp
  102f50:	eb 9a                	jmp    102eec <StrToInt+0x4c>
  102f52:	8d b4 26 00 00 00 00 	lea    0x0(%esi,%eiz,1),%esi
  102f59:	8d bc 27 00 00 00 00 	lea    0x0(%edi,%eiz,1),%edi

00102f60 <divByZero_handler>:
  102f60:	83 ec 18             	sub    $0x18,%esp
  102f63:	68 b4 62 14 00       	push   $0x1462b4
  102f68:	e8 93 e3 ff ff       	call   101300 <printf>
  102f6d:	f4                   	hlt    
  102f6e:	e8 4d fd 00 00       	call   112cc0 <Shell_Double_buffer>
  102f73:	83 c4 10             	add    $0x10,%esp
  102f76:	eb fe                	jmp    102f76 <divByZero_handler+0x16>
  102f78:	90                   	nop
  102f79:	8d b4 26 00 00 00 00 	lea    0x0(%esi,%eiz,1),%esi

00102f80 <debug_handler>:
  102f80:	83 ec 14             	sub    $0x14,%esp
  102f83:	0f b6 05 23 00 e0 fe 	movzbl 0xfee00023,%eax
  102f8a:	50                   	push   %eax
  102f8b:	68 bc 62 14 00       	push   $0x1462bc
  102f90:	e8 6b e3 ff ff       	call   101300 <printf>
  102f95:	f4                   	hlt    
  102f96:	cf                   	iret   
  102f97:	83 c4 1c             	add    $0x1c,%esp
  102f9a:	c3                   	ret    
  102f9b:	90                   	nop
  102f9c:	8d 74 26 00          	lea    0x0(%esi,%eiz,1),%esi

00102fa0 <NMI_handler>:
  102fa0:	83 ec 18             	sub    $0x18,%esp
  102fa3:	68 c7 62 14 00       	push   $0x1462c7
  102fa8:	e8 53 e3 ff ff       	call   101300 <printf>
  102fad:	f4                   	hlt    
  102fae:	e8 0d fd 00 00       	call   112cc0 <Shell_Double_buffer>
  102fb3:	83 c4 10             	add    $0x10,%esp
  102fb6:	eb fe                	jmp    102fb6 <NMI_handler+0x16>
  102fb8:	90                   	nop
  102fb9:	8d b4 26 00 00 00 00 	lea    0x0(%esi,%eiz,1),%esi

00102fc0 <breakpoint_handler>:
  102fc0:	83 ec 18             	sub    $0x18,%esp
  102fc3:	68 cf 62 14 00       	push   $0x1462cf
  102fc8:	e8 33 e3 ff ff       	call   101300 <printf>
  102fcd:	f4                   	hlt    
  102fce:	e8 ed fc 00 00       	call   112cc0 <Shell_Double_buffer>
  102fd3:	83 c4 10             	add    $0x10,%esp
  102fd6:	eb fe                	jmp    102fd6 <breakpoint_handler+0x16>
  102fd8:	90                   	nop
  102fd9:	8d b4 26 00 00 00 00 	lea    0x0(%esi,%eiz,1),%esi

00102fe0 <overflow_handler>:
  102fe0:	83 ec 18             	sub    $0x18,%esp
  102fe3:	68 d7 62 14 00       	push   $0x1462d7
  102fe8:	e8 13 e3 ff ff       	call   101300 <printf>
  102fed:	f4                   	hlt    
  102fee:	e8 cd fc 00 00       	call   112cc0 <Shell_Double_buffer>
  102ff3:	83 c4 10             	add    $0x10,%esp
  102ff6:	eb fe                	jmp    102ff6 <overflow_handler+0x16>
  102ff8:	90                   	nop
  102ff9:	8d b4 26 00 00 00 00 	lea    0x0(%esi,%eiz,1),%esi

00103000 <outOfBounds_handler>:
  103000:	83 ec 0c             	sub    $0xc,%esp
  103003:	e8 c8 d8 00 00       	call   1108d0 <Get_Scheduler>
  103008:	83 ec 08             	sub    $0x8,%esp
  10300b:	ff 30                	pushl  (%eax)
  10300d:	68 df 62 14 00       	push   $0x1462df
  103012:	e8 e9 e2 ff ff       	call   101300 <printf>
  103017:	f4                   	hlt    
  103018:	e8 a3 fc 00 00       	call   112cc0 <Shell_Double_buffer>
  10301d:	83 c4 10             	add    $0x10,%esp
  103020:	eb fe                	jmp    103020 <outOfBounds_handler+0x20>
  103022:	8d b4 26 00 00 00 00 	lea    0x0(%esi,%eiz,1),%esi
  103029:	8d bc 27 00 00 00 00 	lea    0x0(%edi,%eiz,1),%edi

00103030 <invalidInstr_handler>:
  103030:	83 ec 0c             	sub    $0xc,%esp
  103033:	e8 98 d8 00 00       	call   1108d0 <Get_Scheduler>
  103038:	83 ec 08             	sub    $0x8,%esp
  10303b:	ff 30                	pushl  (%eax)
  10303d:	68 ea 62 14 00       	push   $0x1462ea
  103042:	e8 b9 e2 ff ff       	call   101300 <printf>
  103047:	f4                   	hlt    
  103048:	83 c4 10             	add    $0x10,%esp
  10304b:	eb fe                	jmp    10304b <invalidInstr_handler+0x1b>
  10304d:	8d 76 00             	lea    0x0(%esi),%esi

00103050 <noCoprocessor_handler>:
  103050:	83 ec 18             	sub    $0x18,%esp
  103053:	68 f5 62 14 00       	push   $0x1462f5
  103058:	e8 a3 e2 ff ff       	call   101300 <printf>
  10305d:	f4                   	hlt    
  10305e:	e8 5d fc 00 00       	call   112cc0 <Shell_Double_buffer>
  103063:	83 c4 10             	add    $0x10,%esp
  103066:	eb fe                	jmp    103066 <noCoprocessor_handler+0x16>
  103068:	90                   	nop
  103069:	8d b4 26 00 00 00 00 	lea    0x0(%esi,%eiz,1),%esi

00103070 <doubleFault_handler>:
  103070:	83 ec 18             	sub    $0x18,%esp
  103073:	68 fd 62 14 00       	push   $0x1462fd
  103078:	e8 83 e2 ff ff       	call   101300 <printf>
  10307d:	e8 3e fc 00 00       	call   112cc0 <Shell_Double_buffer>
  103082:	83 c4 10             	add    $0x10,%esp
  103085:	eb fe                	jmp    103085 <doubleFault_handler+0x15>
  103087:	89 f6                	mov    %esi,%esi
  103089:	8d bc 27 00 00 00 00 	lea    0x0(%edi,%eiz,1),%edi

00103090 <coprocessor_handler>:
  103090:	83 ec 18             	sub    $0x18,%esp
  103093:	68 05 63 14 00       	push   $0x146305
  103098:	e8 63 e2 ff ff       	call   101300 <printf>
  10309d:	f4                   	hlt    
  10309e:	e8 1d fc 00 00       	call   112cc0 <Shell_Double_buffer>
  1030a3:	83 c4 10             	add    $0x10,%esp
  1030a6:	eb fe                	jmp    1030a6 <coprocessor_handler+0x16>
  1030a8:	90                   	nop
  1030a9:	8d b4 26 00 00 00 00 	lea    0x0(%esi,%eiz,1),%esi

001030b0 <badTSS_handler>:
  1030b0:	83 ec 18             	sub    $0x18,%esp
  1030b3:	68 0e 63 14 00       	push   $0x14630e
  1030b8:	e8 43 e2 ff ff       	call   101300 <printf>
  1030bd:	f4                   	hlt    
  1030be:	e8 fd fb 00 00       	call   112cc0 <Shell_Double_buffer>
  1030c3:	83 c4 10             	add    $0x10,%esp
  1030c6:	eb fe                	jmp    1030c6 <badTSS_handler+0x16>
  1030c8:	90                   	nop
  1030c9:	8d b4 26 00 00 00 00 	lea    0x0(%esi,%eiz,1),%esi

001030d0 <segmentNotPresent_handler>:
  1030d0:	83 ec 18             	sub    $0x18,%esp
  1030d3:	68 17 63 14 00       	push   $0x146317
  1030d8:	e8 23 e2 ff ff       	call   101300 <printf>
  1030dd:	f4                   	hlt    
  1030de:	e8 dd fb 00 00       	call   112cc0 <Shell_Double_buffer>
  1030e3:	83 c4 10             	add    $0x10,%esp
  1030e6:	eb fe                	jmp    1030e6 <segmentNotPresent_handler+0x16>
  1030e8:	90                   	nop
  1030e9:	8d b4 26 00 00 00 00 	lea    0x0(%esi,%eiz,1),%esi

001030f0 <stackFault_handler>:
  1030f0:	83 ec 18             	sub    $0x18,%esp
  1030f3:	68 20 63 14 00       	push   $0x146320
  1030f8:	e8 03 e2 ff ff       	call   101300 <printf>
  1030fd:	f4                   	hlt    
  1030fe:	e8 bd fb 00 00       	call   112cc0 <Shell_Double_buffer>
  103103:	83 c4 10             	add    $0x10,%esp
  103106:	eb fe                	jmp    103106 <stackFault_handler+0x16>
  103108:	90                   	nop
  103109:	8d b4 26 00 00 00 00 	lea    0x0(%esi,%eiz,1),%esi

00103110 <generalProtectionFault_handler>:
  103110:	83 ec 0c             	sub    $0xc,%esp
  103113:	f4                   	hlt    
  103114:	e8 a7 fb 00 00       	call   112cc0 <Shell_Double_buffer>
  103119:	eb fe                	jmp    103119 <generalProtectionFault_handler+0x9>
  10311b:	90                   	nop
  10311c:	8d 74 26 00          	lea    0x0(%esi,%eiz,1),%esi

00103120 <pageFault_caller>:
  103120:	83 ec 18             	sub    $0x18,%esp
  103123:	68 29 63 14 00       	push   $0x146329
  103128:	e8 d3 e1 ff ff       	call   101300 <printf>
  10312d:	f4                   	hlt    
  10312e:	83 c4 1c             	add    $0x1c,%esp
  103131:	c3                   	ret    
  103132:	8d b4 26 00 00 00 00 	lea    0x0(%esi,%eiz,1),%esi
  103139:	8d bc 27 00 00 00 00 	lea    0x0(%edi,%eiz,1),%edi

00103140 <unknownInterrupt_handler>:
  103140:	83 ec 18             	sub    $0x18,%esp
  103143:	68 35 63 14 00       	push   $0x146335
  103148:	e8 b3 e1 ff ff       	call   101300 <printf>
  10314d:	f4                   	hlt    
  10314e:	e8 6d fb 00 00       	call   112cc0 <Shell_Double_buffer>
  103153:	83 c4 10             	add    $0x10,%esp
  103156:	eb fe                	jmp    103156 <unknownInterrupt_handler+0x16>
  103158:	90                   	nop
  103159:	8d b4 26 00 00 00 00 	lea    0x0(%esi,%eiz,1),%esi

00103160 <coprocessorFault_handler>:
  103160:	83 ec 18             	sub    $0x18,%esp
  103163:	68 3e 63 14 00       	push   $0x14633e
  103168:	e8 93 e1 ff ff       	call   101300 <printf>
  10316d:	f4                   	hlt    
  10316e:	e8 4d fb 00 00       	call   112cc0 <Shell_Double_buffer>
  103173:	83 c4 10             	add    $0x10,%esp
  103176:	eb fe                	jmp    103176 <coprocessorFault_handler+0x16>
  103178:	90                   	nop
  103179:	8d b4 26 00 00 00 00 	lea    0x0(%esi,%eiz,1),%esi

00103180 <alignmentCheck_handler>:
  103180:	83 ec 18             	sub    $0x18,%esp
  103183:	68 47 63 14 00       	push   $0x146347
  103188:	e8 73 e1 ff ff       	call   101300 <printf>
  10318d:	f4                   	hlt    
  10318e:	e8 2d fb 00 00       	call   112cc0 <Shell_Double_buffer>
  103193:	83 c4 10             	add    $0x10,%esp
  103196:	eb fe                	jmp    103196 <alignmentCheck_handler+0x16>
  103198:	90                   	nop
  103199:	8d b4 26 00 00 00 00 	lea    0x0(%esi,%eiz,1),%esi

001031a0 <machineCheck_handler>:
  1031a0:	83 ec 18             	sub    $0x18,%esp
  1031a3:	68 50 63 14 00       	push   $0x146350
  1031a8:	e8 53 e1 ff ff       	call   101300 <printf>
  1031ad:	f4                   	hlt    
  1031ae:	e8 0d fb 00 00       	call   112cc0 <Shell_Double_buffer>
  1031b3:	83 c4 10             	add    $0x10,%esp
  1031b6:	eb fe                	jmp    1031b6 <machineCheck_handler+0x16>
  1031b8:	90                   	nop
  1031b9:	8d b4 26 00 00 00 00 	lea    0x0(%esi,%eiz,1),%esi

001031c0 <reserved_handler>:
  1031c0:	83 ec 18             	sub    $0x18,%esp
  1031c3:	68 59 63 14 00       	push   $0x146359
  1031c8:	e8 33 e1 ff ff       	call   101300 <printf>
  1031cd:	f4                   	hlt    
  1031ce:	e8 ed fa 00 00       	call   112cc0 <Shell_Double_buffer>
  1031d3:	83 c4 10             	add    $0x10,%esp
  1031d6:	eb fe                	jmp    1031d6 <reserved_handler+0x16>
  1031d8:	90                   	nop
  1031d9:	8d b4 26 00 00 00 00 	lea    0x0(%esi,%eiz,1),%esi

001031e0 <PIT_handler>:
  1031e0:	fa                   	cli    
  1031e1:	cf                   	iret   
  1031e2:	c3                   	ret    
  1031e3:	8d b6 00 00 00 00    	lea    0x0(%esi),%esi
  1031e9:	8d bc 27 00 00 00 00 	lea    0x0(%edi,%eiz,1),%edi

001031f0 <keyboardInterrupt_handler>:
  1031f0:	e4 60                	in     $0x60,%al
  1031f2:	84 c0                	test   %al,%al
  1031f4:	0f b6 d0             	movzbl %al,%edx
  1031f7:	0f 88 b3 00 00 00    	js     1032b0 <keyboardInterrupt_handler+0xc0>
  1031fd:	a1 dc 96 16 00       	mov    0x1696dc,%eax
  103202:	8b 04 90             	mov    (%eax,%edx,4),%eax
  103205:	85 c0                	test   %eax,%eax
  103207:	74 67                	je     103270 <keyboardInterrupt_handler+0x80>
  103209:	83 ec 18             	sub    $0x18,%esp
  10320c:	50                   	push   %eax
  10320d:	e8 fe 64 00 00       	call   109710 <keyboard_scancodes>
  103212:	83 c4 10             	add    $0x10,%esp
  103215:	83 f8 0d             	cmp    $0xd,%eax
  103218:	0f 84 72 01 00 00    	je     103390 <keyboardInterrupt_handler+0x1a0>
  10321e:	83 f8 08             	cmp    $0x8,%eax
  103221:	0f 84 29 01 00 00    	je     103350 <keyboardInterrupt_handler+0x160>
  103227:	8b 15 4c 89 16 00    	mov    0x16894c,%edx
  10322d:	88 02                	mov    %al,(%edx)
  10322f:	8b 0d 4c 89 16 00    	mov    0x16894c,%ecx
  103235:	8d 51 01             	lea    0x1(%ecx),%edx
  103238:	8b 0d 64 96 16 00    	mov    0x169664,%ecx
  10323e:	89 15 4c 89 16 00    	mov    %edx,0x16894c
  103244:	83 c1 01             	add    $0x1,%ecx
  103247:	89 0d 64 96 16 00    	mov    %ecx,0x169664
  10324d:	8b 0d 58 81 16 00    	mov    0x168158,%ecx
  103253:	39 ca                	cmp    %ecx,%edx
  103255:	0f 84 d5 00 00 00    	je     103330 <keyboardInterrupt_handler+0x140>
  10325b:	83 ec 0c             	sub    $0xc,%esp
  10325e:	0f be c0             	movsbl %al,%eax
  103261:	50                   	push   %eax
  103262:	e8 b9 e9 ff ff       	call   101c20 <_putchar>
  103267:	83 c4 10             	add    $0x10,%esp
  10326a:	83 c4 0c             	add    $0xc,%esp
  10326d:	f3 c3                	repz ret 
  10326f:	90                   	nop
  103270:	8b 04 95 20 d0 11 00 	mov    0x11d020(,%edx,4),%eax
  103277:	3d 01 40 00 00       	cmp    $0x4001,%eax
  10327c:	0f 84 8e 01 00 00    	je     103410 <keyboardInterrupt_handler+0x220>
  103282:	7e 4c                	jle    1032d0 <keyboardInterrupt_handler+0xe0>
  103284:	3d 06 40 00 00       	cmp    $0x4006,%eax
  103289:	0f 84 71 01 00 00    	je     103400 <keyboardInterrupt_handler+0x210>
  10328f:	3d 10 40 00 00       	cmp    $0x4010,%eax
  103294:	0f 84 16 01 00 00    	je     1033b0 <keyboardInterrupt_handler+0x1c0>
  10329a:	3d 02 40 00 00       	cmp    $0x4002,%eax
  10329f:	75 cc                	jne    10326d <keyboardInterrupt_handler+0x7d>
  1032a1:	c7 05 e8 96 16 00 01 	movl   $0x1,0x1696e8
  1032a8:	00 00 00 
  1032ab:	c3                   	ret    
  1032ac:	8d 74 26 00          	lea    0x0(%esi,%eiz,1),%esi
  1032b0:	8b 04 95 20 ce 11 00 	mov    0x11ce20(,%edx,4),%eax
  1032b7:	3d 02 40 00 00       	cmp    $0x4002,%eax
  1032bc:	74 07                	je     1032c5 <keyboardInterrupt_handler+0xd5>
  1032be:	3d 06 40 00 00       	cmp    $0x4006,%eax
  1032c3:	75 a8                	jne    10326d <keyboardInterrupt_handler+0x7d>
  1032c5:	c7 05 e8 96 16 00 00 	movl   $0x0,0x1696e8
  1032cc:	00 00 00 
  1032cf:	c3                   	ret    
  1032d0:	3d 00 11 00 00       	cmp    $0x1100,%eax
  1032d5:	0f 84 c5 00 00 00    	je     1033a0 <keyboardInterrupt_handler+0x1b0>
  1032db:	3d 0f 30 00 00       	cmp    $0x300f,%eax
  1032e0:	75 8b                	jne    10326d <keyboardInterrupt_handler+0x7d>
  1032e2:	a1 f0 96 16 00       	mov    0x1696f0,%eax
  1032e7:	85 c0                	test   %eax,%eax
  1032e9:	0f 94 c0             	sete   %al
  1032ec:	0f b6 d0             	movzbl %al,%edx
  1032ef:	83 c8 04             	or     $0x4,%eax
  1032f2:	89 15 f0 96 16 00    	mov    %edx,0x1696f0
  1032f8:	8b 15 f4 96 16 00    	mov    0x1696f4,%edx
  1032fe:	85 d2                	test   %edx,%edx
  103300:	ba 00 00 00 00       	mov    $0x0,%edx
  103305:	0f 45 d0             	cmovne %eax,%edx
  103308:	90                   	nop
  103309:	8d b4 26 00 00 00 00 	lea    0x0(%esi,%eiz,1),%esi
  103310:	e4 64                	in     $0x64,%al
  103312:	a8 02                	test   $0x2,%al
  103314:	75 fa                	jne    103310 <keyboardInterrupt_handler+0x120>
  103316:	b8 ed ff ff ff       	mov    $0xffffffed,%eax
  10331b:	e6 60                	out    %al,$0x60
  10331d:	8d 76 00             	lea    0x0(%esi),%esi
  103320:	e4 64                	in     $0x64,%al
  103322:	a8 02                	test   $0x2,%al
  103324:	75 fa                	jne    103320 <keyboardInterrupt_handler+0x130>
  103326:	89 d0                	mov    %edx,%eax
  103328:	e6 60                	out    %al,$0x60
  10332a:	c3                   	ret    
  10332b:	90                   	nop
  10332c:	8d 74 26 00          	lea    0x0(%esi,%eiz,1),%esi
  103330:	8b 15 04 94 16 00    	mov    0x169404,%edx
  103336:	89 15 4c 89 16 00    	mov    %edx,0x16894c
  10333c:	e9 1a ff ff ff       	jmp    10325b <keyboardInterrupt_handler+0x6b>
  103341:	eb 0d                	jmp    103350 <keyboardInterrupt_handler+0x160>
  103343:	90                   	nop
  103344:	90                   	nop
  103345:	90                   	nop
  103346:	90                   	nop
  103347:	90                   	nop
  103348:	90                   	nop
  103349:	90                   	nop
  10334a:	90                   	nop
  10334b:	90                   	nop
  10334c:	90                   	nop
  10334d:	90                   	nop
  10334e:	90                   	nop
  10334f:	90                   	nop
  103350:	a1 64 96 16 00       	mov    0x169664,%eax
  103355:	85 c0                	test   %eax,%eax
  103357:	0f 84 0d ff ff ff    	je     10326a <keyboardInterrupt_handler+0x7a>
  10335d:	a1 4c 89 16 00       	mov    0x16894c,%eax
  103362:	8d 50 ff             	lea    -0x1(%eax),%edx
  103365:	89 15 4c 89 16 00    	mov    %edx,0x16894c
  10336b:	c6 40 ff 00          	movb   $0x0,-0x1(%eax)
  10336f:	a1 64 96 16 00       	mov    0x169664,%eax
  103374:	83 e8 01             	sub    $0x1,%eax
  103377:	a3 64 96 16 00       	mov    %eax,0x169664
  10337c:	83 c4 0c             	add    $0xc,%esp
  10337f:	e9 8c eb ff ff       	jmp    101f10 <backspace>
  103384:	8d b6 00 00 00 00    	lea    0x0(%esi),%esi
  10338a:	8d bf 00 00 00 00    	lea    0x0(%edi),%edi
  103390:	c7 05 60 96 16 00 01 	movl   $0x1,0x169660
  103397:	00 00 00 
  10339a:	e9 cb fe ff ff       	jmp    10326a <keyboardInterrupt_handler+0x7a>
  10339f:	90                   	nop
  1033a0:	c7 05 58 96 16 00 01 	movl   $0x1,0x169658
  1033a7:	00 00 00 
  1033aa:	c3                   	ret    
  1033ab:	90                   	nop
  1033ac:	8d 74 26 00          	lea    0x0(%esi,%eiz,1),%esi
  1033b0:	8b 15 f8 96 16 00    	mov    0x1696f8,%edx
  1033b6:	31 c0                	xor    %eax,%eax
  1033b8:	8b 0d f4 96 16 00    	mov    0x1696f4,%ecx
  1033be:	85 d2                	test   %edx,%edx
  1033c0:	8b 15 f0 96 16 00    	mov    0x1696f0,%edx
  1033c6:	0f 94 c0             	sete   %al
  1033c9:	a3 f8 96 16 00       	mov    %eax,0x1696f8
  1033ce:	89 d0                	mov    %edx,%eax
  1033d0:	83 e2 04             	and    $0x4,%edx
  1033d3:	83 c8 04             	or     $0x4,%eax
  1033d6:	85 c9                	test   %ecx,%ecx
  1033d8:	0f 45 d0             	cmovne %eax,%edx
  1033db:	90                   	nop
  1033dc:	8d 74 26 00          	lea    0x0(%esi,%eiz,1),%esi
  1033e0:	e4 64                	in     $0x64,%al
  1033e2:	a8 02                	test   $0x2,%al
  1033e4:	75 fa                	jne    1033e0 <keyboardInterrupt_handler+0x1f0>
  1033e6:	b8 ed ff ff ff       	mov    $0xffffffed,%eax
  1033eb:	e6 60                	out    %al,$0x60
  1033ed:	8d 76 00             	lea    0x0(%esi),%esi
  1033f0:	e4 64                	in     $0x64,%al
  1033f2:	a8 02                	test   $0x2,%al
  1033f4:	75 fa                	jne    1033f0 <keyboardInterrupt_handler+0x200>
  1033f6:	e9 2b ff ff ff       	jmp    103326 <keyboardInterrupt_handler+0x136>
  1033fb:	90                   	nop
  1033fc:	8d 74 26 00          	lea    0x0(%esi,%eiz,1),%esi
  103400:	c7 05 e8 96 16 00 02 	movl   $0x2,0x1696e8
  103407:	00 00 00 
  10340a:	c3                   	ret    
  10340b:	90                   	nop
  10340c:	8d 74 26 00          	lea    0x0(%esi,%eiz,1),%esi
  103410:	a1 f4 96 16 00       	mov    0x1696f4,%eax
  103415:	31 d2                	xor    %edx,%edx
  103417:	85 c0                	test   %eax,%eax
  103419:	0f 94 c2             	sete   %dl
  10341c:	89 15 f4 96 16 00    	mov    %edx,0x1696f4
  103422:	8b 15 f0 96 16 00    	mov    0x1696f0,%edx
  103428:	89 d1                	mov    %edx,%ecx
  10342a:	83 e2 04             	and    $0x4,%edx
  10342d:	83 c9 04             	or     $0x4,%ecx
  103430:	85 c0                	test   %eax,%eax
  103432:	0f 44 d1             	cmove  %ecx,%edx
  103435:	8d 74 26 00          	lea    0x0(%esi,%eiz,1),%esi
  103439:	8d bc 27 00 00 00 00 	lea    0x0(%edi,%eiz,1),%edi
  103440:	e4 64                	in     $0x64,%al
  103442:	a8 02                	test   $0x2,%al
  103444:	75 fa                	jne    103440 <keyboardInterrupt_handler+0x250>
  103446:	b8 ed ff ff ff       	mov    $0xffffffed,%eax
  10344b:	e6 60                	out    %al,$0x60
  10344d:	8d 76 00             	lea    0x0(%esi),%esi
  103450:	e4 64                	in     $0x64,%al
  103452:	a8 02                	test   $0x2,%al
  103454:	75 fa                	jne    103450 <keyboardInterrupt_handler+0x260>
  103456:	e9 cb fe ff ff       	jmp    103326 <keyboardInterrupt_handler+0x136>
  10345b:	90                   	nop
  10345c:	8d 74 26 00          	lea    0x0(%esi,%eiz,1),%esi

00103460 <cascade_handler>:
  103460:	83 ec 18             	sub    $0x18,%esp
  103463:	fa                   	cli    
  103464:	68 62 63 14 00       	push   $0x146362
  103469:	e8 92 de ff ff       	call   101300 <printf>
  10346e:	83 c4 10             	add    $0x10,%esp
  103471:	eb fe                	jmp    103471 <cascade_handler+0x11>
  103473:	8d b6 00 00 00 00    	lea    0x0(%esi),%esi
  103479:	8d bc 27 00 00 00 00 	lea    0x0(%edi,%eiz,1),%edi

00103480 <COM2_handler>:
  103480:	83 ec 18             	sub    $0x18,%esp
  103483:	fa                   	cli    
  103484:	68 6f 63 14 00       	push   $0x14636f
  103489:	e8 72 de ff ff       	call   101300 <printf>
  10348e:	83 c4 10             	add    $0x10,%esp
  103491:	eb fe                	jmp    103491 <COM2_handler+0x11>
  103493:	8d b6 00 00 00 00    	lea    0x0(%esi),%esi
  103499:	8d bc 27 00 00 00 00 	lea    0x0(%edi,%eiz,1),%edi

001034a0 <COM1_handler>:
  1034a0:	83 ec 18             	sub    $0x18,%esp
  1034a3:	fa                   	cli    
  1034a4:	68 7c 63 14 00       	push   $0x14637c
  1034a9:	e8 52 de ff ff       	call   101300 <printf>
  1034ae:	83 c4 10             	add    $0x10,%esp
  1034b1:	eb fe                	jmp    1034b1 <COM1_handler+0x11>
  1034b3:	8d b6 00 00 00 00    	lea    0x0(%esi),%esi
  1034b9:	8d bc 27 00 00 00 00 	lea    0x0(%edi,%eiz,1),%edi

001034c0 <LPT2_handler>:
  1034c0:	83 ec 18             	sub    $0x18,%esp
  1034c3:	fa                   	cli    
  1034c4:	68 89 63 14 00       	push   $0x146389
  1034c9:	e8 32 de ff ff       	call   101300 <printf>
  1034ce:	83 c4 10             	add    $0x10,%esp
  1034d1:	eb fe                	jmp    1034d1 <LPT2_handler+0x11>
  1034d3:	8d b6 00 00 00 00    	lea    0x0(%esi),%esi
  1034d9:	8d bc 27 00 00 00 00 	lea    0x0(%edi,%eiz,1),%edi

001034e0 <floppyDisk_handler>:
  1034e0:	83 ec 18             	sub    $0x18,%esp
  1034e3:	fa                   	cli    
  1034e4:	68 96 63 14 00       	push   $0x146396
  1034e9:	e8 12 de ff ff       	call   101300 <printf>
  1034ee:	83 c4 10             	add    $0x10,%esp
  1034f1:	eb fe                	jmp    1034f1 <floppyDisk_handler+0x11>
  1034f3:	8d b6 00 00 00 00    	lea    0x0(%esi),%esi
  1034f9:	8d bc 27 00 00 00 00 	lea    0x0(%edi,%eiz,1),%edi

00103500 <LPT1_handler>:
  103500:	83 ec 18             	sub    $0x18,%esp
  103503:	fa                   	cli    
  103504:	68 a3 63 14 00       	push   $0x1463a3
  103509:	e8 f2 dd ff ff       	call   101300 <printf>
  10350e:	83 c4 10             	add    $0x10,%esp
  103511:	eb fe                	jmp    103511 <LPT1_handler+0x11>
  103513:	8d b6 00 00 00 00    	lea    0x0(%esi),%esi
  103519:	8d bc 27 00 00 00 00 	lea    0x0(%edi,%eiz,1),%edi

00103520 <RTC_handler>:
  103520:	83 ec 18             	sub    $0x18,%esp
  103523:	fa                   	cli    
  103524:	68 b0 63 14 00       	push   $0x1463b0
  103529:	e8 d2 dd ff ff       	call   101300 <printf>
  10352e:	83 c4 10             	add    $0x10,%esp
  103531:	eb fe                	jmp    103531 <RTC_handler+0x11>
  103533:	8d b6 00 00 00 00    	lea    0x0(%esi),%esi
  103539:	8d bc 27 00 00 00 00 	lea    0x0(%edi,%eiz,1),%edi

00103540 <periph1_handler>:
  103540:	83 ec 18             	sub    $0x18,%esp
  103543:	fa                   	cli    
  103544:	68 bd 63 14 00       	push   $0x1463bd
  103549:	e8 b2 dd ff ff       	call   101300 <printf>
  10354e:	83 c4 10             	add    $0x10,%esp
  103551:	eb fe                	jmp    103551 <periph1_handler+0x11>
  103553:	8d b6 00 00 00 00    	lea    0x0(%esi),%esi
  103559:	8d bc 27 00 00 00 00 	lea    0x0(%edi,%eiz,1),%edi

00103560 <periph2_handler>:
  103560:	83 ec 18             	sub    $0x18,%esp
  103563:	fa                   	cli    
  103564:	68 ca 63 14 00       	push   $0x1463ca
  103569:	e8 92 dd ff ff       	call   101300 <printf>
  10356e:	83 c4 10             	add    $0x10,%esp
  103571:	eb fe                	jmp    103571 <periph2_handler+0x11>
  103573:	8d b6 00 00 00 00    	lea    0x0(%esi),%esi
  103579:	8d bc 27 00 00 00 00 	lea    0x0(%edi,%eiz,1),%edi

00103580 <periph3_handler>:
  103580:	83 ec 18             	sub    $0x18,%esp
  103583:	fa                   	cli    
  103584:	68 d8 63 14 00       	push   $0x1463d8
  103589:	e8 72 dd ff ff       	call   101300 <printf>
  10358e:	83 c4 10             	add    $0x10,%esp
  103591:	eb fe                	jmp    103591 <periph3_handler+0x11>
  103593:	8d b6 00 00 00 00    	lea    0x0(%esi),%esi
  103599:	8d bc 27 00 00 00 00 	lea    0x0(%edi,%eiz,1),%edi

001035a0 <mouse_handler>:
  1035a0:	a1 d8 96 16 00       	mov    0x1696d8,%eax
  1035a5:	83 f8 02             	cmp    $0x2,%eax
  1035a8:	8d 90 d5 96 16 00    	lea    0x1696d5(%eax),%edx
  1035ae:	77 0f                	ja     1035bf <mouse_handler+0x1f>
  1035b0:	e4 60                	in     $0x60,%al
  1035b2:	88 02                	mov    %al,(%edx)
  1035b4:	83 c2 01             	add    $0x1,%edx
  1035b7:	81 fa d8 96 16 00    	cmp    $0x1696d8,%edx
  1035bd:	75 f1                	jne    1035b0 <mouse_handler+0x10>
  1035bf:	0f b6 05 d5 96 16 00 	movzbl 0x1696d5,%eax
  1035c6:	c7 05 d8 96 16 00 00 	movl   $0x0,0x1696d8
  1035cd:	00 00 00 
  1035d0:	84 c0                	test   %al,%al
  1035d2:	78 4c                	js     103620 <mouse_handler+0x80>
  1035d4:	a8 40                	test   $0x40,%al
  1035d6:	75 41                	jne    103619 <mouse_handler+0x79>
  1035d8:	a8 20                	test   $0x20,%al
  1035da:	75 12                	jne    1035ee <mouse_handler+0x4e>
  1035dc:	8b 15 04 96 16 00    	mov    0x169604,%edx
  1035e2:	81 ca 00 ff ff ff    	or     $0xffffff00,%edx
  1035e8:	89 15 04 96 16 00    	mov    %edx,0x169604
  1035ee:	a8 10                	test   $0x10,%al
  1035f0:	75 0f                	jne    103601 <mouse_handler+0x61>
  1035f2:	a1 00 96 16 00       	mov    0x169600,%eax
  1035f7:	0d 00 ff ff ff       	or     $0xffffff00,%eax
  1035fc:	a3 00 96 16 00       	mov    %eax,0x169600
  103601:	0f be 05 d6 96 16 00 	movsbl 0x1696d6,%eax
  103608:	a3 00 96 16 00       	mov    %eax,0x169600
  10360d:	0f be 05 d7 96 16 00 	movsbl 0x1696d7,%eax
  103614:	a3 04 96 16 00       	mov    %eax,0x169604
  103619:	f3 c3                	repz ret 
  10361b:	90                   	nop
  10361c:	8d 74 26 00          	lea    0x0(%esi,%eiz,1),%esi
  103620:	f3 c3                	repz ret 
  103622:	8d b4 26 00 00 00 00 	lea    0x0(%esi,%eiz,1),%esi
  103629:	8d bc 27 00 00 00 00 	lea    0x0(%edi,%eiz,1),%edi

00103630 <FPU_handler>:
  103630:	83 ec 18             	sub    $0x18,%esp
  103633:	fa                   	cli    
  103634:	68 e6 63 14 00       	push   $0x1463e6
  103639:	e8 c2 dc ff ff       	call   101300 <printf>
  10363e:	83 c4 10             	add    $0x10,%esp
  103641:	eb fe                	jmp    103641 <FPU_handler+0x11>
  103643:	8d b6 00 00 00 00    	lea    0x0(%esi),%esi
  103649:	8d bc 27 00 00 00 00 	lea    0x0(%edi,%eiz,1),%edi

00103650 <primaryHDD_handler>:
  103650:	83 ec 18             	sub    $0x18,%esp
  103653:	fa                   	cli    
  103654:	68 f4 63 14 00       	push   $0x1463f4
  103659:	e8 a2 dc ff ff       	call   101300 <printf>
  10365e:	83 c4 10             	add    $0x10,%esp
  103661:	eb fe                	jmp    103661 <primaryHDD_handler+0x11>
  103663:	8d b6 00 00 00 00    	lea    0x0(%esi),%esi
  103669:	8d bc 27 00 00 00 00 	lea    0x0(%edi,%eiz,1),%edi

00103670 <secondaryHDD_handler>:
  103670:	83 ec 18             	sub    $0x18,%esp
  103673:	fa                   	cli    
  103674:	68 02 64 14 00       	push   $0x146402
  103679:	e8 82 dc ff ff       	call   101300 <printf>
  10367e:	83 c4 10             	add    $0x10,%esp
  103681:	eb fe                	jmp    103681 <secondaryHDD_handler+0x11>
  103683:	8d b6 00 00 00 00    	lea    0x0(%esi),%esi
  103689:	8d bc 27 00 00 00 00 	lea    0x0(%edi,%eiz,1),%edi

00103690 <cpuHasMSR>:
  103690:	53                   	push   %ebx
  103691:	b8 01 00 00 00       	mov    $0x1,%eax
  103696:	0f a2                	cpuid  
  103698:	89 d0                	mov    %edx,%eax
  10369a:	c1 e8 05             	shr    $0x5,%eax
  10369d:	83 e0 01             	and    $0x1,%eax
  1036a0:	5b                   	pop    %ebx
  1036a1:	c3                   	ret    
  1036a2:	8d b4 26 00 00 00 00 	lea    0x0(%esi,%eiz,1),%esi
  1036a9:	8d bc 27 00 00 00 00 	lea    0x0(%edi,%eiz,1),%edi

001036b0 <cpuGetMSR>:
  1036b0:	8b 4c 24 04          	mov    0x4(%esp),%ecx
  1036b4:	0f 32                	rdmsr  
  1036b6:	8b 4c 24 08          	mov    0x8(%esp),%ecx
  1036ba:	89 01                	mov    %eax,(%ecx)
  1036bc:	8b 44 24 0c          	mov    0xc(%esp),%eax
  1036c0:	89 10                	mov    %edx,(%eax)
  1036c2:	c3                   	ret    
  1036c3:	8d b6 00 00 00 00    	lea    0x0(%esi),%esi
  1036c9:	8d bc 27 00 00 00 00 	lea    0x0(%edi,%eiz,1),%edi

001036d0 <cpuSetMSR>:
  1036d0:	8b 54 24 0c          	mov    0xc(%esp),%edx
  1036d4:	8b 44 24 08          	mov    0x8(%esp),%eax
  1036d8:	8b 4c 24 04          	mov    0x4(%esp),%ecx
  1036dc:	0f 30                	wrmsr  
  1036de:	c3                   	ret    
  1036df:	90                   	nop

001036e0 <BasicCPU_Init>:
  1036e0:	83 ec 18             	sub    $0x18,%esp
  1036e3:	b8 11 00 00 00       	mov    $0x11,%eax
  1036e8:	e6 20                	out    %al,$0x20
  1036ea:	e6 a0                	out    %al,$0xa0
  1036ec:	b8 20 00 00 00       	mov    $0x20,%eax
  1036f1:	e6 21                	out    %al,$0x21
  1036f3:	b8 28 00 00 00       	mov    $0x28,%eax
  1036f8:	e6 a1                	out    %al,$0xa1
  1036fa:	b8 04 00 00 00       	mov    $0x4,%eax
  1036ff:	e6 21                	out    %al,$0x21
  103701:	b8 02 00 00 00       	mov    $0x2,%eax
  103706:	e6 a1                	out    %al,$0xa1
  103708:	b8 01 00 00 00       	mov    $0x1,%eax
  10370d:	e6 21                	out    %al,$0x21
  10370f:	e6 a1                	out    %al,$0xa1
  103711:	31 c0                	xor    %eax,%eax
  103713:	e6 21                	out    %al,$0x21
  103715:	e6 a1                	out    %al,$0xa1
  103717:	b8 ff ff ff ff       	mov    $0xffffffff,%eax
  10371c:	e6 21                	out    %al,$0x21
  10371e:	e6 a1                	out    %al,$0xa1
  103720:	b9 1b 00 00 00       	mov    $0x1b,%ecx
  103725:	0f 32                	rdmsr  
  103727:	25 00 f0 ff ff       	and    $0xfffff000,%eax
  10372c:	50                   	push   %eax
  10372d:	a3 38 30 15 00       	mov    %eax,0x153038
  103732:	e8 49 3b 00 00       	call   107280 <BSP_init_LAPIC>
  103737:	e8 a4 27 01 00       	call   115ee0 <MPtables_parse>
  10373c:	e8 6f 3c 00 00       	call   1073b0 <MADTapic_parse>
  103741:	a1 10 84 16 00       	mov    0x168410,%eax
  103746:	83 c4 10             	add    $0x10,%esp
  103749:	8b 40 20             	mov    0x20(%eax),%eax
  10374c:	85 c0                	test   %eax,%eax
  10374e:	0f 95 c0             	setne  %al
  103751:	0f b6 c0             	movzbl %al,%eax
  103754:	a3 c4 93 16 00       	mov    %eax,0x1693c4
  103759:	fb                   	sti    
  10375a:	8b 15 08 77 16 00    	mov    0x167708,%edx
  103760:	85 d2                	test   %edx,%edx
  103762:	75 0a                	jne    10376e <BasicCPU_Init+0x8e>
  103764:	c7 05 08 77 16 00 01 	movl   $0x1,0x167708
  10376b:	00 00 00 
  10376e:	83 c4 0c             	add    $0xc,%esp
  103771:	eb 0d                	jmp    103780 <BootAPs>
  103773:	8d b6 00 00 00 00    	lea    0x0(%esi),%esi
  103779:	8d bc 27 00 00 00 00 	lea    0x0(%edi,%eiz,1),%edi

00103780 <BootAPs>:
  103780:	53                   	push   %ebx
  103781:	83 ec 38             	sub    $0x38,%esp
  103784:	68 00 10 00 00       	push   $0x1000
  103789:	6a 00                	push   $0x0
  10378b:	68 00 f0 01 00       	push   $0x1f000
  103790:	e8 0b d1 ff ff       	call   1008a0 <memset>
  103795:	83 c4 0c             	add    $0xc,%esp
  103798:	ba 5a 01 10 00       	mov    $0x10015a,%edx
  10379d:	b8 51 01 10 00       	mov    $0x100151,%eax
  1037a2:	29 c2                	sub    %eax,%edx
  1037a4:	89 d0                	mov    %edx,%eax
  1037a6:	50                   	push   %eax
  1037a7:	68 51 01 10 00       	push   $0x100151
  1037ac:	68 00 f0 01 00       	push   $0x1f000
  1037b1:	e8 3a d0 ff ff       	call   1007f0 <memcpy>
  1037b6:	83 c4 0c             	add    $0xc,%esp
  1037b9:	83 ec 08             	sub    $0x8,%esp
  1037bc:	68 5a 01 10 00       	push   $0x10015a
  1037c1:	68 51 01 10 00       	push   $0x100151
  1037c6:	6a 02                	push   $0x2
  1037c8:	68 00 05 00 00       	push   $0x500
  1037cd:	6a 02                	push   $0x2
  1037cf:	68 79 66 00 00       	push   $0x6679
  1037d4:	e8 07 bf 00 00       	call   10f6e0 <ByteSequence_Replace>
  1037d9:	83 c4 20             	add    $0x20,%esp
  1037dc:	b8 0f 00 00 00       	mov    $0xf,%eax
  1037e1:	c6 00 0a             	movb   $0xa,(%eax)
  1037e4:	c7 44 24 24 00 00 00 	movl   $0x0,0x24(%esp)
  1037eb:	00 
  1037ec:	ba 6a 00 10 00       	mov    $0x10006a,%edx
  1037f1:	b8 10 00 10 00       	mov    $0x100010,%eax
  1037f6:	29 c2                	sub    %eax,%edx
  1037f8:	89 d0                	mov    %edx,%eax
  1037fa:	a3 28 94 16 00       	mov    %eax,0x169428
  1037ff:	a1 28 94 16 00       	mov    0x169428,%eax
  103804:	83 e0 fc             	and    $0xfffffffc,%eax
  103807:	83 c0 04             	add    $0x4,%eax
  10380a:	a3 28 94 16 00       	mov    %eax,0x169428
  10380f:	ba 50 01 10 00       	mov    $0x100150,%edx
  103814:	b8 a0 00 10 00       	mov    $0x1000a0,%eax
  103819:	29 c2                	sub    %eax,%edx
  10381b:	89 d0                	mov    %edx,%eax
  10381d:	a3 40 88 16 00       	mov    %eax,0x168840
  103822:	a1 40 88 16 00       	mov    0x168840,%eax
  103827:	83 e0 fc             	and    $0xfffffffc,%eax
  10382a:	83 c0 04             	add    $0x4,%eax
  10382d:	a3 40 88 16 00       	mov    %eax,0x168840
  103832:	c7 44 24 20 00 05 00 	movl   $0x500,0x20(%esp)
  103839:	00 
  10383a:	8b 44 24 20          	mov    0x20(%esp),%eax
  10383e:	c7 00 00 00 00 00    	movl   $0x0,(%eax)
  103844:	c7 44 24 1c 04 05 00 	movl   $0x504,0x1c(%esp)
  10384b:	00 
  10384c:	8b 44 24 1c          	mov    0x1c(%esp),%eax
  103850:	c7 00 00 00 00 00    	movl   $0x0,(%eax)
  103856:	c7 44 24 24 01 00 00 	movl   $0x1,0x24(%esp)
  10385d:	00 
  10385e:	c7 44 24 18 00 10 00 	movl   $0x1000,0x18(%esp)
  103865:	00 
  103866:	a1 28 77 16 00       	mov    0x167728,%eax
  10386b:	89 44 24 2c          	mov    %eax,0x2c(%esp)
  10386f:	c7 44 24 28 00 00 00 	movl   $0x0,0x28(%esp)
  103876:	00 
  103877:	e9 39 03 00 00       	jmp    103bb5 <BootAPs+0x435>
  10387c:	a1 c4 93 16 00       	mov    0x1693c4,%eax
  103881:	3b 44 24 28          	cmp    0x28(%esp),%eax
  103885:	0f 84 1c 03 00 00    	je     103ba7 <BootAPs+0x427>
  10388b:	8b 44 24 2c          	mov    0x2c(%esp),%eax
  10388f:	2d 00 10 00 00       	sub    $0x1000,%eax
  103894:	89 44 24 18          	mov    %eax,0x18(%esp)
  103898:	8b 44 24 18          	mov    0x18(%esp),%eax
  10389c:	83 ec 04             	sub    $0x4,%esp
  10389f:	68 00 10 00 00       	push   $0x1000
  1038a4:	6a 00                	push   $0x0
  1038a6:	50                   	push   %eax
  1038a7:	e8 f4 cf ff ff       	call   1008a0 <memset>
  1038ac:	83 c4 10             	add    $0x10,%esp
  1038af:	8b 15 28 94 16 00    	mov    0x169428,%edx
  1038b5:	8b 44 24 18          	mov    0x18(%esp),%eax
  1038b9:	83 ec 04             	sub    $0x4,%esp
  1038bc:	52                   	push   %edx
  1038bd:	68 10 00 10 00       	push   $0x100010
  1038c2:	50                   	push   %eax
  1038c3:	e8 28 cf ff ff       	call   1007f0 <memcpy>
  1038c8:	83 c4 10             	add    $0x10,%esp
  1038cb:	8b 15 28 94 16 00    	mov    0x169428,%edx
  1038d1:	8b 44 24 18          	mov    0x18(%esp),%eax
  1038d5:	01 d0                	add    %edx,%eax
  1038d7:	89 c1                	mov    %eax,%ecx
  1038d9:	8b 44 24 18          	mov    0x18(%esp),%eax
  1038dd:	8b 54 24 2c          	mov    0x2c(%esp),%edx
  1038e1:	81 c2 fc 0f 00 00    	add    $0xffc,%edx
  1038e7:	83 ec 08             	sub    $0x8,%esp
  1038ea:	51                   	push   %ecx
  1038eb:	50                   	push   %eax
  1038ec:	6a 02                	push   $0x2
  1038ee:	52                   	push   %edx
  1038ef:	6a 02                	push   $0x2
  1038f1:	68 84 42 00 00       	push   $0x4284
  1038f6:	e8 e5 bd 00 00       	call   10f6e0 <ByteSequence_Replace>
  1038fb:	83 c4 20             	add    $0x20,%esp
  1038fe:	8b 15 28 94 16 00    	mov    0x169428,%edx
  103904:	8b 44 24 18          	mov    0x18(%esp),%eax
  103908:	01 c2                	add    %eax,%edx
  10390a:	a1 40 88 16 00       	mov    0x168840,%eax
  10390f:	01 d0                	add    %edx,%eax
  103911:	83 c0 10             	add    $0x10,%eax
  103914:	89 44 24 14          	mov    %eax,0x14(%esp)
  103918:	8b 15 28 94 16 00    	mov    0x169428,%edx
  10391e:	8b 44 24 18          	mov    0x18(%esp),%eax
  103922:	01 c2                	add    %eax,%edx
  103924:	a1 40 88 16 00       	mov    0x168840,%eax
  103929:	01 d0                	add    %edx,%eax
  10392b:	83 c0 18             	add    $0x18,%eax
  10392e:	83 ec 08             	sub    $0x8,%esp
  103931:	ff 74 24 1c          	pushl  0x1c(%esp)
  103935:	50                   	push   %eax
  103936:	e8 35 e9 ff ff       	call   102270 <AP_gdt_Setup>
  10393b:	83 c4 10             	add    $0x10,%esp
  10393e:	8b 15 28 94 16 00    	mov    0x169428,%edx
  103944:	8b 44 24 18          	mov    0x18(%esp),%eax
  103948:	01 d0                	add    %edx,%eax
  10394a:	89 c1                	mov    %eax,%ecx
  10394c:	8b 54 24 18          	mov    0x18(%esp),%edx
  103950:	8b 44 24 14          	mov    0x14(%esp),%eax
  103954:	83 ec 08             	sub    $0x8,%esp
  103957:	51                   	push   %ecx
  103958:	52                   	push   %edx
  103959:	6a 02                	push   $0x2
  10395b:	50                   	push   %eax
  10395c:	6a 02                	push   $0x2
  10395e:	68 40 32 00 00       	push   $0x3240
  103963:	e8 78 bd 00 00       	call   10f6e0 <ByteSequence_Replace>
  103968:	83 c4 20             	add    $0x20,%esp
  10396b:	8b 15 28 94 16 00    	mov    0x169428,%edx
  103971:	8b 44 24 18          	mov    0x18(%esp),%eax
  103975:	01 c2                	add    %eax,%edx
  103977:	a1 40 88 16 00       	mov    0x168840,%eax
  10397c:	01 d0                	add    %edx,%eax
  10397e:	83 c0 40             	add    $0x40,%eax
  103981:	89 44 24 10          	mov    %eax,0x10(%esp)
  103985:	8b 15 28 94 16 00    	mov    0x169428,%edx
  10398b:	8b 44 24 18          	mov    0x18(%esp),%eax
  10398f:	01 c2                	add    %eax,%edx
  103991:	a1 40 88 16 00       	mov    0x168840,%eax
  103996:	01 d0                	add    %edx,%eax
  103998:	83 c0 48             	add    $0x48,%eax
  10399b:	83 ec 08             	sub    $0x8,%esp
  10399e:	ff 74 24 18          	pushl  0x18(%esp)
  1039a2:	50                   	push   %eax
  1039a3:	e8 68 ea ff ff       	call   102410 <AP_idt_Setup>
  1039a8:	83 c4 10             	add    $0x10,%esp
  1039ab:	8b 15 28 94 16 00    	mov    0x169428,%edx
  1039b1:	8b 44 24 18          	mov    0x18(%esp),%eax
  1039b5:	01 d0                	add    %edx,%eax
  1039b7:	89 c1                	mov    %eax,%ecx
  1039b9:	8b 54 24 18          	mov    0x18(%esp),%edx
  1039bd:	8b 44 24 10          	mov    0x10(%esp),%eax
  1039c1:	83 ec 08             	sub    $0x8,%esp
  1039c4:	51                   	push   %ecx
  1039c5:	52                   	push   %edx
  1039c6:	6a 02                	push   $0x2
  1039c8:	50                   	push   %eax
  1039c9:	6a 02                	push   $0x2
  1039cb:	68 50 32 00 00       	push   $0x3250
  1039d0:	e8 0b bd 00 00       	call   10f6e0 <ByteSequence_Replace>
  1039d5:	83 c4 20             	add    $0x20,%esp
  1039d8:	8b 15 28 94 16 00    	mov    0x169428,%edx
  1039de:	8b 44 24 18          	mov    0x18(%esp),%eax
  1039e2:	01 d0                	add    %edx,%eax
  1039e4:	83 c0 10             	add    $0x10,%eax
  1039e7:	89 44 24 0c          	mov    %eax,0xc(%esp)
  1039eb:	8b 15 40 88 16 00    	mov    0x168840,%edx
  1039f1:	8b 44 24 0c          	mov    0xc(%esp),%eax
  1039f5:	83 ec 04             	sub    $0x4,%esp
  1039f8:	52                   	push   %edx
  1039f9:	68 a0 00 10 00       	push   $0x1000a0
  1039fe:	50                   	push   %eax
  1039ff:	e8 ec cd ff ff       	call   1007f0 <memcpy>
  103a04:	83 c4 10             	add    $0x10,%esp
  103a07:	8b 15 28 94 16 00    	mov    0x169428,%edx
  103a0d:	8b 44 24 18          	mov    0x18(%esp),%eax
  103a11:	01 d0                	add    %edx,%eax
  103a13:	83 c0 08             	add    $0x8,%eax
  103a16:	c7 00 00 00 00 00    	movl   $0x0,(%eax)
  103a1c:	8b 15 40 88 16 00    	mov    0x168840,%edx
  103a22:	8b 44 24 0c          	mov    0xc(%esp),%eax
  103a26:	01 d0                	add    %edx,%eax
  103a28:	89 c3                	mov    %eax,%ebx
  103a2a:	8b 44 24 0c          	mov    0xc(%esp),%eax
  103a2e:	8b 0d 28 94 16 00    	mov    0x169428,%ecx
  103a34:	8b 54 24 18          	mov    0x18(%esp),%edx
  103a38:	01 ca                	add    %ecx,%edx
  103a3a:	83 c2 08             	add    $0x8,%edx
  103a3d:	83 ec 08             	sub    $0x8,%esp
  103a40:	53                   	push   %ebx
  103a41:	50                   	push   %eax
  103a42:	6a 02                	push   $0x2
  103a44:	52                   	push   %edx
  103a45:	6a 02                	push   $0x2
  103a47:	68 99 55 00 00       	push   $0x5599
  103a4c:	e8 8f bc 00 00       	call   10f6e0 <ByteSequence_Replace>
  103a51:	83 c4 20             	add    $0x20,%esp
  103a54:	8b 15 40 88 16 00    	mov    0x168840,%edx
  103a5a:	8b 44 24 0c          	mov    0xc(%esp),%eax
  103a5e:	01 d0                	add    %edx,%eax
  103a60:	89 c2                	mov    %eax,%edx
  103a62:	8b 44 24 0c          	mov    0xc(%esp),%eax
  103a66:	83 ec 08             	sub    $0x8,%esp
  103a69:	52                   	push   %edx
  103a6a:	50                   	push   %eax
  103a6b:	6a 02                	push   $0x2
  103a6d:	ff 74 24 20          	pushl  0x20(%esp)
  103a71:	6a 02                	push   $0x2
  103a73:	68 59 49 00 00       	push   $0x4959
  103a78:	e8 63 bc 00 00       	call   10f6e0 <ByteSequence_Replace>
  103a7d:	83 c4 20             	add    $0x20,%esp
  103a80:	8b 44 24 18          	mov    0x18(%esp),%eax
  103a84:	c1 e8 0c             	shr    $0xc,%eax
  103a87:	89 44 24 24          	mov    %eax,0x24(%esp)
  103a8b:	8b 44 24 28          	mov    0x28(%esp),%eax
  103a8f:	c1 e0 18             	shl    $0x18,%eax
  103a92:	89 c2                	mov    %eax,%edx
  103a94:	a1 38 30 15 00       	mov    0x153038,%eax
  103a99:	83 ec 04             	sub    $0x4,%esp
  103a9c:	52                   	push   %edx
  103a9d:	68 10 03 00 00       	push   $0x310
  103aa2:	50                   	push   %eax
  103aa3:	e8 78 2d 01 00       	call   116820 <localapic_write>
  103aa8:	83 c4 10             	add    $0x10,%esp
  103aab:	a1 38 30 15 00       	mov    0x153038,%eax
  103ab0:	83 ec 04             	sub    $0x4,%esp
  103ab3:	68 00 45 00 00       	push   $0x4500
  103ab8:	68 00 03 00 00       	push   $0x300
  103abd:	50                   	push   %eax
  103abe:	e8 5d 2d 01 00       	call   116820 <localapic_write>
  103ac3:	83 c4 10             	add    $0x10,%esp
  103ac6:	83 ec 0c             	sub    $0xc,%esp
  103ac9:	6a 01                	push   $0x1
  103acb:	e8 90 36 00 00       	call   107160 <delay1>
  103ad0:	83 c4 10             	add    $0x10,%esp
  103ad3:	8b 44 24 28          	mov    0x28(%esp),%eax
  103ad7:	c1 e0 18             	shl    $0x18,%eax
  103ada:	89 c2                	mov    %eax,%edx
  103adc:	a1 38 30 15 00       	mov    0x153038,%eax
  103ae1:	83 ec 04             	sub    $0x4,%esp
  103ae4:	52                   	push   %edx
  103ae5:	68 10 03 00 00       	push   $0x310
  103aea:	50                   	push   %eax
  103aeb:	e8 30 2d 01 00       	call   116820 <localapic_write>
  103af0:	83 c4 10             	add    $0x10,%esp
  103af3:	8b 44 24 24          	mov    0x24(%esp),%eax
  103af7:	80 cc 46             	or     $0x46,%ah
  103afa:	89 c2                	mov    %eax,%edx
  103afc:	a1 38 30 15 00       	mov    0x153038,%eax
  103b01:	83 ec 04             	sub    $0x4,%esp
  103b04:	52                   	push   %edx
  103b05:	68 00 03 00 00       	push   $0x300
  103b0a:	50                   	push   %eax
  103b0b:	e8 10 2d 01 00       	call   116820 <localapic_write>
  103b10:	83 c4 10             	add    $0x10,%esp
  103b13:	83 ec 0c             	sub    $0xc,%esp
  103b16:	6a 04                	push   $0x4
  103b18:	e8 43 36 00 00       	call   107160 <delay1>
  103b1d:	83 c4 10             	add    $0x10,%esp
  103b20:	8b 44 24 20          	mov    0x20(%esp),%eax
  103b24:	8b 00                	mov    (%eax),%eax
  103b26:	01 c0                	add    %eax,%eax
  103b28:	3b 44 24 2c          	cmp    0x2c(%esp),%eax
  103b2c:	75 30                	jne    103b5e <BootAPs+0x3de>
  103b2e:	83 ec 0c             	sub    $0xc,%esp
  103b31:	68 10 64 14 00       	push   $0x146410
  103b36:	e8 c5 d7 ff ff       	call   101300 <printf>
  103b3b:	83 c4 10             	add    $0x10,%esp
  103b3e:	8b 44 24 24          	mov    0x24(%esp),%eax
  103b42:	80 cc 46             	or     $0x46,%ah
  103b45:	89 c2                	mov    %eax,%edx
  103b47:	a1 38 30 15 00       	mov    0x153038,%eax
  103b4c:	83 ec 04             	sub    $0x4,%esp
  103b4f:	52                   	push   %edx
  103b50:	68 00 03 00 00       	push   $0x300
  103b55:	50                   	push   %eax
  103b56:	e8 c5 2c 01 00       	call   116820 <localapic_write>
  103b5b:	83 c4 10             	add    $0x10,%esp
  103b5e:	8b 15 28 94 16 00    	mov    0x169428,%edx
  103b64:	8b 44 24 18          	mov    0x18(%esp),%eax
  103b68:	01 d0                	add    %edx,%eax
  103b6a:	8d 58 08             	lea    0x8(%eax),%ebx
  103b6d:	b8 00 10 00 50       	mov    $0x50001000,%eax
  103b72:	8b 10                	mov    (%eax),%edx
  103b74:	a1 10 84 16 00       	mov    0x168410,%eax
  103b79:	8b 80 00 03 00 00    	mov    0x300(%eax),%eax
  103b7f:	25 00 10 00 00       	and    $0x1000,%eax
  103b84:	89 c1                	mov    %eax,%ecx
  103b86:	8b 44 24 20          	mov    0x20(%esp),%eax
  103b8a:	8b 00                	mov    (%eax),%eax
  103b8c:	6a 00                	push   $0x0
  103b8e:	53                   	push   %ebx
  103b8f:	52                   	push   %edx
  103b90:	51                   	push   %ecx
  103b91:	50                   	push   %eax
  103b92:	ff 74 24 3c          	pushl  0x3c(%esp)
  103b96:	6a 0a                	push   $0xa
  103b98:	68 28 64 14 00       	push   $0x146428
  103b9d:	e8 5e d7 ff ff       	call   101300 <printf>
  103ba2:	83 c4 20             	add    $0x20,%esp
  103ba5:	eb 01                	jmp    103ba8 <BootAPs+0x428>
  103ba7:	90                   	nop
  103ba8:	81 44 24 2c 00 20 00 	addl   $0x2000,0x2c(%esp)
  103baf:	00 
  103bb0:	83 44 24 28 01       	addl   $0x1,0x28(%esp)
  103bb5:	a1 08 77 16 00       	mov    0x167708,%eax
  103bba:	83 e8 01             	sub    $0x1,%eax
  103bbd:	3b 44 24 28          	cmp    0x28(%esp),%eax
  103bc1:	0f 87 b5 fc ff ff    	ja     10387c <BootAPs+0xfc>
  103bc7:	83 ec 0c             	sub    $0xc,%esp
  103bca:	6a 04                	push   $0x4
  103bcc:	e8 8f 35 00 00       	call   107160 <delay1>
  103bd1:	83 c4 10             	add    $0x10,%esp
  103bd4:	90                   	nop
  103bd5:	83 c4 38             	add    $0x38,%esp
  103bd8:	5b                   	pop    %ebx
  103bd9:	c3                   	ret    
  103bda:	8d b6 00 00 00 00    	lea    0x0(%esi),%esi

00103be0 <__cmos_get_short_day>:
  103be0:	0f b6 44 24 04       	movzbl 0x4(%esp),%eax
  103be5:	8d 50 fe             	lea    -0x2(%eax),%edx
  103be8:	b8 f1 ec 11 00       	mov    $0x11ecf1,%eax
  103bed:	80 fa 05             	cmp    $0x5,%dl
  103bf0:	77 0a                	ja     103bfc <__cmos_get_short_day+0x1c>
  103bf2:	0f b6 d2             	movzbl %dl,%edx
  103bf5:	8b 04 95 d8 90 14 00 	mov    0x1490d8(,%edx,4),%eax
  103bfc:	f3 c3                	repz ret 
  103bfe:	66 90                	xchg   %ax,%ax

00103c00 <__cmos_get_day>:
  103c00:	0f b6 44 24 04       	movzbl 0x4(%esp),%eax
  103c05:	8d 50 fe             	lea    -0x2(%eax),%edx
  103c08:	b8 71 64 14 00       	mov    $0x146471,%eax
  103c0d:	80 fa 05             	cmp    $0x5,%dl
  103c10:	77 0a                	ja     103c1c <__cmos_get_day+0x1c>
  103c12:	0f b6 d2             	movzbl %dl,%edx
  103c15:	8b 04 95 24 91 14 00 	mov    0x149124(,%edx,4),%eax
  103c1c:	f3 c3                	repz ret 
  103c1e:	66 90                	xchg   %ax,%ax

00103c20 <__cmos_get_short_month>:
  103c20:	0f b6 44 24 04       	movzbl 0x4(%esp),%eax
  103c25:	8d 50 fe             	lea    -0x2(%eax),%edx
  103c28:	b8 78 64 14 00       	mov    $0x146478,%eax
  103c2d:	80 fa 0a             	cmp    $0xa,%dl
  103c30:	77 0a                	ja     103c3c <__cmos_get_short_month+0x1c>
  103c32:	0f b6 d2             	movzbl %dl,%edx
  103c35:	8b 04 95 80 91 14 00 	mov    0x149180(,%edx,4),%eax
  103c3c:	f3 c3                	repz ret 
  103c3e:	66 90                	xchg   %ax,%ax

00103c40 <__cmos_get_month>:
  103c40:	0f b6 44 24 04       	movzbl 0x4(%esp),%eax
  103c45:	8d 50 fe             	lea    -0x2(%eax),%edx
  103c48:	b8 7c 64 14 00       	mov    $0x14647c,%eax
  103c4d:	80 fa 0a             	cmp    $0xa,%dl
  103c50:	77 0a                	ja     103c5c <__cmos_get_month+0x1c>
  103c52:	0f b6 d2             	movzbl %dl,%edx
  103c55:	8b 04 95 00 92 14 00 	mov    0x149200(,%edx,4),%eax
  103c5c:	f3 c3                	repz ret 
  103c5e:	66 90                	xchg   %ax,%ax

00103c60 <__cmos_do_doomsday>:
  103c60:	56                   	push   %esi
  103c61:	53                   	push   %ebx
  103c62:	8b 5c 24 10          	mov    0x10(%esp),%ebx
  103c66:	8b 44 24 0c          	mov    0xc(%esp),%eax
  103c6a:	8b 74 24 14          	mov    0x14(%esp),%esi
  103c6e:	80 fb 02             	cmp    $0x2,%bl
  103c71:	77 7d                	ja     103cf0 <__cmos_do_doomsday+0x90>
  103c73:	8d 53 0d             	lea    0xd(%ebx),%edx
  103c76:	8d 4e ff             	lea    -0x1(%esi),%ecx
  103c79:	89 cb                	mov    %ecx,%ebx
  103c7b:	0f b6 c0             	movzbl %al,%eax
  103c7e:	0f b6 d2             	movzbl %dl,%edx
  103c81:	c0 eb 02             	shr    $0x2,%bl
  103c84:	0f b6 f3             	movzbl %bl,%esi
  103c87:	0f b6 d9             	movzbl %cl,%ebx
  103c8a:	8d 0c 9d 00 00 00 00 	lea    0x0(,%ebx,4),%ecx
  103c91:	01 d8                	add    %ebx,%eax
  103c93:	01 f0                	add    %esi,%eax
  103c95:	89 de                	mov    %ebx,%esi
  103c97:	01 d9                	add    %ebx,%ecx
  103c99:	8d 0c ce             	lea    (%esi,%ecx,8),%ecx
  103c9c:	66 c1 e9 0c          	shr    $0xc,%cx
  103ca0:	29 c8                	sub    %ecx,%eax
  103ca2:	89 c1                	mov    %eax,%ecx
  103ca4:	8d 04 52             	lea    (%edx,%edx,2),%eax
  103ca7:	8d 5c 82 e5          	lea    -0x1b(%edx,%eax,4),%ebx
  103cab:	ba 67 66 66 66       	mov    $0x66666667,%edx
  103cb0:	89 d8                	mov    %ebx,%eax
  103cb2:	c1 fb 1f             	sar    $0x1f,%ebx
  103cb5:	f7 ea                	imul   %edx
  103cb7:	d1 fa                	sar    %edx
  103cb9:	29 da                	sub    %ebx,%edx
  103cbb:	8d 04 11             	lea    (%ecx,%edx,1),%eax
  103cbe:	5b                   	pop    %ebx
  103cbf:	0f b7 d0             	movzwl %ax,%edx
  103cc2:	69 d2 93 24 00 00    	imul   $0x2493,%edx,%edx
  103cc8:	5e                   	pop    %esi
  103cc9:	89 d1                	mov    %edx,%ecx
  103ccb:	89 c2                	mov    %eax,%edx
  103ccd:	c1 e9 10             	shr    $0x10,%ecx
  103cd0:	29 ca                	sub    %ecx,%edx
  103cd2:	66 d1 ea             	shr    %dx
  103cd5:	01 ca                	add    %ecx,%edx
  103cd7:	66 c1 ea 02          	shr    $0x2,%dx
  103cdb:	8d 0c d5 00 00 00 00 	lea    0x0(,%edx,8),%ecx
  103ce2:	29 d1                	sub    %edx,%ecx
  103ce4:	89 ca                	mov    %ecx,%edx
  103ce6:	29 d0                	sub    %edx,%eax
  103ce8:	83 c0 01             	add    $0x1,%eax
  103ceb:	c3                   	ret    
  103cec:	8d 74 26 00          	lea    0x0(%esi,%eiz,1),%esi
  103cf0:	89 da                	mov    %ebx,%edx
  103cf2:	89 f1                	mov    %esi,%ecx
  103cf4:	eb 83                	jmp    103c79 <__cmos_do_doomsday+0x19>
  103cf6:	8d 76 00             	lea    0x0(%esi),%esi
  103cf9:	8d bc 27 00 00 00 00 	lea    0x0(%edi,%eiz,1),%edi

00103d00 <decode_bcd>:
  103d00:	53                   	push   %ebx
  103d01:	8b 44 24 08          	mov    0x8(%esp),%eax
  103d05:	0f b6 d8             	movzbl %al,%ebx
  103d08:	83 e0 0f             	and    $0xf,%eax
  103d0b:	89 da                	mov    %ebx,%edx
  103d0d:	c1 fb 03             	sar    $0x3,%ebx
  103d10:	d1 fa                	sar    %edx
  103d12:	83 e3 1e             	and    $0x1e,%ebx
  103d15:	89 d1                	mov    %edx,%ecx
  103d17:	83 e1 78             	and    $0x78,%ecx
  103d1a:	8d 14 19             	lea    (%ecx,%ebx,1),%edx
  103d1d:	5b                   	pop    %ebx
  103d1e:	01 d0                	add    %edx,%eax
  103d20:	c3                   	ret    
  103d21:	eb 0d                	jmp    103d30 <init_cmos>
  103d23:	90                   	nop
  103d24:	90                   	nop
  103d25:	90                   	nop
  103d26:	90                   	nop
  103d27:	90                   	nop
  103d28:	90                   	nop
  103d29:	90                   	nop
  103d2a:	90                   	nop
  103d2b:	90                   	nop
  103d2c:	90                   	nop
  103d2d:	90                   	nop
  103d2e:	90                   	nop
  103d2f:	90                   	nop

00103d30 <init_cmos>:
  103d30:	fa                   	cli    
  103d31:	b8 0b 00 00 00       	mov    $0xb,%eax
  103d36:	e6 70                	out    %al,$0x70
  103d38:	e4 71                	in     $0x71,%al
  103d3a:	fb                   	sti    
  103d3b:	89 c2                	mov    %eax,%edx
  103d3d:	c0 e8 02             	shr    $0x2,%al
  103d40:	d0 ea                	shr    %dl
  103d42:	83 f0 01             	xor    $0x1,%eax
  103d45:	83 e2 01             	and    $0x1,%edx
  103d48:	83 e0 01             	and    $0x1,%eax
  103d4b:	88 15 b9 80 16 00    	mov    %dl,0x1680b9
  103d51:	a2 ba 80 16 00       	mov    %al,0x1680ba
  103d56:	c3                   	ret    
  103d57:	89 f6                	mov    %esi,%esi
  103d59:	8d bc 27 00 00 00 00 	lea    0x0(%edi,%eiz,1),%edi

00103d60 <cmos_24hour>:
  103d60:	0f b6 05 b9 80 16 00 	movzbl 0x1680b9,%eax
  103d67:	c3                   	ret    
  103d68:	90                   	nop
  103d69:	8d b4 26 00 00 00 00 	lea    0x0(%esi,%eiz,1),%esi

00103d70 <cmos_bcd_encoded>:
  103d70:	0f b6 05 ba 80 16 00 	movzbl 0x1680ba,%eax
  103d77:	c3                   	ret    
  103d78:	90                   	nop
  103d79:	8d b4 26 00 00 00 00 	lea    0x0(%esi,%eiz,1),%esi

00103d80 <cmos_updating>:
  103d80:	fa                   	cli    
  103d81:	b8 0a 00 00 00       	mov    $0xa,%eax
  103d86:	e6 70                	out    %al,$0x70
  103d88:	e4 71                	in     $0x71,%al
  103d8a:	fb                   	sti    
  103d8b:	c0 e8 07             	shr    $0x7,%al
  103d8e:	c3                   	ret    
  103d8f:	90                   	nop

00103d90 <cmos_rtc_get_value>:
  103d90:	53                   	push   %ebx
  103d91:	8b 4c 24 08          	mov    0x8(%esp),%ecx
  103d95:	8b 5c 24 0c          	mov    0xc(%esp),%ebx
  103d99:	fa                   	cli    
  103d9a:	89 c8                	mov    %ecx,%eax
  103d9c:	e6 70                	out    %al,$0x70
  103d9e:	e4 71                	in     $0x71,%al
  103da0:	89 c2                	mov    %eax,%edx
  103da2:	fb                   	sti    
  103da3:	80 3d ba 80 16 00 00 	cmpb   $0x0,0x1680ba
  103daa:	74 2f                	je     103ddb <cmos_rtc_get_value+0x4b>
  103dac:	84 db                	test   %bl,%bl
  103dae:	74 2b                	je     103ddb <cmos_rtc_get_value+0x4b>
  103db0:	83 f9 32             	cmp    $0x32,%ecx
  103db3:	77 26                	ja     103ddb <cmos_rtc_get_value+0x4b>
