	.file	"kernel.c"
	.comm	printlockLocked,4,4
	.text
	.align 16
	.globl	posix_time
	.type	posix_time, @function
posix_time:
.LFB4:
	.cfi_startproc
	movl	$65535, %eax
	ret
	.cfi_endproc
.LFE4:
	.size	posix_time, .-posix_time
	.globl	mousex
	.data
	.align 4
	.type	mousex, @object
	.size	mousex, 4
mousex:
	.long	512
	.globl	mousey
	.align 4
	.type	mousey, @object
	.size	mousey, 4
mousey:
	.long	384
	.globl	mousedeltax
	.section	.bss
	.align 4
	.type	mousedeltax, @object
	.size	mousedeltax, 4
mousedeltax:
	.zero	4
	.globl	mousedeltay
	.align 4
	.type	mousedeltay, @object
	.size	mousedeltay, 4
mousedeltay:
	.zero	4
	.local	mouse_bytes
	.comm	mouse_bytes,3,1
	.local	cycle
	.comm	cycle,4,4
	.globl	mouse_buff
	.align 4
	.type	mouse_buff, @object
	.size	mouse_buff, 4
mouse_buff:
	.zero	4
	.globl	background
	.data
	.align 4
	.type	background, @object
	.size	background, 4
background:
	.long	90
	.comm	tempbuff,4,4
	.comm	offset,4,4
	.globl	width
	.align 4
	.type	width, @object
	.size	width, 4
width:
	.long	1022
	.globl	height
	.align 4
	.type	height, @object
	.size	height, 4
height:
	.long	766
	.comm	general_buff,4,4
	.globl	cx0
	.align 4
	.type	cx0, @object
	.size	cx0, 4
cx0:
	.long	512
	.globl	cx1
	.align 4
	.type	cx1, @object
	.size	cx1, 4
cx1:
	.long	512
	.globl	cy0
	.align 4
	.type	cy0, @object
	.size	cy0, 4
cy0:
	.long	384
	.globl	cy1
	.align 4
	.type	cy1, @object
	.size	cy1, 4
cy1:
	.long	384
	.comm	SMI_CMD,4,4
	.comm	ACPI_ENABLE,1,1
	.comm	ACPI_DISABLE,1,1
	.comm	PM1a_CNT,4,4
	.comm	PM1b_CNT,4,4
	.comm	SLP_TYPa,2,2
	.comm	SLP_TYPb,2,2
	.comm	SLP_EN,2,2
	.comm	SCI_EN,2,2
	.comm	PM1_CNT_LEN,1,1
	.text
	.align 16
	.globl	faster_memcpy
	.type	faster_memcpy, @function
faster_memcpy:
.LFB582:
	.cfi_startproc
	jmp	memcpy_faster
	.cfi_endproc
.LFE582:
	.size	faster_memcpy, .-faster_memcpy
	.align 16
	.globl	faster_memset
	.type	faster_memset, @function
faster_memset:
.LFB6:
	.cfi_startproc
	movl	12(%esp), %eax
	movl	8(%esp), %ecx
	movl	4(%esp), %edx
	testl	%eax, %eax
	je	.L3
	.align 16
.L7:
	addl	$4, %edx
	subl	$1, %eax
	movl	%ecx, -4(%edx)
	jne	.L7
.L3:
	rep ret
	.cfi_endproc
.LFE6:
	.size	faster_memset, .-faster_memset
	.align 16
	.globl	memcmp
	.type	memcmp, @function
memcmp:
.LFB7:
	.cfi_startproc
	pushl	%edi
	.cfi_def_cfa_offset 8
	.cfi_offset 7, -8
	pushl	%esi
	.cfi_def_cfa_offset 12
	.cfi_offset 6, -12
	pushl	%ebx
	.cfi_def_cfa_offset 16
	.cfi_offset 3, -16
	movl	24(%esp), %ebx
	movl	16(%esp), %esi
	movl	20(%esp), %edi
	testl	%ebx, %ebx
	je	.L16
	movzbl	(%esi), %ecx
	movzbl	(%edi), %edx
	cmpb	%cl, %dl
	jne	.L12
	movl	$1, %eax
	jmp	.L14
	.align 16
.L15:
	movzbl	(%esi,%eax), %ecx
	addl	$1, %eax
	movzbl	-1(%edi,%eax), %edx
	cmpb	%dl, %cl
	jne	.L12
.L14:
	cmpl	%ebx, %eax
	jne	.L15
.L16:
	popl	%ebx
	.cfi_remember_state
	.cfi_restore 3
	.cfi_def_cfa_offset 12
	xorl	%eax, %eax
	popl	%esi
	.cfi_restore 6
	.cfi_def_cfa_offset 8
	popl	%edi
	.cfi_restore 7
	.cfi_def_cfa_offset 4
	ret
	.align 16
.L12:
	.cfi_restore_state
	cmpb	%dl, %cl
	sbbl	%eax, %eax
	popl	%ebx
	.cfi_restore 3
	.cfi_def_cfa_offset 12
	orl	$1, %eax
	popl	%esi
	.cfi_restore 6
	.cfi_def_cfa_offset 8
	popl	%edi
	.cfi_restore 7
	.cfi_def_cfa_offset 4
	ret
	.cfi_endproc
.LFE7:
	.size	memcmp, .-memcmp
	.align 16
	.globl	memcpy
	.type	memcpy, @function
memcpy:
.LFB8:
	.cfi_startproc
	pushl	%edi
	.cfi_def_cfa_offset 8
	.cfi_offset 7, -8
	pushl	%esi
	.cfi_def_cfa_offset 12
	.cfi_offset 6, -12
	pushl	%ebx
	.cfi_def_cfa_offset 16
	.cfi_offset 3, -16
	movl	24(%esp), %esi
	movl	20(%esp), %edx
	movl	16(%esp), %edi
	testl	%esi, %esi
	leal	(%edx,%esi), %ebx
	je	.L26
	movl	%edi, %ecx
	.align 16
.L24:
	addl	$1, %edx
	movzbl	-1(%edx), %eax
	addl	$1, %ecx
	cmpl	%edx, %ebx
	movb	%al, -1(%ecx)
	jne	.L24
.L26:
	movl	%edi, %eax
	popl	%ebx
	.cfi_restore 3
	.cfi_def_cfa_offset 12
	popl	%esi
	.cfi_restore 6
	.cfi_def_cfa_offset 8
	popl	%edi
	.cfi_restore 7
	.cfi_def_cfa_offset 4
	ret
	.cfi_endproc
.LFE8:
	.size	memcpy, .-memcpy
	.align 16
	.globl	memmove
	.type	memmove, @function
memmove:
.LFB9:
	.cfi_startproc
	pushl	%esi
	.cfi_def_cfa_offset 8
	.cfi_offset 6, -8
	pushl	%ebx
	.cfi_def_cfa_offset 12
	.cfi_offset 3, -12
	movl	12(%esp), %eax
	movl	16(%esp), %ebx
	movl	20(%esp), %esi
	cmpl	%ebx, %eax
	jb	.L29
	testl	%esi, %esi
	je	.L35
	.align 16
.L37:
	movzbl	-1(%ebx,%esi), %ecx
	movb	%cl, -1(%eax,%esi)
	subl	$1, %esi
	jne	.L37
.L35:
	popl	%ebx
	.cfi_remember_state
	.cfi_restore 3
	.cfi_def_cfa_offset 8
	popl	%esi
	.cfi_restore 6
	.cfi_def_cfa_offset 4
	ret
	.align 16
.L29:
	.cfi_restore_state
	testl	%esi, %esi
	je	.L35
	xorl	%ecx, %ecx
	.align 16
.L32:
	movzbl	(%ebx,%ecx), %edx
	movb	%dl, (%eax,%ecx)
	addl	$1, %ecx
	cmpl	%ecx, %esi
	jne	.L32
	popl	%ebx
	.cfi_restore 3
	.cfi_def_cfa_offset 8
	popl	%esi
	.cfi_restore 6
	.cfi_def_cfa_offset 4
	ret
	.cfi_endproc
.LFE9:
	.size	memmove, .-memmove
	.align 16
	.globl	memset
	.type	memset, @function
memset:
.LFB10:
	.cfi_startproc
	pushl	%ebx
	.cfi_def_cfa_offset 8
	.cfi_offset 3, -8
	movl	16(%esp), %ebx
	movl	8(%esp), %eax
	movzbl	12(%esp), %ecx
	testl	%ebx, %ebx
	leal	(%eax,%ebx), %edx
	je	.L42
	.align 16
.L46:
	addl	$1, %eax
	movb	%cl, -1(%eax)
	cmpl	%edx, %eax
	jne	.L46
.L42:
	popl	%ebx
	.cfi_restore 3
	.cfi_def_cfa_offset 4
	ret
	.cfi_endproc
.LFE10:
	.size	memset, .-memset
	.align 16
	.globl	memcmp_fast
	.type	memcmp_fast, @function
memcmp_fast:
.LFB11:
	.cfi_startproc
	pushl	%edi
	.cfi_def_cfa_offset 8
	.cfi_offset 7, -8
	pushl	%esi
	.cfi_def_cfa_offset 12
	.cfi_offset 6, -12
	pushl	%ebx
	.cfi_def_cfa_offset 16
	.cfi_offset 3, -16
	movl	24(%esp), %ebx
	movl	16(%esp), %esi
	movl	20(%esp), %edi
	shrl	$2, %ebx
	testl	%ebx, %ebx
	je	.L55
	movl	(%esi), %ecx
	movl	(%edi), %edx
	sall	$2, %ebx
	movl	$4, %eax
	cmpl	%ecx, %edx
	je	.L53
	jmp	.L51
	.align 16
.L54:
	movl	(%esi,%eax), %ecx
	addl	$4, %eax
	movl	-4(%edi,%eax), %edx
	cmpl	%edx, %ecx
	jne	.L51
.L53:
	cmpl	%ebx, %eax
	jne	.L54
.L55:
	popl	%ebx
	.cfi_remember_state
	.cfi_restore 3
	.cfi_def_cfa_offset 12
	xorl	%eax, %eax
	popl	%esi
	.cfi_restore 6
	.cfi_def_cfa_offset 8
	popl	%edi
	.cfi_restore 7
	.cfi_def_cfa_offset 4
	ret
	.align 16
.L51:
	.cfi_restore_state
	cmpl	%edx, %ecx
	sbbl	%eax, %eax
	popl	%ebx
	.cfi_restore 3
	.cfi_def_cfa_offset 12
	orl	$1, %eax
	popl	%esi
	.cfi_restore 6
	.cfi_def_cfa_offset 8
	popl	%edi
	.cfi_restore 7
	.cfi_def_cfa_offset 4
	ret
	.cfi_endproc
.LFE11:
	.size	memcmp_fast, .-memcmp_fast
	.align 16
	.globl	memcpy_fast
	.type	memcpy_fast, @function
memcpy_fast:
.LFB12:
	.cfi_startproc
	pushl	%esi
	.cfi_def_cfa_offset 8
	.cfi_offset 6, -8
	pushl	%ebx
	.cfi_def_cfa_offset 12
	.cfi_offset 3, -12
	movl	20(%esp), %ecx
	movl	12(%esp), %eax
	movl	16(%esp), %esi
	shrl	$2, %ecx
	testl	%ecx, %ecx
	je	.L66
	leal	0(,%ecx,4), %ebx
	xorl	%edx, %edx
	.align 16
.L64:
	movl	(%esi,%edx), %ecx
	movl	%ecx, (%eax,%edx)
	addl	$4, %edx
	cmpl	%ebx, %edx
	jne	.L64
.L66:
	popl	%ebx
	.cfi_restore 3
	.cfi_def_cfa_offset 8
	popl	%esi
	.cfi_restore 6
	.cfi_def_cfa_offset 4
	ret
	.cfi_endproc
.LFE12:
	.size	memcpy_fast, .-memcpy_fast
	.align 16
	.globl	memmove_fast
	.type	memmove_fast, @function
memmove_fast:
.LFB13:
	.cfi_startproc
	pushl	%esi
	.cfi_def_cfa_offset 8
	.cfi_offset 6, -8
	pushl	%ebx
	.cfi_def_cfa_offset 12
	.cfi_offset 3, -12
	movl	12(%esp), %eax
	movl	16(%esp), %ebx
	movl	20(%esp), %edx
	shrl	$2, %edx
	cmpl	%ebx, %eax
	jb	.L69
	testl	%edx, %edx
	je	.L75
	.align 16
.L77:
	movl	-4(%ebx,%edx,4), %ecx
	movl	%ecx, -4(%eax,%edx,4)
	subl	$1, %edx
	jne	.L77
.L75:
	popl	%ebx
	.cfi_remember_state
	.cfi_restore 3
	.cfi_def_cfa_offset 8
	popl	%esi
	.cfi_restore 6
	.cfi_def_cfa_offset 4
	ret
	.align 16
.L69:
	.cfi_restore_state
	testl	%edx, %edx
	je	.L75
	xorl	%ecx, %ecx
	.align 16
.L72:
	movl	(%ebx,%ecx,4), %esi
	movl	%esi, (%eax,%ecx,4)
	addl	$1, %ecx
	cmpl	%ecx, %edx
	jne	.L72
	popl	%ebx
	.cfi_restore 3
	.cfi_def_cfa_offset 8
	popl	%esi
	.cfi_restore 6
	.cfi_def_cfa_offset 4
	ret
	.cfi_endproc
.LFE13:
	.size	memmove_fast, .-memmove_fast
	.align 16
	.globl	memset_fast
	.type	memset_fast, @function
memset_fast:
.LFB14:
	.cfi_startproc
	pushl	%ebx
	.cfi_def_cfa_offset 8
	.cfi_offset 3, -8
	movl	16(%esp), %ebx
	movl	8(%esp), %eax
	movl	12(%esp), %ecx
	shrl	$2, %ebx
	testl	%ebx, %ebx
	leal	(%eax,%ebx,4), %edx
	je	.L82
	.align 16
.L86:
	addl	$4, %eax
	movl	%ecx, -4(%eax)
	cmpl	%edx, %eax
	jne	.L86
.L82:
	popl	%ebx
	.cfi_restore 3
	.cfi_def_cfa_offset 4
	ret
	.cfi_endproc
.LFE14:
	.size	memset_fast, .-memset_fast
	.align 16
	.globl	strlen
	.type	strlen, @function
strlen:
.LFB15:
	.cfi_startproc
	movl	4(%esp), %edx
	xorl	%eax, %eax
	cmpb	$0, (%edx)
	je	.L92
	.align 16
.L91:
	addl	$1, %eax
	cmpb	$0, (%edx,%eax)
	jne	.L91
	rep ret
.L92:
	rep ret
	.cfi_endproc
.LFE15:
	.size	strlen, .-strlen
	.align 16
	.globl	strcmp
	.type	strcmp, @function
strcmp:
.LFB16:
	.cfi_startproc
	pushl	%ebx
	.cfi_def_cfa_offset 8
	.cfi_offset 3, -8
	movl	8(%esp), %edx
	movl	12(%esp), %ecx
	movzbl	(%edx), %eax
	movzbl	(%ecx), %ebx
	cmpb	%al, %bl
	jne	.L95
	testb	%bl, %bl
	jne	.L98
	jmp	.L101
	.align 16
.L99:
	testb	%al, %al
	je	.L101
.L98:
	addl	$1, %edx
	addl	$1, %ecx
	movzbl	(%edx), %eax
	movzbl	(%ecx), %ebx
	cmpb	%bl, %al
	je	.L99
.L95:
	cmpb	%bl, %al
	sbbl	%eax, %eax
	orl	$1, %eax
	popl	%ebx
	.cfi_remember_state
	.cfi_restore 3
	.cfi_def_cfa_offset 4
	ret
	.align 16
.L101:
	.cfi_restore_state
	xorl	%eax, %eax
	popl	%ebx
	.cfi_restore 3
	.cfi_def_cfa_offset 4
	ret
	.cfi_endproc
.LFE16:
	.size	strcmp, .-strcmp
	.align 16
	.globl	strcmpx
	.type	strcmpx, @function
strcmpx:
.LFB17:
	.cfi_startproc
	pushl	%ebp
	.cfi_def_cfa_offset 8
	.cfi_offset 5, -8
	pushl	%edi
	.cfi_def_cfa_offset 12
	.cfi_offset 7, -12
	pushl	%esi
	.cfi_def_cfa_offset 16
	.cfi_offset 6, -16
	pushl	%ebx
	.cfi_def_cfa_offset 20
	.cfi_offset 3, -20
	movl	20(%esp), %ebx
	movl	24(%esp), %ecx
	jmp	.L105
	.align 16
.L112:
	addl	$1, %ebx
	addl	$1, %ecx
.L105:
	movzbl	(%ecx), %esi
	movzbl	(%ebx), %eax
	movl	%esi, %edx
	cmpb	%dl, %al
	je	.L107
	movsbl	%al, %edi
	movsbl	%dl, %edx
	leal	-32(%edi), %ebp
	cmpl	%edx, %ebp
	je	.L107
	subl	$32, %edx
	cmpl	%edx, %edi
	jne	.L111
.L107:
	testb	%al, %al
	jne	.L112
	popl	%ebx
	.cfi_remember_state
	.cfi_restore 3
	.cfi_def_cfa_offset 16
	xorl	%eax, %eax
	popl	%esi
	.cfi_restore 6
	.cfi_def_cfa_offset 12
	popl	%edi
	.cfi_restore 7
	.cfi_def_cfa_offset 8
	popl	%ebp
	.cfi_restore 5
	.cfi_def_cfa_offset 4
	ret
	.align 16
.L111:
	.cfi_restore_state
	movl	%esi, %ecx
	cmpb	%cl, %al
	sbbl	%eax, %eax
	popl	%ebx
	.cfi_restore 3
	.cfi_def_cfa_offset 16
	orl	$1, %eax
	popl	%esi
	.cfi_restore 6
	.cfi_def_cfa_offset 12
	popl	%edi
	.cfi_restore 7
	.cfi_def_cfa_offset 8
	popl	%ebp
	.cfi_restore 5
	.cfi_def_cfa_offset 4
	ret
	.cfi_endproc
.LFE17:
	.size	strcmpx, .-strcmpx
	.align 16
	.globl	strncmp
	.type	strncmp, @function
strncmp:
.LFB18:
	.cfi_startproc
	movl	12(%esp), %ecx
	movl	4(%esp), %eax
	movl	8(%esp), %edx
	testl	%ecx, %ecx
	je	.L114
	jmp	strncmp.part.0
	.align 16
.L114:
	xorl	%eax, %eax
	ret
	.cfi_endproc
.LFE18:
	.size	strncmp, .-strncmp
	.align 16
	.globl	strcpy
	.type	strcpy, @function
strcpy:
.LFB19:
	.cfi_startproc
	movl	8(%esp), %edx
	movl	4(%esp), %eax
	movzbl	(%edx), %ecx
	.align 16
.L116:
	addl	$1, %eax
	addl	$1, %edx
	movb	%cl, -1(%eax)
	movzbl	(%edx), %ecx
	testb	%cl, %cl
	jne	.L116
	movb	$0, (%eax)
	ret
	.cfi_endproc
.LFE19:
	.size	strcpy, .-strcpy
	.align 16
	.globl	strcat
	.type	strcat, @function
strcat:
.LFB20:
	.cfi_startproc
	pushl	%ebx
	.cfi_def_cfa_offset 8
	.cfi_offset 3, -8
	movl	8(%esp), %eax
	movl	12(%esp), %ebx
	cmpb	$0, (%eax)
	je	.L122
	leal	1(%eax), %ecx
	.align 16
.L120:
	movl	%ecx, %edx
	addl	$1, %ecx
	cmpb	$0, -1(%ecx)
	jne	.L120
.L119:
	movzbl	(%ebx), %ecx
	.align 16
.L121:
	addl	$1, %edx
	addl	$1, %ebx
	movb	%cl, -1(%edx)
	movzbl	(%ebx), %ecx
	testb	%cl, %cl
	jne	.L121
	movb	$0, (%edx)
	popl	%ebx
	.cfi_remember_state
	.cfi_restore 3
	.cfi_def_cfa_offset 4
	ret
.L122:
	.cfi_restore_state
	movl	%eax, %edx
	jmp	.L119
	.cfi_endproc
.LFE20:
	.size	strcat, .-strcat
	.align 16
	.globl	strcmpy
	.type	strcmpy, @function
strcmpy:
.LFB21:
	.cfi_startproc
	pushl	%ebp
	.cfi_def_cfa_offset 8
	.cfi_offset 5, -8
	pushl	%edi
	.cfi_def_cfa_offset 12
	.cfi_offset 7, -12
	pushl	%esi
	.cfi_def_cfa_offset 16
	.cfi_offset 6, -16
	pushl	%ebx
	.cfi_def_cfa_offset 20
	.cfi_offset 3, -20
	subl	$8, %esp
	.cfi_def_cfa_offset 28
	movl	28(%esp), %edi
	movl	32(%esp), %edx
	movl	$0, (%esp)
	movzbl	(%edi), %eax
	movb	%al, 7(%esp)
.L127:
	xorl	%eax, %eax
	cmpb	$0, 7(%esp)
	je	.L134
	.align 16
.L135:
	addl	$1, %eax
	cmpb	$0, (%edi,%eax)
	jne	.L135
.L134:
	movl	(%esp), %ebp
	cmpl	%eax, %ebp
	ja	.L140
	movzbl	(%edx), %esi
	xorl	%ecx, %ecx
	xorl	%ebx, %ebx
	leal	(%edi,%ebp), %ebp
	movl	%esi, %eax
	testb	%al, %al
	movl	$0, %eax
	je	.L129
	.align 16
.L130:
	addl	$1, %eax
	cmpb	$0, (%edx,%eax)
	jne	.L130
	cmpl	%eax, %ecx
	jnb	.L145
	movzbl	(%edx,%ecx), %eax
	cmpb	%al, 0(%ebp,%ecx)
	sete	%al
	addl	$1, %ecx
	movzbl	%al, %eax
	addl	%eax, %ebx
	movl	%esi, %eax
	testb	%al, %al
	movl	$0, %eax
	jne	.L130
.L129:
	cmpl	%eax, %ebx
	je	.L138
	addl	$1, (%esp)
	jmp	.L127
.L140:
	addl	$8, %esp
	.cfi_remember_state
	.cfi_def_cfa_offset 20
	movl	$1, %eax
	popl	%ebx
	.cfi_restore 3
	.cfi_def_cfa_offset 16
	popl	%esi
	.cfi_restore 6
	.cfi_def_cfa_offset 12
	popl	%edi
	.cfi_restore 7
	.cfi_def_cfa_offset 8
	popl	%ebp
	.cfi_restore 5
	.cfi_def_cfa_offset 4
	ret
.L138:
	.cfi_restore_state
	addl	$8, %esp
	.cfi_remember_state
	.cfi_def_cfa_offset 20
	xorl	%eax, %eax
	popl	%ebx
	.cfi_restore 3
	.cfi_def_cfa_offset 16
	popl	%esi
	.cfi_restore 6
	.cfi_def_cfa_offset 12
	popl	%edi
	.cfi_restore 7
	.cfi_def_cfa_offset 8
	popl	%ebp
	.cfi_restore 5
	.cfi_def_cfa_offset 4
	ret
.L145:
	.cfi_restore_state
	xorl	%eax, %eax
	.align 16
.L132:
	addl	$1, %eax
	cmpb	$0, (%edx,%eax)
	jne	.L132
	jmp	.L129
	.cfi_endproc
.LFE21:
	.size	strcmpy, .-strcmpy
	.align 16
	.globl	strchr
	.type	strchr, @function
strchr:
.LFB22:
	.cfi_startproc
	movl	4(%esp), %eax
	movzbl	8(%esp), %ecx
	jmp	.L147
	.align 16
.L149:
	addl	$1, %eax
	testb	%dl, %dl
	je	.L150
.L147:
	movzbl	(%eax), %edx
	cmpb	%cl, %dl
	jne	.L149
	rep ret
	.align 16
.L150:
	xorl	%eax, %eax
	ret
	.cfi_endproc
.LFE22:
	.size	strchr, .-strchr
	.align 16
	.globl	strspn
	.type	strspn, @function
strspn:
.LFB23:
	.cfi_startproc
	pushl	%edi
	.cfi_def_cfa_offset 8
	.cfi_offset 7, -8
	pushl	%esi
	.cfi_def_cfa_offset 12
	.cfi_offset 6, -12
	xorl	%eax, %eax
	pushl	%ebx
	.cfi_def_cfa_offset 16
	.cfi_offset 3, -16
	movl	16(%esp), %esi
	movl	20(%esp), %edi
	movzbl	(%esi), %ebx
	testb	%bl, %bl
	je	.L151
	.align 16
.L156:
	movl	%edi, %edx
	jmp	.L153
	.align 16
.L154:
	addl	$1, %edx
	testb	%cl, %cl
	je	.L151
.L153:
	movzbl	(%edx), %ecx
	cmpb	%bl, %cl
	jne	.L154
	addl	$1, %eax
	movzbl	(%esi,%eax), %ebx
	testb	%bl, %bl
	jne	.L156
.L151:
	popl	%ebx
	.cfi_restore 3
	.cfi_def_cfa_offset 12
	popl	%esi
	.cfi_restore 6
	.cfi_def_cfa_offset 8
	popl	%edi
	.cfi_restore 7
	.cfi_def_cfa_offset 4
	ret
	.cfi_endproc
.LFE23:
	.size	strspn, .-strspn
	.align 16
	.globl	strcspn
	.type	strcspn, @function
strcspn:
.LFB24:
	.cfi_startproc
	pushl	%edi
	.cfi_def_cfa_offset 8
	.cfi_offset 7, -8
	pushl	%esi
	.cfi_def_cfa_offset 12
	.cfi_offset 6, -12
	xorl	%eax, %eax
	pushl	%ebx
	.cfi_def_cfa_offset 16
	.cfi_offset 3, -16
	movl	16(%esp), %esi
	movl	20(%esp), %edi
	movzbl	(%esi), %ebx
	testb	%bl, %bl
	je	.L164
	.align 16
.L171:
	movl	%edi, %edx
	jmp	.L168
	.align 16
.L169:
	addl	$1, %edx
	testb	%cl, %cl
	je	.L175
.L168:
	movzbl	(%edx), %ecx
	cmpb	%bl, %cl
	jne	.L169
.L164:
	popl	%ebx
	.cfi_remember_state
	.cfi_restore 3
	.cfi_def_cfa_offset 12
	popl	%esi
	.cfi_restore 6
	.cfi_def_cfa_offset 8
	popl	%edi
	.cfi_restore 7
	.cfi_def_cfa_offset 4
	ret
	.align 16
.L175:
	.cfi_restore_state
	addl	$1, %eax
	movzbl	(%esi,%eax), %ebx
	testb	%bl, %bl
	jne	.L171
	popl	%ebx
	.cfi_restore 3
	.cfi_def_cfa_offset 12
	popl	%esi
	.cfi_restore 6
	.cfi_def_cfa_offset 8
	popl	%edi
	.cfi_restore 7
	.cfi_def_cfa_offset 4
	ret
	.cfi_endproc
.LFE24:
	.size	strcspn, .-strcspn
	.align 16
	.globl	strtok
	.type	strtok, @function
strtok:
.LFB25:
	.cfi_startproc
	pushl	%edi
	.cfi_def_cfa_offset 8
	.cfi_offset 7, -8
	pushl	%esi
	.cfi_def_cfa_offset 12
	.cfi_offset 6, -12
	pushl	%ebx
	.cfi_def_cfa_offset 16
	.cfi_offset 3, -16
	movl	16(%esp), %edi
	movl	20(%esp), %esi
	testl	%edi, %edi
	je	.L177
	movl	%edi, p.1398
.L178:
	movzbl	(%edi), %ecx
	testb	%cl, %cl
	je	.L180
	xorl	%ebx, %ebx
	.align 16
.L190:
	movl	%esi, %eax
	jmp	.L181
	.align 16
.L183:
	addl	$1, %eax
	testb	%dl, %dl
	je	.L182
.L181:
	movzbl	(%eax), %edx
	cmpb	%cl, %dl
	jne	.L183
	addl	$1, %ebx
	movzbl	(%edi,%ebx), %ecx
	testb	%cl, %cl
	jne	.L190
	.align 16
.L182:
	leal	(%edi,%ebx), %eax
	movzbl	(%eax), %ebx
	testb	%bl, %bl
	je	.L180
	xorl	%edi, %edi
	.align 16
.L191:
	movl	%esi, %edx
	jmp	.L187
	.align 16
.L188:
	addl	$1, %edx
	testb	%cl, %cl
	je	.L207
.L187:
	movzbl	(%edx), %ecx
	cmpb	%bl, %cl
	jne	.L188
.L192:
	addl	%eax, %edi
	cmpl	%edi, %eax
	movl	%edi, p.1398
	je	.L180
	xorl	%edx, %edx
	cmpb	$0, (%edi)
	je	.L189
	leal	1(%edi), %edx
	movb	$0, (%edi)
.L189:
	movl	%edx, p.1398
.L176:
	popl	%ebx
	.cfi_remember_state
	.cfi_restore 3
	.cfi_def_cfa_offset 12
	popl	%esi
	.cfi_restore 6
	.cfi_def_cfa_offset 8
	popl	%edi
	.cfi_restore 7
	.cfi_def_cfa_offset 4
	ret
	.align 16
.L207:
	.cfi_restore_state
	addl	$1, %edi
	movzbl	(%eax,%edi), %ebx
	testb	%bl, %bl
	jne	.L191
	jmp	.L192
.L177:
	movl	p.1398, %edi
	testl	%edi, %edi
	jne	.L178
	xorl	%eax, %eax
	jmp	.L176
	.align 16
.L180:
	movl	$0, p.1398
	xorl	%eax, %eax
	jmp	.L176
	.cfi_endproc
.LFE25:
	.size	strtok, .-strtok
	.align 16
	.globl	strstr
	.type	strstr, @function
strstr:
.LFB26:
	.cfi_startproc
	pushl	%ebp
	.cfi_def_cfa_offset 8
	.cfi_offset 5, -8
	pushl	%edi
	.cfi_def_cfa_offset 12
	.cfi_offset 7, -12
	pushl	%esi
	.cfi_def_cfa_offset 16
	.cfi_offset 6, -16
	pushl	%ebx
	.cfi_def_cfa_offset 20
	.cfi_offset 3, -20
	subl	$12, %esp
	.cfi_def_cfa_offset 32
	movl	36(%esp), %ebp
	movl	32(%esp), %ebx
	movzbl	0(%ebp), %esi
	movl	%ebx, %eax
	movl	%esi, %ecx
	testb	%cl, %cl
	je	.L208
	xorl	%edi, %edi
	.align 16
.L210:
	addl	$1, %edi
	cmpb	$0, 0(%ebp,%edi)
	jne	.L210
	movzbl	(%ebx), %eax
	movl	%esi, %edx
	cmpb	%al, %dl
	je	.L226
	.align 16
.L213:
	addl	$1, %ebx
	testb	%al, %al
	je	.L217
.L212:
	movzbl	(%ebx), %eax
	movl	%esi, %edx
	cmpb	%al, %dl
	jne	.L213
.L226:
	movl	%edi, %ecx
	movl	%ebp, %edx
	movl	%ebx, %eax
	call	strncmp.part.0
	testl	%eax, %eax
	je	.L227
	addl	$1, %ebx
	jmp	.L212
	.align 16
.L217:
	xorl	%eax, %eax
.L208:
	addl	$12, %esp
	.cfi_remember_state
	.cfi_def_cfa_offset 20
	popl	%ebx
	.cfi_restore 3
	.cfi_def_cfa_offset 16
	popl	%esi
	.cfi_restore 6
	.cfi_def_cfa_offset 12
	popl	%edi
	.cfi_restore 7
	.cfi_def_cfa_offset 8
	popl	%ebp
	.cfi_restore 5
	.cfi_def_cfa_offset 4
	ret
.L227:
	.cfi_restore_state
	addl	$12, %esp
	.cfi_def_cfa_offset 20
	movl	%ebx, %eax
	popl	%ebx
	.cfi_restore 3
	.cfi_def_cfa_offset 16
	popl	%esi
	.cfi_restore 6
	.cfi_def_cfa_offset 12
	popl	%edi
	.cfi_restore 7
	.cfi_def_cfa_offset 8
	popl	%ebp
	.cfi_restore 5
	.cfi_def_cfa_offset 4
	ret
	.cfi_endproc
.LFE26:
	.size	strstr, .-strstr
	.align 16
	.globl	stroccr
	.type	stroccr, @function
stroccr:
.LFB27:
	.cfi_startproc
	pushl	%ebx
	.cfi_def_cfa_offset 8
	.cfi_offset 3, -8
	movl	8(%esp), %ecx
	xorl	%eax, %eax
	movzbl	12(%esp), %ebx
	movzbl	(%ecx), %edx
	testb	%dl, %dl
	je	.L228
	.align 16
.L231:
	cmpb	%dl, %bl
	sete	%dl
	addl	$1, %ecx
	movzbl	%dl, %edx
	addl	%edx, %eax
	movzbl	(%ecx), %edx
	testb	%dl, %dl
	jne	.L231
.L228:
	popl	%ebx
	.cfi_restore 3
	.cfi_def_cfa_offset 4
	ret
	.cfi_endproc
.LFE27:
	.size	stroccr, .-stroccr
	.align 16
	.globl	delay
	.type	delay, @function
delay:
.LFB30:
	.cfi_startproc
	rep ret
	.cfi_endproc
.LFE30:
	.size	delay, .-delay
	.align 16
	.globl	mouse_wait
	.type	mouse_wait, @function
mouse_wait:
.LFB43:
	.cfi_startproc
	cmpb	$0, 4(%esp)
	jne	.L237
	jmp	mouse_wait.part.1
	.align 16
.L237:
	movl	$100000, %edx
	jmp	.L239
	.align 16
.L244:
	subl	$1, %edx
	je	.L236
.L239:
/APP
/  45 "Library/sys.h" 1
	inb $100, %al
/  0 "" 2
/NO_APP
	testb	$2, %al
	jne	.L244
.L236:
	rep ret
	.cfi_endproc
.LFE43:
	.size	mouse_wait, .-mouse_wait
	.align 16
	.globl	mouse_write
	.type	mouse_write, @function
mouse_write:
.LFB44:
	.cfi_startproc
	movl	4(%esp), %ecx
	movl	$100000, %edx
	jmp	.L247
	.align 16
.L258:
	subl	$1, %edx
	je	.L246
.L247:
/APP
/  45 "Library/sys.h" 1
	inb $100, %al
/  0 "" 2
/NO_APP
	testb	$2, %al
	jne	.L258
.L246:
	movl	$-44, %eax
/APP
/  37 "Library/sys.h" 1
	outb %al, $100
/  0 "" 2
/NO_APP
	movl	$100000, %edx
	jmp	.L249
	.align 16
.L259:
	subl	$1, %edx
	je	.L248
.L249:
/APP
/  45 "Library/sys.h" 1
	inb $100, %al
/  0 "" 2
/NO_APP
	testb	$2, %al
	jne	.L259
.L248:
	movl	%ecx, %eax
/APP
/  37 "Library/sys.h" 1
	outb %al, $96
/  0 "" 2
/NO_APP
	ret
	.cfi_endproc
.LFE44:
	.size	mouse_write, .-mouse_write
	.align 16
	.globl	mouse_read
	.type	mouse_read, @function
mouse_read:
.LFB45:
	.cfi_startproc
	subl	$12, %esp
	.cfi_def_cfa_offset 16
	call	mouse_wait.part.1
/APP
/  45 "Library/sys.h" 1
	inb $96, %al
/  0 "" 2
/NO_APP
	addl	$12, %esp
	.cfi_def_cfa_offset 4
	ret
	.cfi_endproc
.LFE45:
	.size	mouse_read, .-mouse_read
	.align 16
	.globl	mouseinit
	.type	mouseinit, @function
mouseinit:
.LFB46:
	.cfi_startproc
	subl	$12, %esp
	.cfi_def_cfa_offset 16
	movl	$100000, %edx
	jmp	.L264
	.align 16
.L312:
	subl	$1, %edx
	je	.L263
.L264:
/APP
/  45 "Library/sys.h" 1
	inb $100, %al
/  0 "" 2
/NO_APP
	testb	$2, %al
	jne	.L312
.L263:
	movl	$-88, %eax
/APP
/  37 "Library/sys.h" 1
	outb %al, $100
/  0 "" 2
/NO_APP
	movl	$100000, %edx
	jmp	.L266
	.align 16
.L313:
	subl	$1, %edx
	je	.L265
.L266:
/APP
/  45 "Library/sys.h" 1
	inb $100, %al
/  0 "" 2
/NO_APP
	testb	$2, %al
	jne	.L313
.L265:
	movl	$32, %eax
/APP
/  37 "Library/sys.h" 1
	outb %al, $100
/  0 "" 2
/NO_APP
	call	mouse_wait.part.1
/APP
/  45 "Library/sys.h" 1
	inb $96, %al
/  0 "" 2
/NO_APP
	orl	$2, %eax
	movl	$100000, %edx
	movl	%eax, %ecx
	jmp	.L268
	.align 16
.L314:
	subl	$1, %edx
	je	.L267
.L268:
/APP
/  45 "Library/sys.h" 1
	inb $100, %al
/  0 "" 2
/NO_APP
	testb	$2, %al
	jne	.L314
.L267:
	movl	$96, %eax
/APP
/  37 "Library/sys.h" 1
	outb %al, $100
/  0 "" 2
/NO_APP
	movl	$100000, %edx
	jmp	.L270
	.align 16
.L315:
	subl	$1, %edx
	je	.L269
.L270:
/APP
/  45 "Library/sys.h" 1
	inb $100, %al
/  0 "" 2
/NO_APP
	testb	$2, %al
	jne	.L315
.L269:
	movl	%ecx, %eax
/APP
/  37 "Library/sys.h" 1
	outb %al, $96
/  0 "" 2
/NO_APP
	movl	$100000, %edx
	jmp	.L272
	.align 16
.L316:
	subl	$1, %edx
	je	.L271
.L272:
/APP
/  45 "Library/sys.h" 1
	inb $100, %al
/  0 "" 2
/NO_APP
	testb	$2, %al
	jne	.L316
.L271:
	movl	$-44, %eax
/APP
/  37 "Library/sys.h" 1
	outb %al, $100
/  0 "" 2
/NO_APP
	movl	$100000, %edx
	jmp	.L274
	.align 16
.L317:
	subl	$1, %edx
	je	.L273
.L274:
/APP
/  45 "Library/sys.h" 1
	inb $100, %al
/  0 "" 2
/NO_APP
	testb	$2, %al
	jne	.L317
.L273:
	movl	$-10, %eax
/APP
/  37 "Library/sys.h" 1
	outb %al, $96
/  0 "" 2
/NO_APP
	call	mouse_wait.part.1
/APP
/  45 "Library/sys.h" 1
	inb $96, %al
/  0 "" 2
/NO_APP
	movl	$100000, %edx
	jmp	.L276
	.align 16
.L318:
	subl	$1, %edx
	je	.L275
.L276:
/APP
/  45 "Library/sys.h" 1
	inb $100, %al
/  0 "" 2
/NO_APP
	testb	$2, %al
	jne	.L318
.L275:
	movl	$-44, %eax
/APP
/  37 "Library/sys.h" 1
	outb %al, $100
/  0 "" 2
/NO_APP
	movl	$100000, %edx
	jmp	.L278
	.align 16
.L319:
	subl	$1, %edx
	je	.L277
.L278:
/APP
/  45 "Library/sys.h" 1
	inb $100, %al
/  0 "" 2
/NO_APP
	testb	$2, %al
	jne	.L319
.L277:
	movl	$-12, %eax
/APP
/  37 "Library/sys.h" 1
	outb %al, $96
/  0 "" 2
/NO_APP
	call	mouse_wait.part.1
/APP
/  45 "Library/sys.h" 1
	inb $96, %al
/  0 "" 2
/NO_APP
	addl	$12, %esp
	.cfi_def_cfa_offset 4
	ret
	.cfi_endproc
.LFE46:
	.size	mouseinit, .-mouseinit
	.align 16
	.globl	mouse_updater
	.type	mouse_updater, @function
mouse_updater:
.LFB47:
	.cfi_startproc
	movl	cycle, %edx
	cmpl	$2, %edx
	ja	.L325
	.align 16
.L321:
	addl	$mouse_bytes, %edx
	.align 16
.L324:
/APP
/  45 "Library/sys.h" 1
	inb $96, %al
/  0 "" 2
/NO_APP
	movb	%al, (%edx)
	addl	$1, %edx
	cmpl	$mouse_bytes+3, %edx
	jne	.L324
.L325:
	movzbl	mouse_bytes, %eax
	testb	%al, %al
	js	.L322
	testb	$64, %al
	jne	.L322
	testb	$32, %al
	jne	.L328
	movl	mousedeltay, %edx
	orl	$-256, %edx
	movl	%edx, mousedeltay
.L328:
	testb	$16, %al
	jne	.L329
	movl	mousedeltax, %eax
	orl	$-256, %eax
	movl	%eax, mousedeltax
.L329:
	movsbl	mouse_bytes+1, %eax
	movl	%eax, mousedeltax
	movsbl	mouse_bytes+2, %eax
	movl	%eax, mousedeltay
/APP
/  103 "Source/Drivers/mouse/mouse.c" 1
	int $50
/  0 "" 2
/NO_APP
	xorl	%edx, %edx
	jmp	.L321
.L322:
	movl	$0, cycle
	ret
	.cfi_endproc
.LFE47:
	.size	mouse_updater, .-mouse_updater
	.comm	consolerow,4,4
	.comm	consolecolumn,4,4
	.comm	console_color,1,1
	.comm	console_dbuffer,4,4
	.comm	console_dbuffer_original,4,4
	.comm	console_dbuffer_limit,4,4
	.globl	console_rows_skipped
	.section	.bss
	.align 4
	.type	console_rows_skipped, @object
	.size	console_rows_skipped, 4
console_rows_skipped:
	.zero	4
	.globl	console_skip
	.align 4
	.type	console_skip, @object
	.size	console_skip, 4
console_skip:
	.zero	4
	.comm	console_buffer,4,4
	.comm	default_console_color,4,4
	.comm	mdbug,4,4
	.comm	vesa,4,4
	.comm	kmalloc,4,4
	.text
	.align 16
	.type	print, @function
print:
.LFB48:
	.cfi_startproc
	pushl	%esi
	.cfi_def_cfa_offset 8
	.cfi_offset 6, -8
	pushl	%ebx
	.cfi_def_cfa_offset 12
	.cfi_offset 3, -12
	leal	(%eax,%edx), %esi
	subl	$4, %esp
	.cfi_def_cfa_offset 16
	testl	%edx, %edx
	je	.L332
	movl	%eax, %ebx
	.align 16
.L336:
	movsbl	(%ebx), %eax
	subl	$12, %esp
	.cfi_def_cfa_offset 28
	addl	$1, %ebx
	pushl	%eax
	.cfi_def_cfa_offset 32
	call	console_putchar
	addl	$16, %esp
	.cfi_def_cfa_offset 16
	cmpl	%ebx, %esi
	jne	.L336
.L332:
	addl	$4, %esp
	.cfi_def_cfa_offset 12
	popl	%ebx
	.cfi_restore 3
	.cfi_def_cfa_offset 8
	popl	%esi
	.cfi_restore 6
	.cfi_def_cfa_offset 4
	ret
	.cfi_endproc
.LFE48:
	.size	print, .-print
	.globl	plock
	.section	.bss
	.align 4
	.type	plock, @object
	.size	plock, 4
plock:
	.zero	4
	.text
	.align 16
	.globl	scanf
	.type	scanf, @function
scanf:
.LFB50:
	.cfi_startproc
	pushl	%ebp
	.cfi_def_cfa_offset 8
	.cfi_offset 5, -8
	pushl	%edi
	.cfi_def_cfa_offset 12
	.cfi_offset 7, -12
	pushl	%esi
	.cfi_def_cfa_offset 16
	.cfi_offset 6, -16
	pushl	%ebx
	.cfi_def_cfa_offset 20
	.cfi_offset 3, -20
	subl	$92, %esp
	.cfi_def_cfa_offset 112
	movl	plock, %eax
	movl	112(%esp), %ebx
	movl	%eax, 4(%esp)
	.align 16
.L340:
	testl	%eax, %eax
	jne	.L340
	movzbl	(%ebx), %edx
	leal	116(%esp), %eax
	movl	$1, plock
	movb	$0, 11(%esp)
	movl	%eax, 12(%esp)
.L341:
	testb	%dl, %dl
	je	.L379
	.align 16
.L354:
	cmpb	$37, %dl
	je	.L342
	movzbl	1(%ebx), %eax
	leal	1(%ebx), %esi
.L343:
.L344:
	testb	%al, %al
	je	.L345
.L384:
	cmpb	$37, %al
	je	.L345
	leal	2(%ebx), %eax
	movl	$1, %edi
	jmp	.L346
	.align 16
.L380:
	cmpb	$37, %dl
	je	.L358
.L346:
	movzbl	(%eax), %edx
	addl	$1, %edi
	movl	%eax, %esi
	addl	$1, %eax
	testb	%dl, %dl
	jne	.L380
.L358:
	testl	%edi, %edi
	je	.L348
	xorl	%ebp, %ebp
	.align 16
.L349:
	movsbl	(%ebx,%ebp), %eax
	subl	$12, %esp
	.cfi_def_cfa_offset 124
	addl	$1, %ebp
	pushl	%eax
	.cfi_def_cfa_offset 128
	call	_putchar
	addl	$16, %esp
	.cfi_def_cfa_offset 112
	cmpl	%ebp, %edi
	ja	.L349
.L355:
	movzbl	(%esi), %edx
.L348:
	addl	%edi, 4(%esp)
	testb	%dl, %dl
	movl	%esi, %ebx
	jne	.L354
.L379:
	movl	4(%esp), %eax
	movl	$0, plock
	addl	$92, %esp
	.cfi_remember_state
	.cfi_def_cfa_offset 20
	popl	%ebx
	.cfi_restore 3
	.cfi_def_cfa_offset 16
	popl	%esi
	.cfi_restore 6
	.cfi_def_cfa_offset 12
	popl	%edi
	.cfi_restore 7
	.cfi_def_cfa_offset 8
	popl	%ebp
	.cfi_restore 5
	.cfi_def_cfa_offset 4
	ret
	.align 16
.L342:
	.cfi_restore_state
	movzbl	1(%ebx), %eax
	leal	1(%ebx), %edx
	cmpb	$37, %al
	je	.L381
	cmpb	$0, 11(%esp)
	jne	.L356
	cmpb	$100, %al
	je	.L382
	cmpb	$115, %al
	je	.L383
	testb	%al, %al
	movl	%edx, %esi
	movb	$1, 11(%esp)
	jne	.L384
.L345:
	movsbl	(%ebx), %eax
	subl	$12, %esp
	.cfi_def_cfa_offset 124
	movl	$1, %edi
	pushl	%eax
	.cfi_def_cfa_offset 128
	call	_putchar
	addl	$16, %esp
	.cfi_def_cfa_offset 112
	jmp	.L355
	.align 16
.L356:
	movl	%edx, %esi
	jmp	.L344
.L381:
	leal	2(%ebx), %esi
	movzbl	2(%ebx), %eax
	movl	%edx, %ebx
	jmp	.L344
.L382:
	movl	12(%esp), %ecx
	subl	$8, %esp
	.cfi_def_cfa_offset 120
	leal	2(%ebx), %esi
	movl	%ecx, %eax
	addl	$4, %ecx
	movl	%ecx, 20(%esp)
	movl	(%eax), %ebp
	pushl	$15
	.cfi_def_cfa_offset 124
	leal	42(%esp), %eax
	pushl	%eax
	.cfi_def_cfa_offset 128
	call	kb_getline
	popl	%eax
	.cfi_def_cfa_offset 124
	leal	42(%esp), %eax
	pushl	%eax
	.cfi_def_cfa_offset 128
	call	StrToInt
	addl	$16, %esp
	.cfi_def_cfa_offset 112
	movl	%eax, 0(%ebp)
	movzbl	2(%ebx), %edx
	movl	%esi, %ebx
	jmp	.L341
.L383:
	movl	12(%esp), %ecx
	subl	$8, %esp
	.cfi_def_cfa_offset 120
	leal	2(%ebx), %esi
	movl	%ecx, %eax
	addl	$4, %ecx
	movl	%ecx, 20(%esp)
	movl	(%eax), %ebp
	pushl	$50
	.cfi_def_cfa_offset 124
	leal	42(%esp), %eax
	pushl	%eax
	.cfi_def_cfa_offset 128
	call	kb_getline
	movzbl	46(%esp), %edx
	addl	$16, %esp
	.cfi_def_cfa_offset 112
	movl	%ebp, %eax
	leal	30(%esp), %ecx
	subl	%ebp, %ecx
	.align 16
.L353:
	addl	$1, %eax
	movb	%dl, -1(%eax)
	movzbl	(%eax,%ecx), %edx
	testb	%dl, %dl
	jne	.L353
	movb	$0, (%eax)
	movzbl	2(%ebx), %edx
	movl	%esi, %ebx
	jmp	.L341
	.cfi_endproc
.LFE50:
	.size	scanf, .-scanf
	.align 16
	.globl	printf
	.type	printf, @function
printf:
.LFB51:
	.cfi_startproc
	pushl	%ebp
	.cfi_def_cfa_offset 8
	.cfi_offset 5, -8
	pushl	%edi
	.cfi_def_cfa_offset 12
	.cfi_offset 7, -12
	xorl	%ecx, %ecx
	pushl	%esi
	.cfi_def_cfa_offset 16
	.cfi_offset 6, -16
	pushl	%ebx
	.cfi_def_cfa_offset 20
	.cfi_offset 3, -20
	movl	$1, %edx
	subl	$76, %esp
	.cfi_def_cfa_offset 96
	movl	96(%esp), %esi
	.align 16
.L386:
	movl	%ecx, %eax
	lock cmpxchgl	%edx, printlockLocked
	sete	%bl
	jne	.L386
	lock orl	$0, (%esp)
	movl	multitasking_ON, %eax
	testl	%eax, %eax
	je	.L387
	movzbl	(%esi), %eax
	leal	100(%esp), %edx
	movb	%bl, 31(%esp)
	movb	$0, 8(%esp)
	movl	$0, 20(%esp)
	movl	%edx, %ebx
.L388:
	testb	%al, %al
	je	.L479
.L410:
	cmpb	$37, %al
	je	.L389
	movzbl	1(%esi), %eax
	leal	1(%esi), %edi
.L390:
.L391:
	cmpb	$37, %al
	je	.L392
.L493:
	testb	%al, %al
	je	.L392
	leal	2(%esi), %ecx
	movl	$1, %ebp
	jmp	.L393
.L480:
	cmpb	$37, %al
	je	.L440
.L393:
	movzbl	(%ecx), %eax
	addl	$1, %ebp
	movl	%ecx, %edi
	addl	$1, %ecx
	testb	%al, %al
	jne	.L480
.L440:
	testl	%ebp, %ebp
	je	.L395
	xorl	%ecx, %ecx
	movl	%ebx, 24(%esp)
	movl	%ecx, %ebx
.L396:
	movsbl	(%esi,%ebx), %eax
	subl	$12, %esp
	.cfi_def_cfa_offset 108
	addl	$1, %ebx
	pushl	%eax
	.cfi_def_cfa_offset 112
	call	_putchar
	addl	$16, %esp
	.cfi_def_cfa_offset 96
	cmpl	%ebx, %ebp
	ja	.L396
	movl	24(%esp), %ebx
.L433:
	movzbl	(%edi), %eax
.L395:
	addl	%ebp, 20(%esp)
	testb	%al, %al
	movl	%edi, %esi
	jne	.L410
.L479:
	movl	$0, plock
	lock orl	$0, (%esp)
	movl	$0, printlockLocked
	movl	20(%esp), %eax
	addl	$76, %esp
	.cfi_remember_state
	.cfi_def_cfa_offset 20
	popl	%ebx
	.cfi_restore 3
	.cfi_def_cfa_offset 16
	popl	%esi
	.cfi_restore 6
	.cfi_def_cfa_offset 12
	popl	%edi
	.cfi_restore 7
	.cfi_def_cfa_offset 8
	popl	%ebp
	.cfi_restore 5
	.cfi_def_cfa_offset 4
	ret
.L387:
	.cfi_restore_state
	leal	100(%esp), %edi
	movb	$0, 8(%esp)
	movl	$0, 20(%esp)
.L412:
	movzbl	(%esi), %eax
	testb	%al, %al
	je	.L479
	cmpb	$37, %al
	je	.L413
	movzbl	1(%esi), %eax
	leal	1(%esi), %ebp
.L414:
.L415:
	testb	%al, %al
	je	.L436
.L486:
	cmpb	$37, %al
	je	.L436
	leal	2(%esi), %eax
	movl	$1, %ecx
	jmp	.L417
.L481:
	cmpb	$37, %dl
	je	.L416
.L417:
	movzbl	(%eax), %edx
	addl	$1, %ecx
	movl	%eax, %ebp
	addl	$1, %eax
	testb	%dl, %dl
	jne	.L481
.L416:
	movl	%ecx, %edx
	movl	%esi, %eax
	movl	%ecx, 24(%esp)
	movl	%ebp, %esi
	call	print
	movl	24(%esp), %ecx
	addl	%ecx, 20(%esp)
	jmp	.L412
.L413:
	leal	1(%esi), %eax
	movl	%eax, 24(%esp)
	movzbl	1(%esi), %eax
	cmpb	$37, %al
	je	.L482
	cmpb	$0, 8(%esp)
	jne	.L437
	cmpb	$99, %al
	je	.L483
	cmpb	$115, %al
	je	.L484
	cmpb	$105, %al
	sete	%dl
	cmpb	$100, %al
	sete	%cl
	orb	%cl, %dl
	jne	.L478
	cmpb	$108, %al
	sete	%dl
	cmpb	$120, %al
	sete	%cl
	orb	%cl, %dl
	jne	.L478
	cmpb	$97, %al
	sete	%dl
	cmpb	$76, %al
	sete	%cl
	orb	%cl, %dl
	movb	%dl, 8(%esp)
	jne	.L485
	cmpb	$112, %al
	je	.L441
	cmpb	$103, %al
	je	.L441
	testb	%al, %al
	leal	1(%esi), %ebp
	movb	%bl, 8(%esp)
	jne	.L486
.L436:
	movl	$1, %ecx
	jmp	.L416
	.align 16
.L389:
	leal	1(%esi), %eax
	movl	%eax, 24(%esp)
	movzbl	1(%esi), %eax
	cmpb	$37, %al
	je	.L487
	cmpb	$0, 8(%esp)
	jne	.L434
	cmpb	$99, %al
	je	.L488
	cmpb	$115, %al
	je	.L489
	cmpb	$105, %al
	sete	%dl
	cmpb	$100, %al
	movl	%edx, %ebp
	sete	%dl
	movl	%ebp, %ecx
	orb	%dl, %cl
	jne	.L490
	cmpb	$108, %al
	sete	%dl
	cmpb	$120, %al
	movl	%edx, %ebp
	sete	%dl
	movl	%ebp, %ecx
	orb	%dl, %cl
	movb	%cl, 8(%esp)
	jne	.L491
	cmpb	$112, %al
	sete	%dl
	cmpb	$103, %al
	movl	%edx, %ebp
	sete	%dl
	movl	%ebp, %ecx
	orb	%dl, %cl
	jne	.L492
	movzbl	31(%esp), %edx
	cmpb	$102, %al
	leal	1(%esi), %edi
	movb	%dl, 8(%esp)
	jne	.L391
	fldl	(%ebx)
	leal	2(%esi), %edi
	leal	8(%ebx), %ebp
	fldz
	fucomip	%st(1), %st
	jbe	.L432
	fstpl	8(%esp)
	subl	$12, %esp
	.cfi_def_cfa_offset 108
	pushl	$45
	.cfi_def_cfa_offset 112
	call	_putchar
	fldl	24(%esp)
	addl	$16, %esp
	.cfi_def_cfa_offset 96
	fchs
.L432:
	fnstcw	38(%esp)
	movzwl	38(%esp), %eax
	movl	$0, 12(%esp)
	movb	$12, %ah
	movw	%ax, 36(%esp)
	fldcw	36(%esp)
	fistl	32(%esp)
	fldcw	38(%esp)
	subl	$12, %esp
	.cfi_def_cfa_offset 108
	movl	44(%esp), %eax
	movl	%eax, 20(%esp)
	fildq	20(%esp)
	fsubrp	%st, %st(1)
	fstpl	20(%esp)
	pushl	%eax
	.cfi_def_cfa_offset 112
	call	_printint
	movl	$46, (%esp)
	call	_putchar
	fnstcw	54(%esp)
	fldl	24(%esp)
	movzwl	54(%esp), %eax
	fmuls	.LC1
	movb	$12, %ah
	movw	%ax, 52(%esp)
	fldcw	52(%esp)
	fistpl	48(%esp)
	fldcw	54(%esp)
	movl	48(%esp), %eax
	movl	%eax, (%esp)
.L477:
	call	_printint
	addl	$16, %esp
	.cfi_def_cfa_offset 96
	movzbl	2(%esi), %eax
	movl	%ebp, %ebx
	movb	$0, 8(%esp)
	movl	%edi, %esi
	jmp	.L388
	.align 16
.L437:
	leal	1(%esi), %ebp
	jmp	.L415
.L434:
	cmpb	$37, %al
	leal	1(%esi), %edi
	jne	.L493
.L392:
	movsbl	(%esi), %eax
	subl	$12, %esp
	.cfi_def_cfa_offset 108
	movl	$1, %ebp
	pushl	%eax
	.cfi_def_cfa_offset 112
	call	_putchar
	addl	$16, %esp
	.cfi_def_cfa_offset 96
	jmp	.L433
.L487:
	movzbl	2(%esi), %eax
	leal	2(%esi), %edi
	movl	24(%esp), %esi
	jmp	.L391
.L489:
	movl	%ebx, %eax
	xorl	%edi, %edi
	addl	$4, %ebx
	movl	(%eax), %ecx
	leal	2(%esi), %ebp
	cmpb	$0, (%ecx)
	je	.L476
.L457:
	addl	$1, %edi
	cmpb	$0, (%ecx,%edi)
	jne	.L457
	addl	%ecx, %edi
.L403:
	movsbl	(%ecx), %eax
	subl	$12, %esp
	.cfi_def_cfa_offset 108
	movl	%ecx, 36(%esp)
	pushl	%eax
	.cfi_def_cfa_offset 112
	call	_putchar
	movl	40(%esp), %ecx
	addl	$16, %esp
	.cfi_def_cfa_offset 96
	addl	$1, %ecx
	cmpl	%ecx, %edi
	jne	.L403
.L476:
	movzbl	2(%esi), %eax
	movl	%ebp, %esi
	jmp	.L388
.L488:
	movsbl	(%ebx), %eax
	subl	$12, %esp
	.cfi_def_cfa_offset 108
	leal	2(%esi), %edi
	leal	4(%ebx), %ebp
	movl	%ebp, %ebx
	pushl	%eax
	.cfi_def_cfa_offset 112
	call	_putchar
	movzbl	2(%esi), %eax
	addl	$16, %esp
	.cfi_def_cfa_offset 96
	movl	%edi, %esi
	jmp	.L388
.L492:
	movl	%ebx, %eax
	addl	$4, %ebx
	leal	2(%esi), %ecx
	movl	(%eax), %eax
	testl	%eax, %eax
	jne	.L408
	movl	default_console_color, %eax
	movb	%al, console_color
	movzbl	2(%esi), %eax
	movl	%ecx, %esi
	jmp	.L388
.L491:
	subl	$12, %esp
	.cfi_remember_state
	.cfi_def_cfa_offset 108
	leal	2(%esi), %edi
	leal	4(%ebx), %ebp
	pushl	(%ebx)
	.cfi_def_cfa_offset 112
	jmp	.L477
.L490:
	.cfi_restore_state
	leal	4(%ebx), %ebp
	movl	(%ebx), %ebx
	leal	2(%esi), %edi
	testl	%ebx, %ebx
	jns	.L431
	subl	$12, %esp
	.cfi_def_cfa_offset 108
	negl	%ebx
	pushl	$45
	.cfi_def_cfa_offset 112
	call	_putchar
	addl	$16, %esp
	.cfi_def_cfa_offset 96
.L431:
	subl	$12, %esp
	.cfi_def_cfa_offset 108
	pushl	%ebx
	.cfi_def_cfa_offset 112
	movl	%ebp, %ebx
	call	_printint
	movzbl	2(%esi), %eax
	addl	$16, %esp
	.cfi_def_cfa_offset 96
	movl	%edi, %esi
	jmp	.L388
.L408:
	movb	%al, console_color
	movzbl	2(%esi), %eax
	movl	%ecx, %esi
	jmp	.L388
.L482:
	leal	2(%esi), %ebp
	movzbl	2(%esi), %eax
	movl	24(%esp), %esi
	jmp	.L415
.L484:
	movl	(%edi), %eax
	addl	$2, %esi
	xorl	%edx, %edx
	leal	4(%edi), %ebp
	cmpb	$0, (%eax)
	je	.L423
.L424:
	addl	$1, %edx
	cmpb	$0, (%eax,%edx)
	jne	.L424
.L423:
	call	print
	movl	%ebp, %edi
	jmp	.L412
.L483:
	movl	(%edi), %eax
	leal	4(%edi), %ebp
	movl	$1, %edx
	addl	$2, %esi
	movl	%ebp, %edi
	movb	%al, 63(%esp)
	leal	63(%esp), %eax
	call	print
	jmp	.L412
.L441:
	movl	%edi, %eax
	addl	$2, %esi
	addl	$4, %edi
	movl	(%eax), %eax
	testl	%eax, %eax
	jne	.L429
	movl	default_console_color, %eax
	movb	%al, console_color
	jmp	.L412
.L485:
	subl	$12, %esp
	.cfi_def_cfa_offset 108
	pushl	(%edi)
	.cfi_def_cfa_offset 112
	leal	8(%edi), %ebp
	addl	$2, %esi
	call	console_write_dec
	addl	$16, %esp
	.cfi_def_cfa_offset 96
	movl	%ebp, %edi
	movb	$0, 8(%esp)
	jmp	.L412
.L478:
	subl	$12, %esp
	.cfi_def_cfa_offset 108
	leal	4(%edi), %ebp
	pushl	(%edi)
	.cfi_def_cfa_offset 112
	addl	$2, %esi
	call	printint
	movl	%ebp, %edi
	addl	$16, %esp
	.cfi_def_cfa_offset 96
	jmp	.L412
.L429:
	movb	%al, console_color
	jmp	.L412
	.cfi_endproc
.LFE51:
	.size	printf, .-printf
	.comm	tbuf,32,32
	.globl	bchars
	.data
	.align 4
	.type	bchars, @object
	.size	bchars, 16
bchars:
	.byte	48
	.byte	49
	.byte	50
	.byte	51
	.byte	52
	.byte	53
	.byte	54
	.byte	55
	.byte	56
	.byte	57
	.byte	65
	.byte	66
	.byte	67
	.byte	68
	.byte	69
	.byte	70
	.text
	.align 16
	.globl	itoa
	.type	itoa, @function
itoa:
.LFB52:
	.cfi_startproc
	movl	4(%esp), %eax
	movl	8(%esp), %edx
	movl	12(%esp), %ecx
	testl	%eax, %eax
	je	.L495
	cmpl	$16, %ecx
	ja	.L495
	jmp	itoa.part.3
	.align 16
.L495:
	movb	$48, (%edx)
	movb	$0, 1(%edx)
	ret
	.cfi_endproc
.LFE52:
	.size	itoa, .-itoa
	.section	.rodata
.LC3:
	.string	"%s\n"
	.text
	.align 16
	.globl	puts
	.type	puts, @function
puts:
.LFB53:
	.cfi_startproc
	subl	$20, %esp
	.cfi_def_cfa_offset 24
	pushl	24(%esp)
	.cfi_def_cfa_offset 28
	pushl	$.LC3
	.cfi_def_cfa_offset 32
	call	printf
	addl	$28, %esp
	.cfi_def_cfa_offset 4
	ret
	.cfi_endproc
.LFE53:
	.size	puts, .-puts
	.comm	widthVESA,4,4
	.comm	heightVESA,4,4
	.comm	depthVESA,4,4
	.comm	vga_mem,4,4
	.comm	buff,4,4
	.comm	vesa_buff,4,4
	.align 16
	.globl	console_init
	.type	console_init, @function
console_init:
.LFB56:
	.cfi_startproc
	movl	$0, consolerow
	movl	$0, consolecolumn
	movl	$753664, %eax
	movb	$15, console_color
	movl	$15, default_console_color
	movl	$753664, console_buffer
	.align 16
.L499:
	leal	160(%eax), %edx
	.align 16
.L500:
	movl	$3872, %ecx
	addl	$2, %eax
	movw	%cx, -2(%eax)
	cmpl	%edx, %eax
	jne	.L500
	cmpl	$757664, %eax
	jne	.L499
	rep ret
	.cfi_endproc
.LFE56:
	.size	console_init, .-console_init
	.align 16
	.globl	console_putentryat
	.type	console_putentryat, @function
console_putentryat:
.LFB58:
	.cfi_startproc
	movl	16(%esp), %eax
	movl	console_buffer, %edx
	leal	(%eax,%eax,4), %eax
	sall	$4, %eax
	addl	12(%esp), %eax
	leal	(%edx,%eax,2), %ecx
	movzbl	8(%esp), %eax
	sall	$8, %eax
	movl	%eax, %edx
	movsbw	4(%esp), %ax
	orl	%edx, %eax
	movw	%ax, (%ecx)
	ret
	.cfi_endproc
.LFE58:
	.size	console_putentryat, .-console_putentryat
	.align 16
	.globl	console_putchar
	.type	console_putchar, @function
console_putchar:
.LFB59:
	.cfi_startproc
	pushl	%ebp
	.cfi_def_cfa_offset 8
	.cfi_offset 5, -8
	movl	$32, %edx
	movl	%esp, %ebp
	.cfi_def_cfa_register 5
	pushl	%edi
	pushl	%esi
	pushl	%ebx
	subl	$28, %esp
	.cfi_offset 7, -12
	.cfi_offset 6, -16
	.cfi_offset 3, -20
	movl	8(%ebp), %esi
	movl	consolerow, %edi
	movl	consolecolumn, %ebx
	leal	-9(%esi), %eax
	movl	%edi, -28(%ebp)
	leal	(%edi,%edi,4), %edi
	cmpb	$1, %al
	movl	console_buffer, %eax
	cmova	%esi, %edx
	sall	$4, %edi
	addl	%ebx, %edi
	movsbw	%dl, %dx
	leal	(%eax,%edi,2), %edi
	movl	%edi, %ecx
	movzbl	console_color, %edi
	sall	$8, %edi
	orl	%edi, %edx
	movw	%dx, (%ecx)
	leal	1(%ebx), %edx
	cmpl	$80, %edx
	je	.L521
	movl	%esi, %ecx
	cmpb	$10, %cl
	je	.L521
	addl	$6, %ebx
	cmpb	$9, %cl
	cmovne	%edx, %ebx
	movl	%ebx, consolecolumn
.L504:
	leal	-12(%ebp), %esp
	popl	%ebx
	.cfi_remember_state
	.cfi_restore 3
	popl	%esi
	.cfi_restore 6
	popl	%edi
	.cfi_restore 7
	popl	%ebp
	.cfi_restore 5
	.cfi_def_cfa 4, 4
	ret
.L521:
	.cfi_restore_state
	movl	-28(%ebp), %ecx
	movl	$0, consolecolumn
	addl	$1, %ecx
	cmpl	$25, %ecx
	movl	%ecx, consolerow
	jne	.L504
	movl	%esp, -28(%ebp)
	subl	$4336, %esp
	movl	$24, consolerow
	leal	4322(%esp), %ecx
	movl	%esp, -32(%ebp)
	movl	%esp, %edi
	movl	%esp, %edx
	.align 16
.L510:
	xorl	%ebx, %ebx
	addl	$2, %edx
	movw	%bx, -2(%edx)
	cmpl	%ecx, %edx
	jne	.L510
	leal	4000(%eax), %esi
	movl	%eax, %edx
	movl	%eax, -36(%ebp)
	.align 16
.L513:
	leal	160(%edx), %ebx
	movl	%edi, %eax
	.align 16
.L512:
	movzwl	(%edx), %ecx
	addl	$2, %edx
	addl	$2, %eax
	movw	%cx, -2(%eax)
	cmpl	%ebx, %edx
	jne	.L512
	addl	$160, %edi
	cmpl	%edx, %esi
	jne	.L513
	movl	-32(%ebp), %esi
	movl	-36(%ebp), %eax
	leal	160(%esi), %edx
	addl	$4160, %esi
	.align 16
.L516:
	leal	160(%edx), %edi
	movl	%eax, %ecx
	.align 16
.L515:
	movzwl	(%edx), %ebx
	addl	$2, %edx
	addl	$2, %ecx
	movw	%bx, -2(%ecx)
	cmpl	%edx, %edi
	jne	.L515
	addl	$160, %eax
	cmpl	%edi, %esi
	jne	.L516
	movl	-28(%ebp), %esp
	leal	-12(%ebp), %esp
	popl	%ebx
	.cfi_restore 3
	popl	%esi
	.cfi_restore 6
	popl	%edi
	.cfi_restore 7
	popl	%ebp
	.cfi_restore 5
	.cfi_def_cfa 4, 4
	ret
	.cfi_endproc
.LFE59:
	.size	console_putchar, .-console_putchar
	.align 16
	.globl	console_write
	.type	console_write, @function
console_write:
.LFB60:
	.cfi_startproc
	pushl	%esi
	.cfi_def_cfa_offset 8
	.cfi_offset 6, -8
	pushl	%ebx
	.cfi_def_cfa_offset 12
	.cfi_offset 3, -12
	subl	$4, %esp
	.cfi_def_cfa_offset 16
	movl	20(%esp), %eax
	movl	16(%esp), %ebx
	testl	%eax, %eax
	leal	(%ebx,%eax), %esi
	je	.L535
	.align 16
.L539:
	movsbl	(%ebx), %eax
	subl	$12, %esp
	.cfi_def_cfa_offset 28
	addl	$1, %ebx
	pushl	%eax
	.cfi_def_cfa_offset 32
	call	console_putchar
	addl	$16, %esp
	.cfi_def_cfa_offset 16
	cmpl	%esi, %ebx
	jne	.L539
.L535:
	addl	$4, %esp
	.cfi_def_cfa_offset 12
	popl	%ebx
	.cfi_restore 3
	.cfi_def_cfa_offset 8
	popl	%esi
	.cfi_restore 6
	.cfi_def_cfa_offset 4
	ret
	.cfi_endproc
.LFE60:
	.size	console_write, .-console_write
	.align 16
	.globl	console_writestring
	.type	console_writestring, @function
console_writestring:
.LFB61:
	.cfi_startproc
	jmp	printf
	.cfi_endproc
.LFE61:
	.size	console_writestring, .-console_writestring
	.align 16
	.globl	putchar
	.type	putchar, @function
putchar:
.LFB62:
	.cfi_startproc
	pushl	%ebx
	.cfi_def_cfa_offset 8
	.cfi_offset 3, -8
	subl	$20, %esp
	.cfi_def_cfa_offset 28
	movl	28(%esp), %ebx
	movsbl	%bl, %eax
	pushl	%eax
	.cfi_def_cfa_offset 32
	call	console_putchar
	addl	$24, %esp
	.cfi_def_cfa_offset 8
	movl	%ebx, %eax
	popl	%ebx
	.cfi_restore 3
	.cfi_def_cfa_offset 4
	ret
	.cfi_endproc
.LFE62:
	.size	putchar, .-putchar
	.align 16
	.globl	console_write_dec
	.type	console_write_dec, @function
console_write_dec:
.LFB63:
	.cfi_startproc
	pushl	%ebp
	.cfi_def_cfa_offset 8
	.cfi_offset 5, -8
	pushl	%edi
	.cfi_def_cfa_offset 12
	.cfi_offset 7, -12
	pushl	%esi
	.cfi_def_cfa_offset 16
	.cfi_offset 6, -16
	pushl	%ebx
	.cfi_def_cfa_offset 20
	.cfi_offset 3, -20
	subl	$12, %esp
	.cfi_def_cfa_offset 32
	movl	32(%esp), %edi
	testl	%edi, %edi
	je	.L552
	movl	%edi, %edx
	xorl	%esi, %esi
	movl	$-858993459, %ecx
	.align 16
.L547:
	movl	%edx, %eax
	addl	$1, %esi
	mull	%ecx
	shrl	$3, %edx
	testl	%edx, %edx
	jne	.L547
	testl	%esi, %esi
	movl	$1, %ebx
	je	.L545
	.align 16
.L553:
	leal	(%ebx,%ebx,4), %ebx
	addl	$1, %edx
	addl	%ebx, %ebx
	cmpl	%edx, %esi
	ja	.L553
.L546:
	movl	%ebx, %eax
	movl	$-858993459, %edx
	xorl	%ebp, %ebp
	mull	%edx
	movl	%edx, %ebx
	shrl	$3, %ebx
	.align 16
.L550:
	movl	%edi, %eax
	xorl	%edx, %edx
	subl	$12, %esp
	.cfi_def_cfa_offset 44
	divl	%ebx
	addl	$1, %ebp
	addl	$48, %eax
	movl	%edx, %edi
	movsbl	%al, %eax
	pushl	%eax
	.cfi_def_cfa_offset 48
	call	console_putchar
	movl	$-858993459, %eax
	addl	$16, %esp
	.cfi_def_cfa_offset 32
	mull	%ebx
	movl	%edx, %ebx
	shrl	$3, %ebx
	cmpl	%ebp, %esi
	ja	.L550
.L545:
	addl	$12, %esp
	.cfi_remember_state
	.cfi_def_cfa_offset 20
	popl	%ebx
	.cfi_restore 3
	.cfi_def_cfa_offset 16
	popl	%esi
	.cfi_restore 6
	.cfi_def_cfa_offset 12
	popl	%edi
	.cfi_restore 7
	.cfi_def_cfa_offset 8
	popl	%ebp
	.cfi_restore 5
	.cfi_def_cfa_offset 4
	ret
	.align 16
.L552:
	.cfi_restore_state
	movl	$1, %esi
	movl	$10, %ebx
	jmp	.L546
	.cfi_endproc
.LFE63:
	.size	console_write_dec, .-console_write_dec
	.align 16
	.globl	printint
	.type	printint, @function
printint:
.LFB64:
	.cfi_startproc
	pushl	%esi
	.cfi_def_cfa_offset 8
	.cfi_offset 6, -8
	pushl	%ebx
	.cfi_def_cfa_offset 12
	.cfi_offset 3, -12
	subl	$4, %esp
	.cfi_def_cfa_offset 16
	movl	16(%esp), %esi
	cmpl	$999999999, %esi
	jbe	.L569
	movl	%esi, %edx
	xorl	%ebx, %ebx
	movl	$-858993459, %ecx
	jmp	.L566
	.align 16
.L563:
	movl	%eax, %ebx
.L566:
	movl	%edx, %eax
	mull	%ecx
	leal	1(%ebx), %eax
	shrl	$3, %edx
	testl	%edx, %edx
	jne	.L563
	subl	$8, %ebx
	movl	$1, %ecx
	je	.L561
	.align 16
.L562:
	leal	(%ecx,%ecx,4), %ecx
	addl	$1, %edx
	addl	%ecx, %ecx
	cmpl	%edx, %ebx
	jne	.L562
.L561:
	movl	%esi, %eax
	xorl	%edx, %edx
	subl	$12, %esp
	.cfi_def_cfa_offset 28
	divl	%ecx
	pushl	%eax
	.cfi_def_cfa_offset 32
	movl	%edx, %esi
	call	console_write_dec
	movl	%esi, 32(%esp)
	addl	$20, %esp
	.cfi_def_cfa_offset 12
	popl	%ebx
	.cfi_restore 3
	.cfi_def_cfa_offset 8
	popl	%esi
	.cfi_restore 6
	.cfi_def_cfa_offset 4
	jmp	console_write_dec
	.align 16
.L569:
	.cfi_def_cfa_offset 16
	.cfi_offset 3, -12
	.cfi_offset 6, -8
	addl	$4, %esp
	.cfi_def_cfa_offset 12
	popl	%ebx
	.cfi_restore 3
	.cfi_def_cfa_offset 8
	popl	%esi
	.cfi_restore 6
	.cfi_def_cfa_offset 4
	jmp	console_write_dec
	.cfi_endproc
.LFE64:
	.size	printint, .-printint
	.align 16
	.globl	print64int
	.type	print64int, @function
print64int:
.LFB65:
	.cfi_startproc
	jmp	console_write_dec
	.cfi_endproc
.LFE65:
	.size	print64int, .-print64int
	.align 16
	.globl	_console_putentryat
	.type	_console_putentryat, @function
_console_putentryat:
.LFB66:
	.cfi_startproc
	movl	16(%esp), %eax
	movl	console_dbuffer, %edx
	leal	(%eax,%eax,4), %eax
	sall	$4, %eax
	addl	12(%esp), %eax
	leal	(%edx,%eax,2), %ecx
	movzbl	8(%esp), %eax
	sall	$8, %eax
	movl	%eax, %edx
	movsbw	4(%esp), %ax
	orl	%edx, %eax
	movw	%ax, (%ecx)
	ret
	.cfi_endproc
.LFE66:
	.size	_console_putentryat, .-_console_putentryat
	.align 16
	.globl	_putchar
	.type	_putchar, @function
_putchar:
.LFB67:
	.cfi_startproc
	pushl	%esi
	.cfi_def_cfa_offset 8
	.cfi_offset 6, -8
	pushl	%ebx
	.cfi_def_cfa_offset 12
	.cfi_offset 3, -12
	movl	12(%esp), %eax
	cmpb	$10, %al
	je	.L581
	movl	consolecolumn, %esi
	cmpb	$9, %al
	leal	5(%esi), %edx
	je	.L576
	movl	consolerow, %ecx
	movl	consolecolumn, %edx
	movl	console_dbuffer, %ebx
	leal	(%ecx,%ecx,4), %ecx
	sall	$4, %ecx
	addl	%edx, %ecx
	leal	(%ebx,%ecx,2), %esi
	movzbl	console_color, %ecx
	movl	%ecx, %ebx
	movsbw	%al, %cx
	sall	$8, %ebx
	orl	%ebx, %ecx
	movw	%cx, (%esi)
.L576:
	addl	$1, %edx
	cmpl	$79, %edx
	ja	.L577
	movl	%edx, consolecolumn
.L578:
	movsbl	%al, %eax
.L572:
	popl	%ebx
	.cfi_remember_state
	.cfi_restore 3
	.cfi_def_cfa_offset 8
	popl	%esi
	.cfi_restore 6
	.cfi_def_cfa_offset 4
	ret
	.align 16
.L577:
	.cfi_restore_state
	movl	consolerow, %esi
	movl	$0, consolecolumn
	leal	1(%esi), %edx
	cmpl	$24, %edx
	movl	%edx, consolerow
	jbe	.L578
	movl	console_rows_skipped, %edx
	addl	$1, %edx
	movl	%edx, console_rows_skipped
	movl	console_skip, %edx
	addl	$1, %edx
	movl	%edx, console_skip
	jmp	.L578
	.align 16
.L581:
	movl	consolerow, %eax
	movl	$0, consolecolumn
	leal	1(%eax), %edx
	movl	$10, %eax
	cmpl	$24, %edx
	movl	%edx, consolerow
	jbe	.L572
	movl	console_rows_skipped, %edx
	popl	%ebx
	.cfi_restore 3
	.cfi_def_cfa_offset 8
	popl	%esi
	.cfi_restore 6
	.cfi_def_cfa_offset 4
	addl	$1, %edx
	movl	%edx, console_rows_skipped
	movl	console_skip, %edx
	addl	$1, %edx
	movl	%edx, console_skip
	ret
	.cfi_endproc
.LFE67:
	.size	_putchar, .-_putchar
	.align 16
	.globl	_putchar_old
	.type	_putchar_old, @function
_putchar_old:
.LFB68:
	.cfi_startproc
	pushl	%ebp
	.cfi_def_cfa_offset 8
	.cfi_offset 5, -8
	movl	%esp, %ebp
	.cfi_def_cfa_register 5
	pushl	%edi
	pushl	%esi
	pushl	%ebx
	subl	$28, %esp
	.cfi_offset 7, -12
	.cfi_offset 6, -16
	.cfi_offset 3, -20
	movzbl	8(%ebp), %eax
	movzbl	8(%ebp), %esi
	movl	consolerow, %edx
	movl	consolecolumn, %ecx
	subl	$9, %eax
	leal	(%edx,%edx,4), %ebx
	cmpb	$1, %al
	movl	$32, %eax
	cmova	%esi, %eax
	movl	console_dbuffer, %esi
	sall	$4, %ebx
	addl	%ecx, %ebx
	cbtw
	leal	(%esi,%ebx,2), %edi
	movzbl	console_color, %ebx
	sall	$8, %ebx
	orl	%ebx, %eax
	movw	%ax, (%edi)
	leal	1(%ecx), %eax
	cmpl	$80, %eax
	je	.L599
	cmpb	$10, 8(%ebp)
	je	.L599
	addl	$6, %ecx
	cmpb	$9, 8(%ebp)
	cmovne	%eax, %ecx
	movl	%ecx, consolecolumn
.L587:
	movl	8(%ebp), %eax
	leal	-12(%ebp), %esp
	popl	%ebx
	.cfi_remember_state
	.cfi_restore 3
	popl	%esi
	.cfi_restore 6
	popl	%edi
	.cfi_restore 7
	popl	%ebp
	.cfi_restore 5
	.cfi_def_cfa 4, 4
	ret
.L599:
	.cfi_restore_state
	addl	$1, %edx
	movl	$0, consolecolumn
	cmpl	$25, %edx
	movl	%edx, consolerow
	jne	.L587
	movl	%esp, -28(%ebp)
	subl	$4336, %esp
	movl	$24, consolerow
	leal	4322(%esp), %edx
	movl	%esp, %eax
	movl	%esp, -32(%ebp)
	movl	%esp, %edi
	.align 16
.L588:
	xorl	%ecx, %ecx
	addl	$2, %eax
	movw	%cx, -2(%eax)
	cmpl	%edx, %eax
	jne	.L588
	leal	4000(%esi), %eax
	movl	%esi, -36(%ebp)
	movl	%eax, %ebx
	movl	%esi, %eax
	movl	%ebx, %esi
	.align 16
.L591:
	leal	160(%eax), %ebx
	movl	%edi, %edx
	.align 16
.L590:
	movzwl	(%eax), %ecx
	addl	$2, %eax
	addl	$2, %edx
	movw	%cx, -2(%edx)
	cmpl	%ebx, %eax
	jne	.L590
	addl	$160, %edi
	cmpl	%eax, %esi
	jne	.L591
	movl	-32(%ebp), %ebx
	movl	-36(%ebp), %esi
	movl	%ebx, %eax
	addl	$4160, %ebx
	addl	$160, %eax
	.align 16
.L594:
	leal	160(%eax), %edi
	movl	%esi, %edx
	.align 16
.L593:
	movzwl	(%eax), %ecx
	addl	$2, %eax
	addl	$2, %edx
	movw	%cx, -2(%edx)
	cmpl	%eax, %edi
	jne	.L593
	addl	$160, %esi
	cmpl	%edi, %ebx
	jne	.L594
	movl	8(%ebp), %eax
	movl	-28(%ebp), %esp
	leal	-12(%ebp), %esp
	popl	%ebx
	.cfi_restore 3
	popl	%esi
	.cfi_restore 6
	popl	%edi
	.cfi_restore 7
	popl	%ebp
	.cfi_restore 5
	.cfi_def_cfa 4, 4
	ret
	.cfi_endproc
.LFE68:
	.size	_putchar_old, .-_putchar_old
	.align 16
	.globl	_console_write_dec
	.type	_console_write_dec, @function
_console_write_dec:
.LFB69:
	.cfi_startproc
	pushl	%ebp
	.cfi_def_cfa_offset 8
	.cfi_offset 5, -8
	pushl	%edi
	.cfi_def_cfa_offset 12
	.cfi_offset 7, -12
	pushl	%esi
	.cfi_def_cfa_offset 16
	.cfi_offset 6, -16
	pushl	%ebx
	.cfi_def_cfa_offset 20
	.cfi_offset 3, -20
	movl	20(%esp), %edi
	testl	%edi, %edi
	je	.L620
	movl	%edi, %edx
	xorl	%esi, %esi
	movl	$-858993459, %ecx
	.align 16
.L615:
	movl	%edx, %eax
	addl	$1, %esi
	mull	%ecx
	shrl	$3, %edx
	testl	%edx, %edx
	jne	.L615
	testl	%esi, %esi
	movl	$1, %ebx
	je	.L613
	.align 16
.L621:
	leal	(%ebx,%ebx,4), %ebx
	addl	$1, %edx
	addl	%ebx, %ebx
	cmpl	%edx, %esi
	ja	.L621
.L614:
	movl	%ebx, %eax
	movl	$-858993459, %edx
	xorl	%ebp, %ebp
	mull	%edx
	movl	%edx, %ebx
	shrl	$3, %ebx
	.align 16
.L618:
	movl	%edi, %eax
	xorl	%edx, %edx
	addl	$1, %ebp
	divl	%ebx
	addl	$48, %eax
	movl	%edx, %edi
	movsbl	%al, %eax
	pushl	%eax
	.cfi_def_cfa_offset 24
	call	_putchar
	movl	$-858993459, %eax
	mull	%ebx
	popl	%eax
	.cfi_def_cfa_offset 20
	movl	%edx, %ebx
	shrl	$3, %ebx
	cmpl	%ebp, %esi
	ja	.L618
.L613:
	popl	%ebx
	.cfi_remember_state
	.cfi_restore 3
	.cfi_def_cfa_offset 16
	popl	%esi
	.cfi_restore 6
	.cfi_def_cfa_offset 12
	popl	%edi
	.cfi_restore 7
	.cfi_def_cfa_offset 8
	popl	%ebp
	.cfi_restore 5
	.cfi_def_cfa_offset 4
	ret
	.align 16
.L620:
	.cfi_restore_state
	movl	$10, %ebx
	movl	$1, %esi
	jmp	.L614
	.cfi_endproc
.LFE69:
	.size	_console_write_dec, .-_console_write_dec
	.align 16
	.globl	backspace
	.type	backspace, @function
backspace:
.LFB70:
	.cfi_startproc
	movl	consolecolumn, %eax
	movl	consolerow, %edx
	subl	$1, %eax
	testl	%eax, %eax
	movl	%eax, consolecolumn
	jne	.L628
	movl	consolerow, %eax
	movl	$80, consolecolumn
	leal	-1(%eax), %edx
	movl	$80, %eax
	movl	%edx, consolerow
.L628:
	leal	(%edx,%edx,4), %edx
	sall	$4, %edx
	addl	%edx, %eax
	movl	console_dbuffer, %edx
	leal	(%edx,%eax,2), %edx
	movzbl	console_color, %eax
	sall	$8, %eax
	orl	$32, %eax
	movw	%ax, (%edx)
	ret
	.cfi_endproc
.LFE70:
	.size	backspace, .-backspace
	.align 16
	.globl	clrline
	.type	clrline, @function
clrline:
.LFB580:
	.cfi_startproc
	rep ret
	.cfi_endproc
.LFE580:
	.size	clrline, .-clrline
	.align 16
	.globl	_printint
	.type	_printint, @function
_printint:
.LFB72:
	.cfi_startproc
	pushl	%esi
	.cfi_def_cfa_offset 8
	.cfi_offset 6, -8
	pushl	%ebx
	.cfi_def_cfa_offset 12
	.cfi_offset 3, -12
	movl	12(%esp), %esi
	cmpl	$999999999, %esi
	jbe	.L641
	movl	%esi, %edx
	xorl	%ebx, %ebx
	movl	$-858993459, %ecx
	jmp	.L638
	.align 16
.L635:
	movl	%eax, %ebx
.L638:
	movl	%edx, %eax
	mull	%ecx
	leal	1(%ebx), %eax
	shrl	$3, %edx
	testl	%edx, %edx
	jne	.L635
	subl	$8, %ebx
	movl	$1, %ecx
	je	.L633
	.align 16
.L634:
	leal	(%ecx,%ecx,4), %ecx
	addl	$1, %edx
	addl	%ecx, %ecx
	cmpl	%edx, %ebx
	jne	.L634
.L633:
	movl	%esi, %eax
	xorl	%edx, %edx
	divl	%ecx
	pushl	%eax
	.cfi_def_cfa_offset 16
	movl	%edx, %esi
	call	_console_write_dec
	popl	%eax
	.cfi_def_cfa_offset 12
	movl	%esi, 12(%esp)
.L641:
	popl	%ebx
	.cfi_restore 3
	.cfi_def_cfa_offset 8
	popl	%esi
	.cfi_restore 6
	.cfi_def_cfa_offset 4
	jmp	_console_write_dec
	.cfi_endproc
.LFE72:
	.size	_printint, .-_printint
	.align 16
	.globl	_printf
	.type	_printf, @function
_printf:
.LFB73:
	.cfi_startproc
	pushl	%ebp
	.cfi_def_cfa_offset 8
	.cfi_offset 5, -8
	pushl	%edi
	.cfi_def_cfa_offset 12
	.cfi_offset 7, -12
	pushl	%esi
	.cfi_def_cfa_offset 16
	.cfi_offset 6, -16
	pushl	%ebx
	.cfi_def_cfa_offset 20
	.cfi_offset 3, -20
	subl	$12, %esp
	.cfi_def_cfa_offset 32
	movl	32(%esp), %ebx
	leal	36(%esp), %eax
	movb	$0, 7(%esp)
	movl	$0, (%esp)
	movl	%eax, 8(%esp)
	movzbl	(%ebx), %edx
.L643:
	testb	%dl, %dl
	je	.L691
	.align 16
.L663:
	cmpb	$37, %dl
	je	.L644
	movzbl	1(%ebx), %eax
	leal	1(%ebx), %esi
.L645:
.L646:
	testb	%al, %al
	je	.L647
.L698:
	cmpb	$37, %al
	je	.L647
	leal	2(%ebx), %eax
	movl	$1, %edi
	jmp	.L648
	.align 16
.L692:
	cmpb	$37, %dl
	je	.L667
.L648:
	movzbl	(%eax), %edx
	addl	$1, %edi
	movl	%eax, %esi
	addl	$1, %eax
	testb	%dl, %dl
	jne	.L692
.L667:
	testl	%edi, %edi
	je	.L650
	xorl	%ebp, %ebp
	.align 16
.L651:
	movsbl	(%ebx,%ebp), %eax
	addl	$1, %ebp
	pushl	%eax
	.cfi_def_cfa_offset 36
	call	_putchar
	cmpl	%ebp, %edi
	popl	%eax
	.cfi_def_cfa_offset 32
	ja	.L651
.L664:
	movzbl	(%esi), %edx
.L650:
	addl	%edi, (%esp)
	testb	%dl, %dl
	movl	%esi, %ebx
	jne	.L663
.L691:
	movl	(%esp), %eax
	addl	$12, %esp
	.cfi_remember_state
	.cfi_def_cfa_offset 20
	popl	%ebx
	.cfi_restore 3
	.cfi_def_cfa_offset 16
	popl	%esi
	.cfi_restore 6
	.cfi_def_cfa_offset 12
	popl	%edi
	.cfi_restore 7
	.cfi_def_cfa_offset 8
	popl	%ebp
	.cfi_restore 5
	.cfi_def_cfa_offset 4
	ret
	.align 16
.L644:
	.cfi_restore_state
	movzbl	1(%ebx), %eax
	leal	1(%ebx), %edi
	cmpb	$37, %al
	je	.L693
	cmpb	$0, 7(%esp)
	jne	.L665
	cmpb	$99, %al
	je	.L694
	cmpb	$115, %al
	je	.L695
	cmpb	$105, %al
	sete	%cl
	cmpb	$100, %al
	movl	%ecx, %esi
	sete	%cl
	movl	%esi, %edx
	orb	%cl, %dl
	jne	.L696
	cmpb	$108, %al
	sete	%cl
	cmpb	$120, %al
	movl	%ecx, %esi
	sete	%cl
	movl	%esi, %edx
	orb	%cl, %dl
	movb	%dl, 7(%esp)
	jne	.L697
	cmpb	$112, %al
	je	.L668
	cmpb	$103, %al
	je	.L668
	testb	%al, %al
	movl	%edi, %esi
	movb	$1, 7(%esp)
	jne	.L698
.L647:
	movsbl	(%ebx), %eax
	movl	$1, %edi
	pushl	%eax
	.cfi_def_cfa_offset 36
	call	_putchar
	popl	%eax
	.cfi_def_cfa_offset 32
	jmp	.L664
	.align 16
.L665:
	movl	%edi, %esi
	jmp	.L646
.L693:
	leal	2(%ebx), %esi
	movzbl	2(%ebx), %eax
	movl	%edi, %ebx
	jmp	.L646
.L696:
	movl	8(%esp), %ecx
	leal	2(%ebx), %esi
	movl	%ecx, %eax
	addl	$4, %ecx
	movl	%ecx, 8(%esp)
	pushl	(%eax)
	.cfi_def_cfa_offset 36
	call	_printint
	movzbl	2(%ebx), %edx
	popl	%ebx
	.cfi_def_cfa_offset 32
	movl	%esi, %ebx
	jmp	.L643
.L697:
	movl	8(%esp), %ecx
	leal	2(%ebx), %esi
	movl	%ecx, %eax
	addl	$4, %ecx
	movl	%ecx, 8(%esp)
	pushl	(%eax)
	.cfi_def_cfa_offset 36
	call	_printint
	popl	%ecx
	.cfi_def_cfa_offset 32
	movzbl	2(%ebx), %edx
	movl	%esi, %ebx
	movb	$0, 7(%esp)
	jmp	.L643
.L694:
	movl	8(%esp), %ecx
	leal	2(%ebx), %esi
	movl	%ecx, %eax
	addl	$4, %ecx
	movsbl	(%eax), %eax
	movl	%ecx, 8(%esp)
	pushl	%eax
	.cfi_def_cfa_offset 36
	call	_putchar
	movzbl	2(%ebx), %edx
	movl	%esi, %ebx
	popl	%eax
	.cfi_def_cfa_offset 32
	jmp	.L643
.L695:
	movl	8(%esp), %ecx
	xorl	%ebp, %ebp
	leal	2(%ebx), %esi
	movl	%ecx, %eax
	addl	$4, %ecx
	movl	(%eax), %edx
	movl	%ecx, 8(%esp)
	cmpb	$0, (%edx)
	je	.L689
	.align 16
.L677:
	addl	$1, %ebp
	cmpb	$0, (%edx,%ebp)
	jne	.L677
	movl	%edx, %edi
	addl	%edx, %ebp
	.align 16
.L658:
	movsbl	(%edi), %eax
	addl	$1, %edi
	pushl	%eax
	.cfi_def_cfa_offset 36
	call	_putchar
	cmpl	%edi, %ebp
	popl	%eax
	.cfi_def_cfa_offset 32
	jne	.L658
.L689:
	movzbl	2(%ebx), %edx
	movl	%esi, %ebx
	jmp	.L643
.L668:
	movl	8(%esp), %esi
	leal	2(%ebx), %eax
	movl	(%esi), %edx
	movl	%esi, %ecx
	addl	$4, %ecx
	testl	%edx, %edx
	jne	.L662
	movl	default_console_color, %edx
	movl	%ecx, 8(%esp)
	movb	%dl, console_color
	movzbl	2(%ebx), %edx
	movl	%eax, %ebx
	jmp	.L643
.L662:
	movb	%dl, console_color
	movl	%ecx, 8(%esp)
	movzbl	2(%ebx), %edx
	movl	%eax, %ebx
	jmp	.L643
	.cfi_endproc
.LFE73:
	.size	_printf, .-_printf
	.globl	CPUID_FLAG_MSR
	.section	.rodata
	.align 4
	.type	CPUID_FLAG_MSR, @object
	.size	CPUID_FLAG_MSR, 4
CPUID_FLAG_MSR:
	.long	32
	.globl	SSE_available
	.data
	.align 4
	.type	SSE_available, @object
	.size	SSE_available, 4
SSE_available:
	.long	1
	.comm	BSP_id,4,4
	.comm	AP_startup_Code_sz,4,4
	.comm	pmode_code_size,4,4
	.comm	hpet_sdt,4,4
	.comm	hpet,4,4
	.globl	hpet_base
	.section	.bss
	.align 4
	.type	hpet_base, @object
	.size	hpet_base, 4
hpet_base:
	.zero	4
	.globl	hpet_virt_address
	.align 4
	.type	hpet_virt_address, @object
	.size	hpet_virt_address, 4
hpet_virt_address:
	.zero	4
	.comm	HPET_main_counter,4,4
	.text
	.align 16
	.globl	init_descriptor_tables
	.type	init_descriptor_tables, @function
init_descriptor_tables:
.LFB76:
	.cfi_startproc
	subl	$12, %esp
	.cfi_def_cfa_offset 16
	call	init_gdt
	addl	$12, %esp
	.cfi_def_cfa_offset 4
	jmp	init_idt
	.cfi_endproc
.LFE76:
	.size	init_descriptor_tables, .-init_descriptor_tables
	.align 16
	.type	init_gdt, @function
init_gdt:
.LFB77:
	.cfi_startproc
	pushl	%ebx
	.cfi_def_cfa_offset 8
	.cfi_offset 3, -8
	subl	$16, %esp
	.cfi_def_cfa_offset 24
	movl	AP_startup_Code_sz, %eax
	leal	8208(%eax), %ebx
	addl	$8216, %eax
	pushl	%ebx
	.cfi_def_cfa_offset 28
	pushl	%eax
	.cfi_def_cfa_offset 32
	call	AP_gdt_Setup
	movl	%ebx, (%esp)
	call	lgdt
	addl	$24, %esp
	.cfi_def_cfa_offset 8
	popl	%ebx
	.cfi_restore 3
	.cfi_def_cfa_offset 4
	ret
	.cfi_endproc
.LFE77:
	.size	init_gdt, .-init_gdt
	.align 16
	.globl	AP_gdt_Setup
	.type	AP_gdt_Setup, @function
AP_gdt_Setup:
.LFB78:
	.cfi_startproc
	pushl	%ebx
	.cfi_def_cfa_offset 8
	.cfi_offset 3, -8
	subl	$112, %esp
	.cfi_def_cfa_offset 120
	movl	124(%esp), %ebx
	movl	120(%esp), %ecx
	leal	8(%ebx), %edx
	movl	%ebx, %eax
	.align 16
.L704:
	addl	$1, %eax
	movb	$0, -1(%eax)
	cmpl	%eax, %edx
	jne	.L704
	leal	40(%ecx), %edx
	movl	%ecx, %eax
	.align 16
.L705:
	addl	$1, %eax
	movb	$0, -1(%eax)
	cmpl	%edx, %eax
	jne	.L705
	movl	$39, %eax
	movl	%ecx, 2(%ebx)
	movw	%ax, (%ebx)
	leal	8(%esp), %eax
	movl	$0, (%ecx)
	movl	$0, 4(%ecx)
	movl	$65535, 8(%ecx)
	movl	%eax, %edx
	movl	$13605376, 12(%ecx)
	movl	$65535, 16(%ecx)
	sall	$16, %edx
	movl	$13603328, 20(%ecx)
	movl	$65535, 24(%ecx)
	orl	$104, %edx
	movl	$13629952, 28(%ecx)
	movl	$65535, 32(%ecx)
	movl	%edx, 40(%ecx)
	movl	%eax, %edx
	andl	$-16777216, %eax
	shrl	$16, %edx
	orl	$4229376, %eax
	movl	$13627904, 36(%ecx)
	movzbl	%dl, %edx
	orl	%edx, %eax
	movl	$16, %edx
	movl	%eax, 44(%ecx)
	movl	initial_esp, %eax
	movl	$104, %ecx
	movw	%dx, 16(%esp)
	movl	%eax, 12(%esp)
	movw	%cx, 110(%esp)
	addl	$112, %esp
	.cfi_def_cfa_offset 8
	popl	%ebx
	.cfi_restore 3
	.cfi_def_cfa_offset 4
	ret
	.cfi_endproc
.LFE78:
	.size	AP_gdt_Setup, .-AP_gdt_Setup
	.align 16
	.globl	gdt_set_gate
	.type	gdt_set_gate, @function
gdt_set_gate:
.LFB79:
	.cfi_startproc
	pushl	%ebp
	.cfi_def_cfa_offset 8
	.cfi_offset 5, -8
	pushl	%edi
	.cfi_def_cfa_offset 12
	.cfi_offset 7, -12
	pushl	%esi
	.cfi_def_cfa_offset 16
	.cfi_offset 6, -16
	pushl	%ebx
	.cfi_def_cfa_offset 20
	.cfi_offset 3, -20
	movl	20(%esp), %edi
	movl	24(%esp), %ebx
	movl	36(%esp), %eax
	movl	28(%esp), %ecx
	movl	32(%esp), %esi
	leal	0(,%edi,8), %edx
	addl	40(%esp), %edx
	movl	%ebx, %ebp
	movzwl	%cx, %edi
	sall	$16, %ebp
	sall	$16, %eax
	orl	%ebp, %edi
	andl	$15728640, %eax
	andl	$983040, %ecx
	movl	%edi, (%edx)
	movl	%eax, %edi
	movl	%esi, %eax
	movzbl	%al, %esi
	movl	%edi, %eax
	sall	$8, %esi
	orl	%esi, %eax
	movl	%ebx, %esi
	shrl	$16, %ebx
	andl	$-16777216, %esi
	movzbl	%bl, %ebx
	orl	%esi, %eax
	orl	%ebx, %eax
	orl	%ecx, %eax
	movl	%eax, 4(%edx)
	popl	%ebx
	.cfi_restore 3
	.cfi_def_cfa_offset 16
	popl	%esi
	.cfi_restore 6
	.cfi_def_cfa_offset 12
	popl	%edi
	.cfi_restore 7
	.cfi_def_cfa_offset 8
	popl	%ebp
	.cfi_restore 5
	.cfi_def_cfa_offset 4
	ret
	.cfi_endproc
.LFE79:
	.size	gdt_set_gate, .-gdt_set_gate
	.align 16
	.globl	test_handler
	.type	test_handler, @function
test_handler:
.LFB80:
	.cfi_startproc
/APP
/  73 "Source/GDT_IDT/descriptors.c" 1
	hlt
/  0 "" 2
/NO_APP
.L712:
	jmp	.L712
	.cfi_endproc
.LFE80:
	.size	test_handler, .-test_handler
	.globl	ddd
	.section	.bss
	.align 4
	.type	ddd, @object
	.size	ddd, 4
ddd:
	.zero	4
	.text
	.align 16
	.globl	ttt_t
	.type	ttt_t, @function
ttt_t:
.LFB81:
	.cfi_startproc
	movl	t_c, %eax
	addl	$1, %eax
	cmpl	$6, %eax
	movl	%eax, t_c
	je	.L715
	rep ret
	.align 16
.L715:
	movl	$1, dbuff_run
	movl	$0, t_c
	ret
	.cfi_endproc
.LFE81:
	.size	ttt_t, .-ttt_t
	.align 16
	.globl	AP_idt_Setup
	.type	AP_idt_Setup, @function
AP_idt_Setup:
.LFB82:
	.cfi_startproc
	movl	4(%esp), %edx
	movl	8(%esp), %eax
	movl	$2047, %ecx
	movw	%cx, (%eax)
	leal	2048(%edx), %ecx
	movl	%edx, 2(%eax)
	movl	%edx, %eax
	.align 16
.L717:
	addl	$1, %eax
	movb	$0, -1(%eax)
	cmpl	%ecx, %eax
	jne	.L717
	movl	$divByZero_handler, %eax
	movzwl	%ax, %ecx
	xorw	%ax, %ax
	orb	$142, %ah
	orl	$524288, %ecx
	movl	%eax, 4(%edx)
	movl	$debug_handler, %eax
	movl	%ecx, (%edx)
	movzwl	%ax, %ecx
	xorw	%ax, %ax
	orb	$142, %ah
	orl	$524288, %ecx
	movl	%eax, 12(%edx)
	movl	$NMI_handler, %eax
	movl	%ecx, 8(%edx)
	movzwl	%ax, %ecx
	xorw	%ax, %ax
	orb	$142, %ah
	orl	$524288, %ecx
	movl	%eax, 20(%edx)
	movl	$breakpoint_handler, %eax
	movl	%ecx, 16(%edx)
	movzwl	%ax, %ecx
	xorw	%ax, %ax
	orb	$142, %ah
	orl	$524288, %ecx
	movl	%eax, 28(%edx)
	movl	$overflow_handler, %eax
	movl	%ecx, 24(%edx)
	movzwl	%ax, %ecx
	xorw	%ax, %ax
	orb	$142, %ah
	orl	$524288, %ecx
	movl	%eax, 36(%edx)
	movl	$outOfBounds_handler, %eax
	movl	%ecx, 32(%edx)
	movzwl	%ax, %ecx
	xorw	%ax, %ax
	orb	$142, %ah
	orl	$524288, %ecx
	movl	%eax, 44(%edx)
	movl	$invalidInstr_handler, %eax
	movl	%ecx, 40(%edx)
	movzwl	%ax, %ecx
	xorw	%ax, %ax
	orb	$142, %ah
	orl	$524288, %ecx
	movl	%eax, 52(%edx)
	movl	$noCoprocessor_handler, %eax
	movl	%ecx, 48(%edx)
	movzwl	%ax, %ecx
	xorw	%ax, %ax
	orb	$142, %ah
	orl	$524288, %ecx
	movl	%eax, 60(%edx)
	movl	$doubleFault_handler, %eax
	movl	%ecx, 56(%edx)
	movzwl	%ax, %ecx
	xorw	%ax, %ax
	orb	$142, %ah
	orl	$524288, %ecx
	movl	%eax, 68(%edx)
	movl	$coprocessor_handler, %eax
	movl	%ecx, 64(%edx)
	movzwl	%ax, %ecx
	xorw	%ax, %ax
	orb	$142, %ah
	orl	$524288, %ecx
	movl	%eax, 76(%edx)
	movl	$badTSS_handler, %eax
	movl	%ecx, 72(%edx)
	movzwl	%ax, %ecx
	xorw	%ax, %ax
	orl	$524288, %ecx
	orb	$142, %ah
	movl	%eax, 84(%edx)
	movl	$segmentNotPresent_handler, %eax
	movl	%ecx, 80(%edx)
	movzwl	%ax, %ecx
	xorw	%ax, %ax
	orb	$142, %ah
	orl	$524288, %ecx
	movl	%eax, 92(%edx)
	movl	$stackFault_handler, %eax
	movl	%ecx, 88(%edx)
	movzwl	%ax, %ecx
	xorw	%ax, %ax
	orb	$142, %ah
	orl	$524288, %ecx
	movl	%eax, 100(%edx)
	movl	$INTbasedPmodeTrampoline, %eax
	movl	%ecx, 96(%edx)
	movzwl	%ax, %ecx
	xorw	%ax, %ax
	orb	$142, %ah
	orl	$524288, %ecx
	movl	%eax, 108(%edx)
	movl	$pageFault_handler, %eax
	movl	%ecx, 104(%edx)
	movzwl	%ax, %ecx
	xorw	%ax, %ax
	orb	$142, %ah
	orl	$524288, %ecx
	movl	%eax, 116(%edx)
	movl	$unknownInterrupt_handler, %eax
	movl	%ecx, 112(%edx)
	movzwl	%ax, %ecx
	xorw	%ax, %ax
	orb	$142, %ah
	orl	$524288, %ecx
	movl	%eax, 124(%edx)
	movl	$coprocessorFault_handler, %eax
	movl	%ecx, 120(%edx)
	movzwl	%ax, %ecx
	xorw	%ax, %ax
	orl	$524288, %ecx
	orb	$142, %ah
	movl	%ecx, 128(%edx)
	movl	%eax, 132(%edx)
	movl	$alignmentCheck_handler, %eax
	movzwl	%ax, %ecx
	xorw	%ax, %ax
	orb	$142, %ah
	orl	$524288, %ecx
	movl	%eax, 140(%edx)
	movl	$machineCheck_handler, %eax
	movl	%ecx, 136(%edx)
	movzwl	%ax, %ecx
	xorw	%ax, %ax
	orb	$142, %ah
	orl	$524288, %ecx
	movl	%eax, 148(%edx)
	movl	$reserved_handler, %eax
	movl	%ecx, 144(%edx)
	movzwl	%ax, %ecx
	xorw	%ax, %ax
	orb	$142, %ah
	orl	$524288, %ecx
	movl	%eax, 156(%edx)
	movl	%eax, 164(%edx)
	movl	%eax, 172(%edx)
	movl	%eax, 180(%edx)
	movl	%eax, 188(%edx)
	movl	%eax, 196(%edx)
	movl	%eax, 204(%edx)
	movl	%eax, 212(%edx)
	movl	%eax, 220(%edx)
	movl	%eax, 228(%edx)
	movl	%eax, 236(%edx)
	movl	%eax, 244(%edx)
	movl	%eax, 252(%edx)
	movl	$PIT_handler, %eax
	movl	%ecx, 152(%edx)
	movl	%ecx, 160(%edx)
	movl	%ecx, 168(%edx)
	movl	%ecx, 176(%edx)
	movl	%ecx, 184(%edx)
	movl	%ecx, 192(%edx)
	movl	%ecx, 200(%edx)
	movl	%ecx, 208(%edx)
	movl	%ecx, 216(%edx)
	movl	%ecx, 224(%edx)
	movl	%ecx, 232(%edx)
	movl	%ecx, 240(%edx)
	movl	%ecx, 248(%edx)
	movzwl	%ax, %ecx
	xorw	%ax, %ax
	orl	$524288, %ecx
	orb	$142, %ah
	movl	%ecx, 256(%edx)
	movl	%eax, 260(%edx)
	movl	$kb_handle, %eax
	movzwl	%ax, %ecx
	orl	$524288, %ecx
	xorw	%ax, %ax
	orb	$142, %ah
	movl	%ecx, 264(%edx)
	movl	%eax, 268(%edx)
	movl	$cascade_handler, %eax
	movzwl	%ax, %ecx
	xorw	%ax, %ax
	orb	$142, %ah
	orl	$524288, %ecx
	movl	%eax, 276(%edx)
	movl	$COM2_handler, %eax
	movl	%ecx, 272(%edx)
	movzwl	%ax, %ecx
	xorw	%ax, %ax
	orb	$142, %ah
	orl	$524288, %ecx
	movl	%eax, 284(%edx)
	movl	$COM1_handler, %eax
	movl	%ecx, 280(%edx)
	movzwl	%ax, %ecx
	xorw	%ax, %ax
	orb	$142, %ah
	orl	$524288, %ecx
	movl	%eax, 292(%edx)
	movl	$LPT2_handler, %eax
	movl	%ecx, 288(%edx)
	movzwl	%ax, %ecx
	xorw	%ax, %ax
	orb	$142, %ah
	orl	$524288, %ecx
	movl	%eax, 300(%edx)
	movl	$floppyDisk_handler, %eax
	movl	%ecx, 296(%edx)
	movzwl	%ax, %ecx
	xorw	%ax, %ax
	orb	$142, %ah
	orl	$524288, %ecx
	movl	%eax, 308(%edx)
	movl	$LPT1_handler, %eax
	movl	%ecx, 304(%edx)
	movzwl	%ax, %ecx
	xorw	%ax, %ax
	orb	$142, %ah
	orl	$524288, %ecx
	movl	%eax, 316(%edx)
	movl	$RTC_handler, %eax
	movl	%ecx, 312(%edx)
	movzwl	%ax, %ecx
	xorw	%ax, %ax
	orb	$142, %ah
	orl	$524288, %ecx
	movl	%eax, 324(%edx)
	movl	$periph1_handler, %eax
	movl	%ecx, 320(%edx)
	movzwl	%ax, %ecx
	xorw	%ax, %ax
	orb	$142, %ah
	orl	$524288, %ecx
	movl	%eax, 332(%edx)
	movl	$periph2_handler, %eax
	movl	%ecx, 328(%edx)
	movzwl	%ax, %ecx
	xorw	%ax, %ax
	orb	$142, %ah
	orl	$524288, %ecx
	movl	%eax, 340(%edx)
	movl	$periph3_handler, %eax
	movl	%ecx, 336(%edx)
	movzwl	%ax, %ecx
	xorw	%ax, %ax
	orb	$142, %ah
	orl	$524288, %ecx
	movl	%eax, 348(%edx)
	movl	$mouse_handle, %eax
	movl	%ecx, 344(%edx)
	movzwl	%ax, %ecx
	orl	$524288, %ecx
	xorw	%ax, %ax
	orb	$142, %ah
	movl	%ecx, 352(%edx)
	movl	%eax, 356(%edx)
	movl	$FPU_handler, %eax
	movzwl	%ax, %ecx
	xorw	%ax, %ax
	orb	$142, %ah
	orl	$524288, %ecx
	movl	%eax, 364(%edx)
	movl	$primaryHDD_handler, %eax
	movl	%ecx, 360(%edx)
	movzwl	%ax, %ecx
	xorw	%ax, %ax
	orb	$142, %ah
	orl	$524288, %ecx
	movl	%eax, 372(%edx)
	movl	$secondaryHDD_handler, %eax
	movl	%ecx, 368(%edx)
	movzwl	%ax, %ecx
	xorw	%ax, %ax
	orl	$524288, %ecx
	orb	$142, %ah
	movl	%ecx, 376(%edx)
	movl	%eax, 380(%edx)
	ret
	.cfi_endproc
.LFE82:
	.size	AP_idt_Setup, .-AP_idt_Setup
	.comm	idt_entries,2048,32
	.comm	idt_ptr,6,4
	.align 16
	.type	init_idt, @function
init_idt:
.LFB83:
	.cfi_startproc
	movl	$2047, %eax
	subl	$12, %esp
	.cfi_def_cfa_offset 16
	movl	$idt_entries, idt_ptr+2
	movw	%ax, idt_ptr
	movl	$idt_entries, %eax
	.align 16
.L720:
	addl	$1, %eax
	movb	$0, -1(%eax)
	cmpl	$idt_entries+2048, %eax
	jne	.L720
	movl	$divByZero_handler, %eax
	movzwl	%ax, %edx
	xorw	%ax, %ax
	orb	$142, %ah
	orl	$524288, %edx
	movl	%eax, idt_entries+4
	movl	$debug_handler, %eax
	movl	%edx, idt_entries
	movzwl	%ax, %edx
	xorw	%ax, %ax
	orb	$142, %ah
	orl	$524288, %edx
	movl	%eax, idt_entries+12
	movl	$NMI_handler, %eax
	movl	%edx, idt_entries+8
	movzwl	%ax, %edx
	xorw	%ax, %ax
	orb	$142, %ah
	orl	$524288, %edx
	movl	%eax, idt_entries+20
	movl	$breakpoint_handler, %eax
	movl	%edx, idt_entries+16
	movzwl	%ax, %edx
	xorw	%ax, %ax
	orb	$142, %ah
	orl	$524288, %edx
	movl	%eax, idt_entries+28
	movl	$overflow_handler, %eax
	movl	%edx, idt_entries+24
	movzwl	%ax, %edx
	xorw	%ax, %ax
	orb	$142, %ah
	orl	$524288, %edx
	movl	%eax, idt_entries+36
	movl	$outOfBounds_handler, %eax
	movl	%edx, idt_entries+32
	movzwl	%ax, %edx
	xorw	%ax, %ax
	orb	$142, %ah
	orl	$524288, %edx
	movl	%eax, idt_entries+44
	movl	$invalidInstr_handler, %eax
	movl	%edx, idt_entries+40
	movzwl	%ax, %edx
	xorw	%ax, %ax
	orb	$142, %ah
	orl	$524288, %edx
	movl	%eax, idt_entries+52
	movl	$noCoprocessor_handler, %eax
	movl	%edx, idt_entries+48
	movzwl	%ax, %edx
	xorw	%ax, %ax
	orb	$142, %ah
	orl	$524288, %edx
	movl	%eax, idt_entries+60
	movl	$doubleFault_handler, %eax
	movl	%edx, idt_entries+56
	movzwl	%ax, %edx
	xorw	%ax, %ax
	orb	$142, %ah
	orl	$524288, %edx
	movl	%eax, idt_entries+68
	movl	$coprocessor_handler, %eax
	movl	%edx, idt_entries+64
	movzwl	%ax, %edx
	xorw	%ax, %ax
	orb	$142, %ah
	orl	$524288, %edx
	movl	%eax, idt_entries+76
	movl	$badTSS_handler, %eax
	movl	%edx, idt_entries+72
	movzwl	%ax, %edx
	xorw	%ax, %ax
	orl	$524288, %edx
	orb	$142, %ah
	movl	%eax, idt_entries+84
	movl	$segmentNotPresent_handler, %eax
	movl	%edx, idt_entries+80
	movzwl	%ax, %edx
	xorw	%ax, %ax
	orb	$142, %ah
	orl	$524288, %edx
	movl	%eax, idt_entries+92
	movl	$stackFault_handler, %eax
	movl	%edx, idt_entries+88
	movzwl	%ax, %edx
	xorw	%ax, %ax
	orb	$142, %ah
	orl	$524288, %edx
	movl	%eax, idt_entries+100
	movl	$generalProtectionFault_handler, %eax
	movl	%edx, idt_entries+96
	movzwl	%ax, %edx
	xorw	%ax, %ax
	orb	$142, %ah
	orl	$524288, %edx
	movl	%eax, idt_entries+108
	movl	$pageFault_handler, %eax
	movl	%edx, idt_entries+104
	movzwl	%ax, %edx
	xorw	%ax, %ax
	orb	$142, %ah
	orl	$524288, %edx
	movl	%eax, idt_entries+116
	movl	$unknownInterrupt_handler, %eax
	movl	%edx, idt_entries+112
	movzwl	%ax, %edx
	xorw	%ax, %ax
	orb	$142, %ah
	orl	$524288, %edx
	movl	%eax, idt_entries+124
	movl	$coprocessorFault_handler, %eax
	movl	%edx, idt_entries+120
	movzwl	%ax, %edx
	xorw	%ax, %ax
	orl	$524288, %edx
	orb	$142, %ah
	movl	%edx, idt_entries+128
	movl	%eax, idt_entries+132
	movl	$alignmentCheck_handler, %eax
	movzwl	%ax, %edx
	xorw	%ax, %ax
	orb	$142, %ah
	orl	$524288, %edx
	movl	%eax, idt_entries+140
	movl	$machineCheck_handler, %eax
	movl	%edx, idt_entries+136
	movzwl	%ax, %edx
	xorw	%ax, %ax
	orb	$142, %ah
	orl	$524288, %edx
	movl	%eax, idt_entries+148
	movl	$reserved_handler, %eax
	movl	%edx, idt_entries+144
	movzwl	%ax, %edx
	xorw	%ax, %ax
	orb	$142, %ah
	orl	$524288, %edx
	movl	%eax, idt_entries+156
	movl	%eax, idt_entries+164
	movl	%eax, idt_entries+172
	movl	%eax, idt_entries+180
	movl	%eax, idt_entries+188
	movl	%eax, idt_entries+196
	movl	%eax, idt_entries+204
	movl	%eax, idt_entries+212
	movl	%eax, idt_entries+220
	movl	%eax, idt_entries+228
	movl	%eax, idt_entries+236
	movl	%eax, idt_entries+244
	movl	%eax, idt_entries+252
	movl	$test_ttt, %eax
	movl	%edx, idt_entries+152
	movl	%edx, idt_entries+160
	movl	%edx, idt_entries+168
	movl	%edx, idt_entries+176
	movl	%edx, idt_entries+184
	movl	%edx, idt_entries+192
	movl	%edx, idt_entries+200
	movl	%edx, idt_entries+208
	movl	%edx, idt_entries+216
	movl	%edx, idt_entries+224
	movl	%edx, idt_entries+232
	movl	%edx, idt_entries+240
	movl	%edx, idt_entries+248
	movzwl	%ax, %edx
	xorw	%ax, %ax
	orl	$524288, %edx
	orb	$142, %ah
	movl	%edx, idt_entries+256
	movl	%eax, idt_entries+260
	movl	$kb_handle, %eax
	movzwl	%ax, %edx
	orl	$524288, %edx
	xorw	%ax, %ax
	orb	$142, %ah
	movl	%edx, idt_entries+264
	movl	%eax, idt_entries+268
	movl	$cascade_handler, %eax
	movzwl	%ax, %edx
	xorw	%ax, %ax
	orb	$142, %ah
	orl	$524288, %edx
	movl	%eax, idt_entries+276
	movl	$COM2_handler, %eax
	movl	%edx, idt_entries+272
	movzwl	%ax, %edx
	xorw	%ax, %ax
	orb	$142, %ah
	orl	$524288, %edx
	movl	%eax, idt_entries+284
	movl	$COM1_handler, %eax
	movl	%edx, idt_entries+280
	movzwl	%ax, %edx
	xorw	%ax, %ax
	orb	$142, %ah
	orl	$524288, %edx
	movl	%eax, idt_entries+292
	movl	$LPT2_handler, %eax
	movl	%edx, idt_entries+288
	movzwl	%ax, %edx
	xorw	%ax, %ax
	orb	$142, %ah
	orl	$524288, %edx
	movl	%eax, idt_entries+300
	movl	$floppyDisk_handler, %eax
	movl	%edx, idt_entries+296
	movzwl	%ax, %edx
	xorw	%ax, %ax
	orb	$142, %ah
	orl	$524288, %edx
	movl	%eax, idt_entries+308
	movl	$LPT1_handler, %eax
	movl	%edx, idt_entries+304
	movzwl	%ax, %edx
	xorw	%ax, %ax
	orb	$142, %ah
	orl	$524288, %edx
	movl	%eax, idt_entries+316
	movl	$RTC_handler, %eax
	movl	%edx, idt_entries+312
	movzwl	%ax, %edx
	xorw	%ax, %ax
	orb	$142, %ah
	orl	$524288, %edx
	movl	%eax, idt_entries+324
	movl	$periph1_handler, %eax
	movl	%edx, idt_entries+320
	movzwl	%ax, %edx
	xorw	%ax, %ax
	orb	$142, %ah
	orl	$524288, %edx
	movl	%eax, idt_entries+332
	movl	$periph2_handler, %eax
	movl	%edx, idt_entries+328
	movzwl	%ax, %edx
	xorw	%ax, %ax
	orb	$142, %ah
	orl	$524288, %edx
	movl	%eax, idt_entries+340
	movl	$periph3_handler, %eax
	movl	%edx, idt_entries+336
	movzwl	%ax, %edx
	xorw	%ax, %ax
	orb	$142, %ah
	orl	$524288, %edx
	movl	%eax, idt_entries+348
	movl	$mouse_handle, %eax
	movl	%edx, idt_entries+344
	movzwl	%ax, %edx
	orl	$524288, %edx
	xorw	%ax, %ax
	subl	$12, %esp
	.cfi_def_cfa_offset 28
	orb	$142, %ah
	movl	%edx, idt_entries+352
	movl	%eax, idt_entries+356
	movl	$FPU_handler, %eax
	movzwl	%ax, %edx
	xorw	%ax, %ax
	orb	$142, %ah
	orl	$524288, %edx
	movl	%eax, idt_entries+364
	movl	$primaryHDD_handler, %eax
	movl	%edx, idt_entries+360
	movzwl	%ax, %edx
	xorw	%ax, %ax
	orb	$142, %ah
	orl	$524288, %edx
	movl	%eax, idt_entries+372
	movl	$secondaryHDD_handler, %eax
	movl	%edx, idt_entries+368
	movzwl	%ax, %edx
	xorw	%ax, %ax
	orb	$142, %ah
	orl	$524288, %edx
	movl	%eax, idt_entries+380
	movl	$test_handler, %eax
	movl	%edx, idt_entries+376
	movzwl	%ax, %edx
	xorw	%ax, %ax
	orl	$524288, %edx
	orb	$142, %ah
	movl	%edx, idt_entries+408
	movl	%eax, idt_entries+412
	movl	%edx, idt_entries+400
	pushl	$idt_ptr
	.cfi_def_cfa_offset 32
	movl	%eax, idt_entries+404
	call	lidt
	addl	$28, %esp
	.cfi_def_cfa_offset 4
	ret
	.cfi_endproc
.LFE83:
	.size	init_idt, .-init_idt
	.align 16
	.type	makeFlagByte, @function
makeFlagByte:
.LFB84:
	.cfi_startproc
	sall	$5, %edx
	sall	$7, %eax
	andl	$96, %edx
	orl	%edx, %eax
	orl	$14, %eax
	ret
	.cfi_endproc
.LFE84:
	.size	makeFlagByte, .-makeFlagByte
	.align 16
	.type	idtSetEntry, @function
idtSetEntry:
.LFB85:
	.cfi_startproc
	pushl	%ebx
	.cfi_def_cfa_offset 8
	.cfi_offset 3, -8
	movl	12(%esp), %ebx
	sall	$16, %ecx
	leal	(%ebx,%eax,8), %eax
	movzwl	%dx, %ebx
	xorw	%dx, %dx
	orl	%ebx, %ecx
	movl	%ecx, (%eax)
	movl	8(%esp), %ecx
	sall	$8, %ecx
	orl	%ecx, %edx
	movl	%edx, 4(%eax)
	popl	%ebx
	.cfi_restore 3
	.cfi_def_cfa_offset 4
	ret
	.cfi_endproc
.LFE85:
	.size	idtSetEntry, .-idtSetEntry
	.globl	APIC_LOCAL_BASE
	.data
	.align 4
	.type	APIC_LOCAL_BASE, @object
	.size	APIC_LOCAL_BASE, 4
APIC_LOCAL_BASE:
	.long	-18874368
	.globl	APIC_IO_BASE
	.align 4
	.type	APIC_IO_BASE, @object
	.size	APIC_IO_BASE, 4
APIC_IO_BASE:
	.long	-20971520
	.globl	counter
	.section	.bss
	.align 4
	.type	counter, @object
	.size	counter, 4
counter:
	.zero	4
	.comm	IOAPIC_entry,4,4
	.comm	LAPIC_entry,4,4
	.comm	ISD_entry,4,4
	.comm	madt,4,4
	.globl	tick
	.align 4
	.type	tick, @object
	.size	tick, 4
tick:
	.zero	4
	.globl	rtc_timer
	.align 4
	.type	rtc_timer, @object
	.size	rtc_timer, 4
rtc_timer:
	.zero	4
	.local	scancodes
	.comm	scancodes,4,4
	.data
	.align 32
	.type	Main_key_codes, @object
	.size	Main_key_codes, 332
Main_key_codes:
	.long	97
	.long	4097
	.long	49
	.long	50
	.long	51
	.long	52
	.long	53
	.long	54
	.long	55
	.long	56
	.long	57
	.long	48
	.long	45
	.long	61
	.long	8
	.long	16384
	.long	113
	.long	119
	.long	101
	.long	114
	.long	116
	.long	121
	.long	117
	.long	105
	.long	111
	.long	112
	.long	91
	.long	93
	.long	13
	.long	0
	.long	97
	.long	115
	.long	100
	.long	102
	.long	103
	.long	104
	.long	106
	.long	107
	.long	108
	.long	59
	.long	39
	.long	96
	.long	0
	.long	92
	.long	122
	.long	120
	.long	99
	.long	118
	.long	98
	.long	110
	.long	109
	.long	44
	.long	46
	.long	47
	.long	0
	.long	42
	.long	0
	.long	32
	.long	0
	.long	4609
	.long	4610
	.long	4611
	.long	4612
	.long	4613
	.long	4614
	.long	4615
	.long	4616
	.long	4617
	.long	4618
	.long	0
	.long	0
	.long	0
	.long	0
	.long	0
	.long	50
	.long	51
	.long	48
	.long	46
	.long	97
	.long	97
	.long	97
	.long	0
	.long	0
	.section	.rodata
	.align 32
	.type	Special_key_codes, @object
	.size	Special_key_codes, 332
Special_key_codes:
	.long	97
	.long	0
	.long	0
	.long	0
	.long	0
	.long	0
	.long	0
	.long	0
	.long	0
	.long	0
	.long	0
	.long	0
	.long	0
	.long	0
	.long	0
	.long	0
	.long	0
	.long	0
	.long	0
	.long	0
	.long	0
	.long	0
	.long	0
	.long	0
	.long	0
	.long	0
	.long	0
	.long	0
	.long	0
	.long	16387
	.long	0
	.long	0
	.long	0
	.long	0
	.long	0
	.long	0
	.long	0
	.long	0
	.long	0
	.long	0
	.long	0
	.long	0
	.long	16386
	.long	0
	.long	0
	.long	0
	.long	0
	.long	0
	.long	0
	.long	0
	.long	0
	.long	0
	.long	0
	.long	0
	.long	16390
	.long	0
	.long	16392
	.long	0
	.long	16385
	.long	4609
	.long	4610
	.long	4611
	.long	4612
	.long	4613
	.long	4614
	.long	4615
	.long	4616
	.long	4617
	.long	4618
	.long	12303
	.long	16400
	.long	16396
	.long	4352
	.long	16398
	.long	50
	.long	51
	.long	48
	.long	46
	.long	97
	.long	97
	.long	97
	.long	4619
	.long	4619
	.local	call
	.comm	call,4,4
	.local	_ctrl
	.comm	_ctrl,4,4
	.local	_shift
	.comm	_shift,4,4
	.local	_alt
	.comm	_alt,4,4
	.local	_numlock
	.comm	_numlock,4,4
	.local	_capslock
	.comm	_capslock,4,4
	.local	_scrolllock
	.comm	_scrolllock,4,4
	.local	_arrow_up
	.comm	_arrow_up,4,4
	.local	_arrow_down
	.comm	_arrow_down,4,4
.LC4:
	.string	"Kernel Panic: abort()\n"
	.text
	.align 16
	.globl	abort
	.type	abort, @function
abort:
.LFB89:
	.cfi_startproc
	subl	$24, %esp
	.cfi_def_cfa_offset 28
	pushl	$.LC4
	.cfi_def_cfa_offset 32
	call	printf
	addl	$16, %esp
	.cfi_def_cfa_offset 16
.L727:
	jmp	.L727
	.cfi_endproc
.LFE89:
	.size	abort, .-abort
	.align 16
	.globl	StrToInt
	.type	StrToInt, @function
StrToInt:
.LFB90:
	.cfi_startproc
	pushl	%ebp
	.cfi_def_cfa_offset 8
	.cfi_offset 5, -8
	pushl	%edi
	.cfi_def_cfa_offset 12
	.cfi_offset 7, -12
	pushl	%esi
	.cfi_def_cfa_offset 16
	.cfi_offset 6, -16
	pushl	%ebx
	.cfi_def_cfa_offset 20
	.cfi_offset 3, -20
	movl	20(%esp), %esi
	testl	%esi, %esi
	je	.L737
	cmpb	$0, (%esi)
	je	.L736
	xorl	%eax, %eax
	.align 16
.L732:
	addl	$1, %eax
	cmpb	$0, (%esi,%eax)
	jne	.L732
	testl	%eax, %eax
	movl	%eax, %ebp
	js	.L737
	xorl	%edx, %edx
	movl	$1, %ebx
	.align 16
.L733:
	leal	(%ebx,%ebx,4), %ebx
	addl	$1, %edx
	addl	%ebx, %ebx
	cmpl	%edx, %eax
	jge	.L733
.L731:
	movl	%ebx, %eax
	movl	$1374389535, %edx
	sarl	$31, %ebx
	imull	%edx
	xorl	%edi, %edi
	sarl	$5, %edx
	movl	%edx, %ecx
	subl	%ebx, %ecx
	xorl	%ebx, %ebx
	.align 16
.L734:
	movsbl	(%esi,%ebx), %eax
	addl	$1, %ebx
	subl	$48, %eax
	imull	%ecx, %eax
	addl	%eax, %edi
	movl	$1717986919, %eax
	imull	%ecx
	sarl	$31, %ecx
	sarl	$2, %edx
	subl	%ecx, %edx
	cmpl	%ebp, %ebx
	movl	%edx, %ecx
	jle	.L734
	popl	%ebx
	.cfi_remember_state
	.cfi_restore 3
	.cfi_def_cfa_offset 16
	movl	%edi, %eax
	popl	%esi
	.cfi_restore 6
	.cfi_def_cfa_offset 12
	popl	%edi
	.cfi_restore 7
	.cfi_def_cfa_offset 8
	popl	%ebp
	.cfi_restore 5
	.cfi_def_cfa_offset 4
	ret
	.align 16
.L737:
	.cfi_restore_state
	xorl	%edi, %edi
	popl	%ebx
	.cfi_remember_state
	.cfi_restore 3
	.cfi_def_cfa_offset 16
	movl	%edi, %eax
	popl	%esi
	.cfi_restore 6
	.cfi_def_cfa_offset 12
	popl	%edi
	.cfi_restore 7
	.cfi_def_cfa_offset 8
	popl	%ebp
	.cfi_restore 5
	.cfi_def_cfa_offset 4
	ret
.L736:
	.cfi_restore_state
	movl	$10, %ebx
	xorl	%ebp, %ebp
	jmp	.L731
	.cfi_endproc
.LFE90:
	.size	StrToInt, .-StrToInt
	.comm	malloc,4,4
	.comm	free,4,4
	.comm	kfree,4,4
	.section	.rodata
	.align 32
	.type	powf_log_table, @object
	.size	powf_log_table, 2048
powf_log_table:
	.long	0
	.long	1072693248
	.long	0
	.long	-2147483648
	.long	0
	.long	1072676864
	.long	-1576045785
	.long	1065823355
	.long	66588640
	.long	1072660734
	.long	746536380
	.long	1066866022
	.long	792917039
	.long	1072644852
	.long	728057311
	.long	1067532010
	.long	-754078228
	.long	1072629212
	.long	-1114173219
	.long	1067902960
	.long	1822107338
	.long	1072613810
	.long	1578293841
	.long	1068271090
	.long	-1550063385
	.long	1072598639
	.long	-792247276
	.long	1068567692
	.long	1217975800
	.long	1072583695
	.long	333745664
	.long	1068749000
	.long	1399841193
	.long	1072568972
	.long	1365893160
	.long	1068928959
	.long	-505290270
	.long	1072554465
	.long	1862992251
	.long	1069107590
	.long	909153661
	.long	1072540171
	.long	-494394944
	.long	1069284912
	.long	-1244918057
	.long	1072526083
	.long	-1259365857
	.long	1069460945
	.long	-401687589
	.long	1072512198
	.long	-1025455604
	.long	1069591613
	.long	1963413621
	.long	1072498512
	.long	1190883606
	.long	1069678368
	.long	609215219
	.long	1072485020
	.long	1366696622
	.long	1069764505
	.long	-604924971
	.long	1072471717
	.long	-1667652275
	.long	1069850033
	.long	-1621875762
	.long	1072458601
	.long	-1281036672
	.long	1069934961
	.long	-1908874354
	.long	1072445667
	.long	-199438918
	.long	1070019297
	.long	-473927426
	.long	1072432911
	.long	-1894778446
	.long	1070103050
	.long	-176505505
	.long	1072420330
	.long	-1974469915
	.long	1070186227
	.long	847306473
	.long	1072407921
	.long	-1046517743
	.long	1070268836
	.long	580400986
	.long	1072395679
	.long	-405412922
	.long	1070350885
	.long	1700691748
	.long	1072383601
	.long	-2013641439
	.long	1070432382
	.long	-1317123304
	.long	1072371684
	.long	106123426
	.long	1070513334
	.long	-739530793
	.long	1072359925
	.long	-1586536065
	.long	1070593747
	.long	-1356305462
	.long	1072348321
	.long	965848990
	.long	1070634863
	.long	982508859
	.long	1072336869
	.long	-1195332701
	.long	1070674542
	.long	-2119594250
	.long	1072325565
	.long	-1209825521
	.long	1070713963
	.long	-1551730120
	.long	1072314407
	.long	-1885180918
	.long	1070753129
	.long	-770891566
	.long	1072303392
	.long	-2011266349
	.long	1070792043
	.long	1367823980
	.long	1072292518
	.long	-648145335
	.long	1070830708
	.long	2011566961
	.long	1072281781
	.long	-1414182522
	.long	1070869128
	.long	-1404643392
	.long	1072271179
	.long	405503971
	.long	1070907306
	.long	1717986918
	.long	1072260710
	.long	685610788
	.long	1070945244
	.long	773627650
	.long	1072250371
	.long	-648211891
	.long	1070982945
	.long	-1696777203
	.long	1072240159
	.long	386683425
	.long	1071020414
	.long	1396523109
	.long	1072230073
	.long	-1049102528
	.long	1071057651
	.long	209510600
	.long	1072220110
	.long	-1431467912
	.long	1071094661
	.long	-1978287967
	.long	1072210267
	.long	-1752205611
	.long	1071131446
	.long	-1655891006
	.long	1072200543
	.long	1076271085
	.long	1071168009
	.long	617240809
	.long	1072190936
	.long	1341205951
	.long	1071204352
	.long	204522252
	.long	1072181443
	.long	1714393762
	.long	1071240478
	.long	1270700383
	.long	1072172062
	.long	372154056
	.long	1071276390
	.long	-404232216
	.long	1072162791
	.long	-410002454
	.long	1071312089
	.long	-251167678
	.long	1072153629
	.long	1452251874
	.long	1071347580
	.long	-2097542168
	.long	1072144574
	.long	-733413830
	.long	1071382863
	.long	-993056022
	.long	1072135623
	.long	-956822582
	.long	1071417942
	.long	-394939521
	.long	1072126775
	.long	-1975920912
	.long	1071452819
	.long	711737438
	.long	1072118029
	.long	1867174934
	.long	1071487496
	.long	-780903145
	.long	1072109381
	.long	-1119656536
	.long	1071521975
	.long	776491263
	.long	1072100832
	.long	-1319980570
	.long	1071556259
	.long	-1689032083
	.long	1072092378
	.long	2130169963
	.long	1071590350
	.long	2087498071
	.long	1072084019
	.long	1345936826
	.long	1071624250
	.long	1049880895
	.long	1072075753
	.long	-1561476812
	.long	1071651316
	.long	1471204267
	.long	1072067578
	.long	-1144373862
	.long	1071668078
	.long	1179936070
	.long	1072059493
	.long	2048907084
	.long	1071684748
	.long	-1854111565
	.long	1072051496
	.long	-519590390
	.long	1071701326
	.long	-933688543
	.long	1072043586
	.long	-279021453
	.long	1071717814
	.long	-2112659589
	.long	1072035762
	.long	-1612970313
	.long	1071734213
	.long	1570203097
	.long	1072028022
	.long	-383114480
	.long	1071750523
	.long	22967740
	.long	1072020365
	.long	-1107634889
	.long	1071766746
	.long	456911414
	.long	1072012789
	.long	220073435
	.long	1071782883
	.long	1613453323
	.long	1072005293
	.long	-1047085325
	.long	1071798933
	.long	-1944037829
	.long	1071997876
	.long	-1028692587
	.long	1071814899
	.long	1641532003
	.long	1071990537
	.long	-200406587
	.long	1071830781
	.long	-1431655765
	.long	1071983274
	.long	902281374
	.long	1071846581
	.long	912402379
	.long	1071976087
	.long	1685290227
	.long	1071862298
	.long	-619892187
	.long	1071968973
	.long	1497160307
	.long	1071877934
	.long	1960267125
	.long	1071961933
	.long	-369766609
	.long	1071893489
	.long	-438261969
	.long	1071954964
	.long	-383230157
	.long	1071908965
	.long	370631696
	.long	1071948067
	.long	640134627
	.long	1071924363
	.long	-216917540
	.long	1071941238
	.long	1830856822
	.long	1071939682
	.long	1877699270
	.long	1071934479
	.long	-2027272955
	.long	1071954924
	.long	-2061584302
	.long	1071927787
	.long	978671960
	.long	1071970090
	.long	811983867
	.long	1071921162
	.long	1237060753
	.long	1071985180
	.long	1956123719
	.long	1071914602
	.long	1972430533
	.long	1072000195
	.long	1502180680
	.long	1071908107
	.long	2066579802
	.long	1072015136
	.long	-336860180
	.long	1071901675
	.long	354474752
	.long	1072030004
	.long	1026601939
	.long	1071895307
	.long	-79867391
	.long	1072044798
	.long	1667948464
	.long	1071889000
	.long	-492419205
	.long	1072059521
	.long	2033366159
	.long	1071882754
	.long	2111663637
	.long	1072074173
	.long	-1651910498
	.long	1071876568
	.long	2093991576
	.long	1072088754
	.long	-205500828
	.long	1071870441
	.long	-1931326249
	.long	1072103265
	.long	-1554369117
	.long	1071864373
	.long	1493063446
	.long	1072117707
	.long	-671724743
	.long	1071858362
	.long	-1986155959
	.long	1072132080
	.long	-1053482544
	.long	1071852408
	.long	-992590560
	.long	1072146385
	.long	-1834939080
	.long	1071846510
	.long	-1369054172
	.long	1072160623
	.long	-2087273826
	.long	1071840667
	.long	-407027535
	.long	1072174794
	.long	-819040275
	.long	1071834878
	.long	269159650
	.long	1072188900
	.long	-1272582903
	.long	1071829143
	.long	-1002000833
	.long	1072202939
	.long	1959455126
	.long	1071823461
	.long	-1623541517
	.long	1072216914
	.long	1457924678
	.long	1071817831
	.long	965684568
	.long	1072230825
	.long	-1549326102
	.long	1071812252
	.long	701725066
	.long	1072244672
	.long	-1483715975
	.long	1071806724
	.long	76038298
	.long	1072258456
	.long	-1302094158
	.long	1071801246
	.long	1546184955
	.long	1072272177
	.long	386933991
	.long	1071795818
	.long	-1053494333
	.long	1072285836
	.long	731877835
	.long	1071790438
	.long	-1036444132
	.long	1072299434
	.long	1227133513
	.long	1071785106
	.long	-338145664
	.long	1072312971
	.long	-878082203
	.long	1071779821
	.long	-925610246
	.long	1072326448
	.long	304068481
	.long	1071774584
	.long	-501852693
	.long	1072339865
	.long	2119102807
	.long	1071769392
	.long	-1095278956
	.long	1072353223
	.long	1959107889
	.long	1071764246
	.long	-469216608
	.long	1072366522
	.long	1556691203
	.long	1071759145
	.long	-711326209
	.long	1072379763
	.long	-1605944293
	.long	1071754088
	.long	356845112
	.long	1072392947
	.long	-1413062833
	.long	1071749075
	.long	590429784
	.long	1072406073
	.long	-296204641
	.long	1071744105
	.long	2111664295
	.long	1072419142
	.long	-645166761
	.long	1071739178
	.long	-1574533327
	.long	1072432155
	.long	-513927711
	.long	1071734293
	.long	189709370
	.long	1072445113
	.long	2083516050
	.long	1071729450
	.long	855940000
	.long	1072458015
	.long	582368447
	.long	1071724648
	.long	-1855332830
	.long	1072470862
	.long	1341044641
	.long	1071719886
	.long	-1659232364
	.long	1072483655
	.long	-2129437567
	.long	1071715164
	.long	-885952285
	.long	1072496394
	.long	898528723
	.long	1071710482
	.long	-1890400557
	.long	1072509080
	.long	-286331153
	.long	1071705838
	.long	1538147939
	.long	1072521713
	.long	819786289
	.long	1071701234
	.long	-1593348190
	.long	1072534293
	.long	-2129735849
	.long	1071696667
	.long	-826595364
	.long	1072546821
	.long	1732126728
	.long	1071692138
	.long	1388684257
	.long	1072559298
	.long	1830641798
	.long	1071687646
	.long	-1714932935
	.long	1072571723
	.long	508383884
	.long	1071683191
	.long	252636409
	.long	1072584098
	.long	139673733
	.long	1071678772
	.long	479608589
	.long	1072596422
	.long	-1165031615
	.long	1071674388
	.long	722493595
	.long	1072608696
	.long	-969831325
	.long	1071670040
	.long	-1578457025
	.long	1072620920
	.long	-1103927337
	.long	1071665727
	.long	-414005560
	.long	1072633095
	.long	927712936
	.long	1071661449
	.long	1614538525
	.long	1072645222
	.long	-941128292
	.long	1071657204
	.long	1885582333
	.long	1072657300
	.long	136348168
	.long	1071652994
	.long	2052539426
	.long	1072669330
	.long	-1850400930
	.long	1071648816
	.long	-545788550
	.long	1072681312
	.long	0
	.long	1071644672
	.long	0
	.long	1072693248
	.comm	system_dir,4,4
	.comm	_cur_dir,4,4
	.comm	_prev_dir,4,4
	.comm	system_pdirCap,4,4
	.comm	_cur_pdirCap,4,4
	.comm	_prev_pdirCap,4,4
	.comm	vga,4,4
	.globl	maxmem
	.section	.bss
	.align 4
	.type	maxmem, @object
	.size	maxmem, 4
maxmem:
	.zero	4
	.globl	memAvailable
	.align 4
	.type	memAvailable, @object
	.size	memAvailable, 4
memAvailable:
	.zero	4
	.globl	blockID
	.data
	.align 2
	.type	blockID, @object
	.size	blockID, 2
blockID:
	.value	10
	.globl	max_mem
	.section	.bss
	.align 4
	.type	max_mem, @object
	.size	max_mem, 4
max_mem:
	.zero	4
	.comm	mmap_info,4,4
	.comm	Fmemmap,4,4
	.globl	strMemoryTypes
	.section	.rodata
.LC5:
	.string	"Available"
.LC6:
	.string	"Reserved"
.LC7:
	.string	"ACPI Reclaim"
	.align 4
.LC8:
	.string	"ACPI NVS MemoryKernel ReservedKernel Page Directory"
	.data
	.align 4
	.type	strMemoryTypes, @object
	.size	strMemoryTypes, 16
strMemoryTypes:
	.long	.LC5
	.long	.LC6
	.long	.LC7
	.long	.LC8
	.globl	frame_stack_end
	.section	.bss
	.align 4
	.type	frame_stack_end, @object
	.size	frame_stack_end, 4
frame_stack_end:
	.zero	4
	.globl	kSupportedDevices
	.section	.rodata
.LC9:
	.string	"ATI SB600"
.LC10:
	.string	"ATI SB700/800"
.LC11:
	.string	"ATI IXP700"
.LC12:
	.string	"SiS 966"
.LC13:
	.string	"SiS 968"
.LC14:
	.string	"Acer Labs M5288"
.LC15:
	.string	"NVIDIA MCP65"
.LC16:
	.string	"NVIDIA MCP67"
.LC17:
	.string	"NVIDIA MCP73"
.LC18:
	.string	"NVIDIA MCP77"
.LC19:
	.string	"NVIDIA MCP79"
.LC20:
	.string	"NVIDIA MCP89"
.LC21:
	.string	"VIA VT8251"
.LC22:
	.string	"Marvell 6121"
.LC23:
	.string	"Marvell 6145"
.LC24:
	.string	"JMicron JMB360"
.LC25:
	.string	"JMicron JMB361"
.LC26:
	.string	"JMicron JMB362"
.LC27:
	.string	"JMicron JMB363"
.LC28:
	.string	"JMicron JMB366"
.LC29:
	.string	"Intel ICH6R"
.LC30:
	.string	"Intel ICH6-M"
.LC31:
	.string	"Intel 63xxESB"
.LC32:
	.string	"Intel ESB2"
.LC33:
	.string	"Intel ICH7R (AHCI mode)"
.LC34:
	.string	"Intel ICH7R (RAID mode)"
.LC35:
	.string	"Intel ICH7-M (AHCI mode)"
.LC36:
	.string	"Intel ICH7-M DH (RAID mode)"
.LC37:
	.string	"Intel ICH8 (AHCI mode)"
	.align 4
.LC38:
	.string	"Intel ICH8R / ICH9 (RAID mode)"
.LC39:
	.string	"Intel ICH8M (AHCI mode)"
.LC40:
	.string	"Intel ICH8M (RAID mode)"
.LC41:
	.string	"Intel ICH9 (AHCI mode)"
.LC42:
	.string	"Intel ICH9"
.LC43:
	.string	"Intel ICH9M"
.LC44:
	.string	"Intel ICH10"
.LC45:
	.string	"UnKnown Device"
	.align 32
	.type	kSupportedDevices, @object
	.size	kSupportedDevices, 944
kSupportedDevices:
	.value	4098
	.value	17280
	.long	.LC9
	.value	4098
	.value	17296
	.long	.LC10
	.value	4098
	.value	17297
	.long	.LC11
	.value	4098
	.value	17298
	.long	.LC10
	.value	4098
	.value	17299
	.long	.LC10
	.value	4098
	.value	17300
	.long	.LC10
	.value	4098
	.value	17301
	.long	.LC10
	.value	4153
	.value	4484
	.long	.LC12
	.value	4153
	.value	4485
	.long	.LC12
	.value	4153
	.value	390
	.long	.LC13
	.value	4281
	.value	21128
	.long	.LC14
	.value	4318
	.value	1100
	.long	.LC15
	.value	4318
	.value	1101
	.long	.LC15
	.value	4318
	.value	1102
	.long	.LC15
	.value	4318
	.value	1103
	.long	.LC15
	.value	4318
	.value	1116
	.long	.LC15
	.value	4318
	.value	1117
	.long	.LC15
	.value	4318
	.value	1118
	.long	.LC15
	.value	4318
	.value	1119
	.long	.LC15
	.value	4318
	.value	1360
	.long	.LC16
	.value	4318
	.value	1361
	.long	.LC16
	.value	4318
	.value	1362
	.long	.LC16
	.value	4318
	.value	1363
	.long	.LC16
	.value	4318
	.value	1364
	.long	.LC16
	.value	4318
	.value	1365
	.long	.LC16
	.value	4318
	.value	1366
	.long	.LC16
	.value	4318
	.value	1367
	.long	.LC16
	.value	4318
	.value	1368
	.long	.LC16
	.value	4318
	.value	1369
	.long	.LC16
	.value	4318
	.value	1370
	.long	.LC16
	.value	4318
	.value	1371
	.long	.LC16
	.value	4318
	.value	2032
	.long	.LC17
	.value	4318
	.value	2033
	.long	.LC17
	.value	4318
	.value	2034
	.long	.LC17
	.value	4318
	.value	2035
	.long	.LC17
	.value	4318
	.value	2036
	.long	.LC17
	.value	4318
	.value	2037
	.long	.LC17
	.value	4318
	.value	2038
	.long	.LC17
	.value	4318
	.value	2039
	.long	.LC17
	.value	4318
	.value	2040
	.long	.LC17
	.value	4318
	.value	2041
	.long	.LC17
	.value	4318
	.value	2042
	.long	.LC17
	.value	4318
	.value	2043
	.long	.LC17
	.value	4318
	.value	2768
	.long	.LC18
	.value	4318
	.value	2769
	.long	.LC18
	.value	4318
	.value	2770
	.long	.LC18
	.value	4318
	.value	2771
	.long	.LC18
	.value	4318
	.value	2772
	.long	.LC18
	.value	4318
	.value	2773
	.long	.LC18
	.value	4318
	.value	2774
	.long	.LC18
	.value	4318
	.value	2775
	.long	.LC18
	.value	4318
	.value	2776
	.long	.LC18
	.value	4318
	.value	2777
	.long	.LC18
	.value	4318
	.value	2778
	.long	.LC18
	.value	4318
	.value	2779
	.long	.LC18
	.value	4318
	.value	2740
	.long	.LC19
	.value	4318
	.value	2741
	.long	.LC19
	.value	4318
	.value	2742
	.long	.LC19
	.value	4318
	.value	2743
	.long	.LC19
	.value	4318
	.value	2744
	.long	.LC19
	.value	4318
	.value	2745
	.long	.LC19
	.value	4318
	.value	2746
	.long	.LC19
	.value	4318
	.value	2747
	.long	.LC19
	.value	4318
	.value	2748
	.long	.LC19
	.value	4318
	.value	2749
	.long	.LC19
	.value	4318
	.value	2750
	.long	.LC19
	.value	4318
	.value	2751
	.long	.LC19
	.value	4318
	.value	3460
	.long	.LC20
	.value	4318
	.value	3461
	.long	.LC20
	.value	4318
	.value	3462
	.long	.LC20
	.value	4318
	.value	3463
	.long	.LC20
	.value	4318
	.value	3464
	.long	.LC20
	.value	4318
	.value	3465
	.long	.LC20
	.value	4318
	.value	3466
	.long	.LC20
	.value	4318
	.value	3467
	.long	.LC20
	.value	4318
	.value	3468
	.long	.LC20
	.value	4318
	.value	3469
	.long	.LC20
	.value	4318
	.value	3470
	.long	.LC20
	.value	4318
	.value	3471
	.long	.LC20
	.value	4358
	.value	13129
	.long	.LC21
	.value	4358
	.value	25223
	.long	.LC21
	.value	4523
	.value	24865
	.long	.LC22
	.value	4523
	.value	24901
	.long	.LC23
	.value	6523
	.value	9056
	.long	.LC24
	.value	6523
	.value	9057
	.long	.LC25
	.value	6523
	.value	9058
	.long	.LC26
	.value	6523
	.value	9059
	.long	.LC27
	.value	6523
	.value	9062
	.long	.LC28
	.value	-32634
	.value	9810
	.long	.LC29
	.value	-32634
	.value	9811
	.long	.LC30
	.value	-32634
	.value	9857
	.long	.LC31
	.value	-32634
	.value	9858
	.long	.LC32
	.value	-32634
	.value	9859
	.long	.LC32
	.value	-32634
	.value	10177
	.long	.LC33
	.value	-32634
	.value	10179
	.long	.LC34
	.value	-32634
	.value	10181
	.long	.LC35
	.value	-32634
	.value	10182
	.long	.LC36
	.value	-32634
	.value	10273
	.long	.LC37
	.value	-32634
	.value	10274
	.long	.LC38
	.value	-32634
	.value	10276
	.long	.LC37
	.value	-32634
	.value	10281
	.long	.LC39
	.value	-32634
	.value	10282
	.long	.LC40
	.value	-32634
	.value	10530
	.long	.LC41
	.value	-32634
	.value	10531
	.long	.LC41
	.value	-32634
	.value	10532
	.long	.LC42
	.value	-32634
	.value	10533
	.long	.LC42
	.value	-32634
	.value	10535
	.long	.LC42
	.value	-32634
	.value	10537
	.long	.LC43
	.value	-32634
	.value	10538
	.long	.LC43
	.value	-32634
	.value	10539
	.long	.LC43
	.value	-32634
	.value	10540
	.long	.LC43
	.value	-32634
	.value	10543
	.long	.LC43
	.value	-32634
	.value	10573
	.long	.LC42
	.value	-32634
	.value	10574
	.long	.LC43
	.value	-32634
	.value	14853
	.long	.LC44
	.value	-32634
	.value	14882
	.long	.LC44
	.value	-32634
	.value	14885
	.long	.LC44
	.value	0
	.value	0
	.long	.LC45
	.comm	ident,512,32
	.comm	HDD,1,1
	.comm	drive,2,2
	.globl	PciVenTable
	.section	.bss
	.align 4
	.type	PciVenTable, @object
	.size	PciVenTable, 0
PciVenTable:
	.zero	1
	.globl	PciDevTable
	.align 4
	.type	PciDevTable, @object
	.size	PciDevTable, 0
PciDevTable:
	.zero	1
	.globl	PciClassCodeTable
	.section	.rodata
	.align 4
.LC46:
	.string	"Pre-2.0 PCI Specification Device"
.LC47:
	.string	"Non-VGA"
.LC48:
	.string	""
.LC49:
	.string	"VGA Compatible"
.LC50:
	.string	"Mass Storage Controller"
.LC51:
	.string	"SCSI"
.LC52:
	.string	"IDE"
.LC53:
	.string	"Floppy"
.LC54:
	.string	"IPI"
.LC55:
	.string	"RAID"
.LC56:
	.string	"Other"
.LC57:
	.string	"Network Controller"
.LC58:
	.string	"Ethernet"
.LC59:
	.string	"Token Ring"
.LC60:
	.string	"FDDI"
.LC61:
	.string	"ATM"
.LC62:
	.string	"Display Controller"
.LC63:
	.string	"PC Compatible"
.LC64:
	.string	"VGA"
.LC65:
	.string	"8514"
.LC66:
	.string	"XGA"
.LC67:
	.string	"Multimedia Device"
.LC68:
	.string	"Video"
.LC69:
	.string	"Audio"
.LC70:
	.string	"Memory Controller"
.LC71:
	.string	"RAM"
.LC72:
	.string	"Flash"
.LC73:
	.string	"Bridge Device"
.LC74:
	.string	"Host/PCI"
.LC75:
	.string	"PCI/ISA"
.LC76:
	.string	"PCI/EISA"
.LC77:
	.string	"PCI/Micro Channel"
.LC78:
	.string	"PCI/PCI"
.LC79:
	.string	"PCI/PCMCIA"
.LC80:
	.string	"PCI/NuBus"
.LC81:
	.string	"PCI/CardBus"
	.align 4
.LC82:
	.string	"Simple Communications Controller"
.LC83:
	.string	"Serial"
.LC84:
	.string	"Generic XT Compatible"
.LC85:
	.string	"16450 Compatible"
.LC86:
	.string	"16550 Compatible"
.LC87:
	.string	"Parallel"
.LC88:
	.string	"Standard"
.LC89:
	.string	"Bidirectional"
.LC90:
	.string	"ECP 1.X Compliant"
.LC91:
	.string	"Base Systems Peripheral"
	.align 4
.LC92:
	.string	"PIC (Programmable Interrupt Controller)"
.LC93:
	.string	"Generic 8259"
.LC94:
	.string	"ISA"
.LC95:
	.string	"PCI"
.LC96:
	.string	"DMA (Direct Memory Access)"
.LC97:
	.string	"EISA"
.LC98:
	.string	"System Timer"
.LC99:
	.string	"RTC (Real Time Clock)"
.LC100:
	.string	"Generic"
.LC101:
	.string	"Input Device"
.LC102:
	.string	"Keyboard"
.LC103:
	.string	"Digitizer (Pen)"
.LC104:
	.string	"Mouse"
.LC105:
	.string	"Docking Station"
.LC106:
	.string	"Processor"
.LC107:
	.string	"i386"
.LC108:
	.string	"i486"
.LC109:
	.string	"Pentium"
.LC110:
	.string	"Alpha"
.LC111:
	.string	"Power PC"
.LC112:
	.string	"Co-processor"
.LC113:
	.string	"Serial Bus Controller"
.LC114:
	.string	"Firewire (IEEE 1394)"
.LC115:
	.string	"ACCESS.bus"
	.align 4
.LC116:
	.string	"SSA (Serial Storage Archetecture)"
.LC117:
	.string	"USB (Universal Serial Bus)"
.LC118:
	.string	"Fibre Channel"
.LC119:
	.string	"Unknown"
	.align 4
.LC120:
	.string	"Device Does Not Fit In Class Codes"
.LC121:
	.string	"UDF"
	.data
	.align 32
	.type	PciClassCodeTable, @object
	.size	PciClassCodeTable, 1104
PciClassCodeTable:
	.byte	0
	.byte	0
	.byte	0
	.zero	1
	.long	.LC46
	.long	.LC47
	.long	.LC48
	.byte	0
	.byte	1
	.byte	0
	.zero	1
	.long	.LC46
	.long	.LC49
	.long	.LC48
	.byte	1
	.byte	0
	.byte	0
	.zero	1
	.long	.LC50
	.long	.LC51
	.long	.LC48
	.byte	1
	.byte	1
	.byte	0
	.zero	1
	.long	.LC50
	.long	.LC52
	.long	.LC48
	.byte	1
	.byte	2
	.byte	0
	.zero	1
	.long	.LC50
	.long	.LC53
	.long	.LC48
	.byte	1
	.byte	3
	.byte	0
	.zero	1
	.long	.LC50
	.long	.LC54
	.long	.LC48
	.byte	1
	.byte	4
	.byte	0
	.zero	1
	.long	.LC50
	.long	.LC55
	.long	.LC48
	.byte	1
	.byte	-128
	.byte	0
	.zero	1
	.long	.LC50
	.long	.LC56
	.long	.LC48
	.byte	2
	.byte	0
	.byte	0
	.zero	1
	.long	.LC57
	.long	.LC58
	.long	.LC48
	.byte	2
	.byte	1
	.byte	0
	.zero	1
	.long	.LC57
	.long	.LC59
	.long	.LC48
	.byte	2
	.byte	2
	.byte	0
	.zero	1
	.long	.LC57
	.long	.LC60
	.long	.LC48
	.byte	2
	.byte	3
	.byte	0
	.zero	1
	.long	.LC57
	.long	.LC61
	.long	.LC48
	.byte	2
	.byte	-128
	.byte	0
	.zero	1
	.long	.LC57
	.long	.LC56
	.long	.LC48
	.byte	3
	.byte	0
	.byte	0
	.zero	1
	.long	.LC62
	.long	.LC63
	.long	.LC64
	.byte	3
	.byte	0
	.byte	1
	.zero	1
	.long	.LC62
	.long	.LC63
	.long	.LC65
	.byte	3
	.byte	1
	.byte	0
	.zero	1
	.long	.LC62
	.long	.LC66
	.long	.LC48
	.byte	3
	.byte	-128
	.byte	0
	.zero	1
	.long	.LC62
	.long	.LC56
	.long	.LC48
	.byte	4
	.byte	0
	.byte	0
	.zero	1
	.long	.LC67
	.long	.LC68
	.long	.LC48
	.byte	4
	.byte	1
	.byte	0
	.zero	1
	.long	.LC67
	.long	.LC69
	.long	.LC48
	.byte	4
	.byte	-128
	.byte	0
	.zero	1
	.long	.LC67
	.long	.LC56
	.long	.LC48
	.byte	5
	.byte	0
	.byte	0
	.zero	1
	.long	.LC70
	.long	.LC71
	.long	.LC48
	.byte	5
	.byte	1
	.byte	0
	.zero	1
	.long	.LC70
	.long	.LC72
	.long	.LC48
	.byte	5
	.byte	-128
	.byte	0
	.zero	1
	.long	.LC70
	.long	.LC56
	.long	.LC48
	.byte	6
	.byte	0
	.byte	0
	.zero	1
	.long	.LC73
	.long	.LC74
	.long	.LC48
	.byte	6
	.byte	1
	.byte	0
	.zero	1
	.long	.LC73
	.long	.LC75
	.long	.LC48
	.byte	6
	.byte	2
	.byte	0
	.zero	1
	.long	.LC73
	.long	.LC76
	.long	.LC48
	.byte	6
	.byte	3
	.byte	0
	.zero	1
	.long	.LC73
	.long	.LC77
	.long	.LC48
	.byte	6
	.byte	4
	.byte	0
	.zero	1
	.long	.LC73
	.long	.LC78
	.long	.LC48
	.byte	6
	.byte	5
	.byte	0
	.zero	1
	.long	.LC73
	.long	.LC79
	.long	.LC48
	.byte	6
	.byte	6
	.byte	0
	.zero	1
	.long	.LC73
	.long	.LC80
	.long	.LC48
	.byte	6
	.byte	7
	.byte	0
	.zero	1
	.long	.LC73
	.long	.LC81
	.long	.LC48
	.byte	6
	.byte	-128
	.byte	0
	.zero	1
	.long	.LC73
	.long	.LC56
	.long	.LC48
	.byte	7
	.byte	0
	.byte	0
	.zero	1
	.long	.LC82
	.long	.LC83
	.long	.LC84
	.byte	7
	.byte	0
	.byte	1
	.zero	1
	.long	.LC82
	.long	.LC83
	.long	.LC85
	.byte	7
	.byte	0
	.byte	2
	.zero	1
	.long	.LC82
	.long	.LC83
	.long	.LC86
	.byte	7
	.byte	1
	.byte	0
	.zero	1
	.long	.LC82
	.long	.LC87
	.long	.LC88
	.byte	7
	.byte	1
	.byte	0
	.zero	1
	.long	.LC82
	.long	.LC87
	.long	.LC89
	.byte	7
	.byte	1
	.byte	1
	.zero	1
	.long	.LC82
	.long	.LC87
	.long	.LC90
	.byte	7
	.byte	-128
	.byte	2
	.zero	1
	.long	.LC82
	.long	.LC56
	.long	.LC48
	.byte	8
	.byte	0
	.byte	0
	.zero	1
	.long	.LC91
	.long	.LC92
	.long	.LC93
	.byte	8
	.byte	0
	.byte	1
	.zero	1
	.long	.LC91
	.long	.LC92
	.long	.LC94
	.byte	8
	.byte	0
	.byte	2
	.zero	1
	.long	.LC91
	.long	.LC92
	.long	.LC95
	.byte	8
	.byte	1
	.byte	0
	.zero	1
	.long	.LC91
	.long	.LC96
	.long	.LC93
	.byte	8
	.byte	1
	.byte	1
	.zero	1
	.long	.LC91
	.long	.LC96
	.long	.LC94
	.byte	8
	.byte	1
	.byte	2
	.zero	1
	.long	.LC91
	.long	.LC96
	.long	.LC97
	.byte	8
	.byte	2
	.byte	0
	.zero	1
	.long	.LC91
	.long	.LC98
	.long	.LC93
	.byte	8
	.byte	2
	.byte	1
	.zero	1
	.long	.LC91
	.long	.LC98
	.long	.LC94
	.byte	8
	.byte	2
	.byte	2
	.zero	1
	.long	.LC91
	.long	.LC98
	.long	.LC97
	.byte	8
	.byte	3
	.byte	0
	.zero	1
	.long	.LC91
	.long	.LC99
	.long	.LC100
	.byte	8
	.byte	3
	.byte	1
	.zero	1
	.long	.LC91
	.long	.LC99
	.long	.LC94
	.byte	8
	.byte	-128
	.byte	0
	.zero	1
	.long	.LC91
	.long	.LC56
	.long	.LC48
	.byte	9
	.byte	0
	.byte	0
	.zero	1
	.long	.LC101
	.long	.LC102
	.long	.LC48
	.byte	9
	.byte	1
	.byte	0
	.zero	1
	.long	.LC101
	.long	.LC103
	.long	.LC48
	.byte	9
	.byte	2
	.byte	0
	.zero	1
	.long	.LC101
	.long	.LC104
	.long	.LC48
	.byte	9
	.byte	-128
	.byte	0
	.zero	1
	.long	.LC101
	.long	.LC56
	.long	.LC48
	.byte	10
	.byte	0
	.byte	0
	.zero	1
	.long	.LC105
	.long	.LC100
	.long	.LC48
	.byte	10
	.byte	-128
	.byte	0
	.zero	1
	.long	.LC105
	.long	.LC56
	.long	.LC48
	.byte	11
	.byte	0
	.byte	0
	.zero	1
	.long	.LC106
	.long	.LC107
	.long	.LC48
	.byte	11
	.byte	1
	.byte	0
	.zero	1
	.long	.LC106
	.long	.LC108
	.long	.LC48
	.byte	11
	.byte	2
	.byte	0
	.zero	1
	.long	.LC106
	.long	.LC109
	.long	.LC48
	.byte	11
	.byte	16
	.byte	0
	.zero	1
	.long	.LC106
	.long	.LC110
	.long	.LC48
	.byte	11
	.byte	32
	.byte	0
	.zero	1
	.long	.LC106
	.long	.LC111
	.long	.LC48
	.byte	11
	.byte	-128
	.byte	0
	.zero	1
	.long	.LC106
	.long	.LC112
	.long	.LC48
	.byte	12
	.byte	0
	.byte	0
	.zero	1
	.long	.LC113
	.long	.LC114
	.long	.LC48
	.byte	12
	.byte	1
	.byte	0
	.zero	1
	.long	.LC113
	.long	.LC115
	.long	.LC48
	.byte	12
	.byte	2
	.byte	0
	.zero	1
	.long	.LC113
	.long	.LC116
	.long	.LC48
	.byte	12
	.byte	3
	.byte	0
	.zero	1
	.long	.LC113
	.long	.LC117
	.long	.LC48
	.byte	12
	.byte	4
	.byte	0
	.zero	1
	.long	.LC113
	.long	.LC118
	.long	.LC48
	.byte	-1
	.byte	0
	.byte	0
	.zero	1
	.long	.LC119
	.long	.LC120
	.long	.LC121
	.globl	PciCommandFlags
	.section	.rodata
.LC122:
	.string	"I/O Access"
.LC123:
	.string	"Memory Access"
.LC124:
	.string	"Bus Mastering"
.LC125:
	.string	"Special Cycles"
.LC126:
	.string	"Memory Write & Invalidate"
.LC127:
	.string	"Palette Snoop"
.LC128:
	.string	"Parity Errors"
.LC129:
	.string	"Wait Cycles"
.LC130:
	.string	"System Errors"
.LC131:
	.string	"Fast Back-To-Back"
.LC132:
	.string	"Reserved 10"
.LC133:
	.string	"Reserved 11"
.LC134:
	.string	"Reserved 12"
.LC135:
	.string	"Reserved 13"
.LC136:
	.string	"Reserved 14"
.LC137:
	.string	"Reserved 15"
	.data
	.align 32
	.type	PciCommandFlags, @object
	.size	PciCommandFlags, 64
PciCommandFlags:
	.long	.LC122
	.long	.LC123
	.long	.LC124
	.long	.LC125
	.long	.LC126
	.long	.LC127
	.long	.LC128
	.long	.LC129
	.long	.LC130
	.long	.LC131
	.long	.LC132
	.long	.LC133
	.long	.LC134
	.long	.LC135
	.long	.LC136
	.long	.LC137
	.globl	PciStatusFlags
	.section	.rodata
.LC138:
	.string	"Reserved 0"
.LC139:
	.string	"Reserved 1"
.LC140:
	.string	"Reserved 2"
.LC141:
	.string	"Reserved 3"
.LC142:
	.string	"Reserved 4"
.LC143:
	.string	"66 MHz Capable"
.LC144:
	.string	"User-Defined Features"
.LC145:
	.string	"Data Parity Reported"
.LC146:
	.string	"Signalled Target Abort"
.LC147:
	.string	"Received Target Abort"
.LC148:
	.string	"Received Master Abort"
.LC149:
	.string	"Signalled System Error"
.LC150:
	.string	"Detected Parity Error"
	.data
	.align 32
	.type	PciStatusFlags, @object
	.size	PciStatusFlags, 64
PciStatusFlags:
	.long	.LC138
	.long	.LC139
	.long	.LC140
	.long	.LC141
	.long	.LC142
	.long	.LC143
	.long	.LC144
	.long	.LC131
	.long	.LC145
	.long	.LC48
	.long	.LC48
	.long	.LC146
	.long	.LC147
	.long	.LC148
	.long	.LC149
	.long	.LC150
	.globl	PciDevSelFlags
	.section	.rodata
.LC151:
	.string	"Fast Devsel Speed"
.LC152:
	.string	"Medium Devsel Speed"
.LC153:
	.string	"Slow Devsel Speed"
.LC154:
	.string	"Reserved 9&10"
	.data
	.align 4
	.type	PciDevSelFlags, @object
	.size	PciDevSelFlags, 16
PciDevSelFlags:
	.long	.LC151
	.long	.LC152
	.long	.LC153
	.long	.LC154
	.local	devices
	.comm	devices,229376,32
	.local	AHCI_Devices
	.comm	AHCI_Devices,896,32
	.local	TotalAHCIDevices
	.comm	TotalAHCIDevices,4,4
	.globl	test
	.align 4
	.type	test, @object
	.size	test, 20
test:
	.string	"6317065029"
	.zero	9
	.globl	AHCI_BASE
	.section	.bss
	.align 4
	.type	AHCI_BASE, @object
	.size	AHCI_BASE, 4
AHCI_BASE:
	.zero	4
	.comm	Disk_dev,4,4
	.comm	Disk_dev_start,4,4
	.comm	ahci,4,4
	.comm	ahci_start,4,4
	.globl	sata
	.align 4
	.type	sata, @object
	.size	sata, 4
sata:
	.zero	4
	.comm	fs_buf,1024,32
	.comm	clear_buf512,4,4
	.comm	start_handle,4,4
	.comm	end,4,4
	.comm	current,4,4
	.comm	curr_dir,108,32
	.comm	temp_curr_dir,108,32
	.comm	root_dir,108,32
	.comm	current_,146,32
	.comm	curr_port,4,4
	.comm	curr_disk,4,4
	.comm	curr_ahci,4,4
	.comm	sectors,4,4
	.comm	bytemap_off,4,4
	.comm	bytemap_end,4,4
	.comm	curr_file,162,32
	.comm	fsbuf,4,4
	.globl	header_data
	.data
	.align 4
	.type	header_data, @object
	.size	header_data, 4
header_data:
	.long	976
	.comm	MotherSpace,4,4
	.comm	KitList,4,4
	.comm	Kernel_task,4,4
	.comm	Idle_task,4,4
	.comm	Shell_task,4,4
	.comm	Shell_Istream_task,4,4
	.comm	Shell_Ostream_task,4,4
	.comm	TASK_LOCK_KILLLocked,4,4
	.comm	TASK_LOCK_ATDLocked,4,4
	.comm	kernel_proc,4,4
	.comm	Shell_proc,4,4
	.comm	SAS_proc,4,4
	.globl	processes
	.section	.bss
	.align 4
	.type	processes, @object
	.size	processes, 4
processes:
	.zero	4
	.globl	TIME_MASK
	.section	.rodata
	.align 4
	.type	TIME_MASK, @object
	.size	TIME_MASK, 4
TIME_MASK:
	.long	1044480
	.globl	total_CPU_Cores
	.data
	.align 4
	.type	total_CPU_Cores, @object
	.size	total_CPU_Cores, 4
total_CPU_Cores:
	.long	1
	.globl	aad
	.align 4
	.type	aad, @object
	.size	aad, 4
aad:
	.long	10
	.globl	adeg
	.section	.bss
	.align 4
	.type	adeg, @object
	.size	adeg, 4
adeg:
	.zero	4
	.globl	cli_already
	.align 4
	.type	cli_already, @object
	.size	cli_already, 4
cli_already:
	.zero	4
	.globl	multitasking_ON
	.align 4
	.type	multitasking_ON, @object
	.size	multitasking_ON, 4
multitasking_ON:
	.zero	4
	.globl	sas_bottom_task
	.data
	.align 4
	.type	sas_bottom_task, @object
	.size	sas_bottom_task, 4
sas_bottom_task:
	.long	1
	.comm	Shell_Commands_list,4,4
	.globl	up_input
	.section	.bss
	.align 4
	.type	up_input, @object
	.size	up_input, 4
up_input:
	.zero	4
	.globl	Main_CSI_struct
	.data
	.align 4
	.type	Main_CSI_struct, @object
	.size	Main_CSI_struct, 4
Main_CSI_struct:
	.long	52428800
	.comm	CSI_entries_ptr,4,4
	.comm	tot_entries,4,4
	.globl	CSI_mem_start
	.align 4
	.type	CSI_mem_start, @object
	.size	CSI_mem_start, 4
CSI_mem_start:
	.long	52428800
	.globl	key_pressed
	.section	.bss
	.type	key_pressed, @object
	.size	key_pressed, 1
key_pressed:
	.zero	1
	.globl	enter_pressed
	.align 4
	.type	enter_pressed, @object
	.size	enter_pressed, 4
enter_pressed:
	.zero	4
	.comm	Istream_ptr,4,4
	.comm	Current_buf,4,4
	.globl	kb_buff
	.align 4
	.type	kb_buff, @object
	.size	kb_buff, 4
kb_buff:
	.zero	4
	.comm	shell_buf,4,4
	.globl	shell_in
	.align 4
	.type	shell_in, @object
	.size	shell_in, 4
shell_in:
	.zero	4
	.globl	Current_strlen
	.align 4
	.type	Current_strlen, @object
	.size	Current_strlen, 4
Current_strlen:
	.zero	4
	.globl	shell_awake
	.data
	.align 4
	.type	shell_awake, @object
	.size	shell_awake, 4
shell_awake:
	.long	1
	.globl	shell_sleeping
	.section	.bss
	.align 4
	.type	shell_sleeping, @object
	.size	shell_sleeping, 4
shell_sleeping:
	.zero	4
	.comm	Shell_Istream,4,4
	.comm	Input_stream,4,4
	.comm	Istream_end,4,4
	.comm	shell_cmdTask,4,4
	.comm	tmpIstream,4,4
	.comm	shell_cmdFunc,4,4
	.globl	shlock
	.align 4
	.type	shlock, @object
	.size	shlock, 4
shlock:
	.zero	4
	.comm	SHELL_CMDTASKLocked,4,4
	.globl	LAPIC_EOI_send
	.data
	.align 4
	.type	LAPIC_EOI_send, @object
	.size	LAPIC_EOI_send, 4
LAPIC_EOI_send:
	.long	-18874192
	.section	.rodata
.LC155:
	.string	"\nFault1"
	.text
	.align 16
	.globl	divByZero_handler
	.type	divByZero_handler, @function
divByZero_handler:
.LFB115:
	.cfi_startproc
	subl	$24, %esp
	.cfi_def_cfa_offset 28
	pushl	$.LC155
	.cfi_def_cfa_offset 32
	call	printf
/APP
/  26 "Source/Interrupts/int_handlers.c" 1
	hlt
/  0 "" 2
/NO_APP
	call	Shell_Double_buffer
	addl	$16, %esp
	.cfi_def_cfa_offset 16
.L743:
	jmp	.L743
	.cfi_endproc
.LFE115:
	.size	divByZero_handler, .-divByZero_handler
	.section	.rodata
.LC156:
	.string	"\nFault2 %x"
	.text
	.align 16
	.globl	debug_handler
	.type	debug_handler, @function
debug_handler:
.LFB116:
	.cfi_startproc
	subl	$20, %esp
	.cfi_def_cfa_offset 24
	movzbl	-18874333, %eax
	pushl	%eax
	.cfi_def_cfa_offset 28
	pushl	$.LC156
	.cfi_def_cfa_offset 32
	call	printf
/APP
/  39 "Source/Interrupts/int_handlers.c" 1
	hlt
/  0 "" 2
/  42 "Source/Interrupts/int_handlers.c" 1
	iret
/  0 "" 2
/NO_APP
	addl	$28, %esp
	.cfi_def_cfa_offset 4
	ret
	.cfi_endproc
.LFE116:
	.size	debug_handler, .-debug_handler
	.section	.rodata
.LC157:
	.string	"\nFault3"
	.text
	.align 16
	.globl	NMI_handler
	.type	NMI_handler, @function
NMI_handler:
.LFB117:
	.cfi_startproc
	subl	$24, %esp
	.cfi_def_cfa_offset 28
	pushl	$.LC157
	.cfi_def_cfa_offset 32
	call	printf
/APP
/  49 "Source/Interrupts/int_handlers.c" 1
	hlt
/  0 "" 2
/NO_APP
	call	Shell_Double_buffer
	addl	$16, %esp
	.cfi_def_cfa_offset 16
.L748:
	jmp	.L748
	.cfi_endproc
.LFE117:
	.size	NMI_handler, .-NMI_handler
	.section	.rodata
.LC158:
	.string	"\nFault4"
	.text
	.align 16
	.globl	breakpoint_handler
	.type	breakpoint_handler, @function
breakpoint_handler:
.LFB118:
	.cfi_startproc
	subl	$24, %esp
	.cfi_def_cfa_offset 28
	pushl	$.LC158
	.cfi_def_cfa_offset 32
	call	printf
/APP
/  59 "Source/Interrupts/int_handlers.c" 1
	hlt
/  0 "" 2
/NO_APP
	call	Shell_Double_buffer
	addl	$16, %esp
	.cfi_def_cfa_offset 16
.L751:
	jmp	.L751
	.cfi_endproc
.LFE118:
	.size	breakpoint_handler, .-breakpoint_handler
	.section	.rodata
.LC159:
	.string	"\nFault5"
	.text
	.align 16
	.globl	overflow_handler
	.type	overflow_handler, @function
overflow_handler:
.LFB119:
	.cfi_startproc
	subl	$24, %esp
	.cfi_def_cfa_offset 28
	pushl	$.LC159
	.cfi_def_cfa_offset 32
	call	printf
/APP
/  69 "Source/Interrupts/int_handlers.c" 1
	hlt
/  0 "" 2
/NO_APP
	call	Shell_Double_buffer
	addl	$16, %esp
	.cfi_def_cfa_offset 16
.L754:
	jmp	.L754
	.cfi_endproc
.LFE119:
	.size	overflow_handler, .-overflow_handler
	.section	.rodata
.LC160:
	.string	"\nFault6 %x"
	.text
	.align 16
	.globl	outOfBounds_handler
	.type	outOfBounds_handler, @function
outOfBounds_handler:
.LFB120:
	.cfi_startproc
	subl	$12, %esp
	.cfi_def_cfa_offset 16
	call	Get_Scheduler
	subl	$8, %esp
	.cfi_def_cfa_offset 24
	pushl	(%eax)
	.cfi_def_cfa_offset 28
	pushl	$.LC160
	.cfi_def_cfa_offset 32
	call	printf
/APP
/  79 "Source/Interrupts/int_handlers.c" 1
	hlt
/  0 "" 2
/NO_APP
	call	Shell_Double_buffer
	addl	$16, %esp
	.cfi_def_cfa_offset 16
.L757:
	jmp	.L757
	.cfi_endproc
.LFE120:
	.size	outOfBounds_handler, .-outOfBounds_handler
	.section	.rodata
.LC161:
	.string	"\nFault7 %x"
	.text
	.align 16
	.globl	invalidInstr_handler
	.type	invalidInstr_handler, @function
invalidInstr_handler:
.LFB121:
	.cfi_startproc
	subl	$12, %esp
	.cfi_def_cfa_offset 16
	call	Get_Scheduler
	subl	$8, %esp
	.cfi_def_cfa_offset 24
	pushl	(%eax)
	.cfi_def_cfa_offset 28
	pushl	$.LC161
	.cfi_def_cfa_offset 32
	call	printf
/APP
/  89 "Source/Interrupts/int_handlers.c" 1
	hlt
/  0 "" 2
/NO_APP
	addl	$16, %esp
	.cfi_def_cfa_offset 16
.L760:
	jmp	.L760
	.cfi_endproc
.LFE121:
	.size	invalidInstr_handler, .-invalidInstr_handler
	.section	.rodata
.LC162:
	.string	"\nFault8"
	.text
	.align 16
	.globl	noCoprocessor_handler
	.type	noCoprocessor_handler, @function
noCoprocessor_handler:
.LFB122:
	.cfi_startproc
	subl	$24, %esp
	.cfi_def_cfa_offset 28
	pushl	$.LC162
	.cfi_def_cfa_offset 32
	call	printf
/APP
/  99 "Source/Interrupts/int_handlers.c" 1
	hlt
/  0 "" 2
/NO_APP
	call	Shell_Double_buffer
	addl	$16, %esp
	.cfi_def_cfa_offset 16
.L763:
	jmp	.L763
	.cfi_endproc
.LFE122:
	.size	noCoprocessor_handler, .-noCoprocessor_handler
	.section	.rodata
.LC163:
	.string	"\nFault9"
	.text
	.align 16
	.globl	doubleFault_handler
	.type	doubleFault_handler, @function
doubleFault_handler:
.LFB123:
	.cfi_startproc
	subl	$24, %esp
	.cfi_def_cfa_offset 28
	pushl	$.LC163
	.cfi_def_cfa_offset 32
	call	printf
	call	Shell_Double_buffer
	addl	$16, %esp
	.cfi_def_cfa_offset 16
.L766:
	jmp	.L766
	.cfi_endproc
.LFE123:
	.size	doubleFault_handler, .-doubleFault_handler
	.section	.rodata
.LC164:
	.string	"\nFault10"
	.text
	.align 16
	.globl	coprocessor_handler
	.type	coprocessor_handler, @function
coprocessor_handler:
.LFB124:
	.cfi_startproc
	subl	$24, %esp
	.cfi_def_cfa_offset 28
	pushl	$.LC164
	.cfi_def_cfa_offset 32
	call	printf
/APP
/  119 "Source/Interrupts/int_handlers.c" 1
	hlt
/  0 "" 2
/NO_APP
	call	Shell_Double_buffer
	addl	$16, %esp
	.cfi_def_cfa_offset 16
.L769:
	jmp	.L769
	.cfi_endproc
.LFE124:
	.size	coprocessor_handler, .-coprocessor_handler
	.section	.rodata
.LC165:
	.string	"\nFault11"
	.text
	.align 16
	.globl	badTSS_handler
	.type	badTSS_handler, @function
badTSS_handler:
.LFB125:
	.cfi_startproc
	subl	$24, %esp
	.cfi_def_cfa_offset 28
	pushl	$.LC165
	.cfi_def_cfa_offset 32
	call	printf
/APP
/  129 "Source/Interrupts/int_handlers.c" 1
	hlt
/  0 "" 2
/NO_APP
	call	Shell_Double_buffer
	addl	$16, %esp
	.cfi_def_cfa_offset 16
.L772:
	jmp	.L772
	.cfi_endproc
.LFE125:
	.size	badTSS_handler, .-badTSS_handler
	.section	.rodata
.LC166:
	.string	"\nFault12"
	.text
	.align 16
	.globl	segmentNotPresent_handler
	.type	segmentNotPresent_handler, @function
segmentNotPresent_handler:
.LFB126:
	.cfi_startproc
	subl	$24, %esp
	.cfi_def_cfa_offset 28
	pushl	$.LC166
	.cfi_def_cfa_offset 32
	call	printf
/APP
/  139 "Source/Interrupts/int_handlers.c" 1
	hlt
/  0 "" 2
/NO_APP
	call	Shell_Double_buffer
	addl	$16, %esp
	.cfi_def_cfa_offset 16
.L775:
	jmp	.L775
	.cfi_endproc
.LFE126:
	.size	segmentNotPresent_handler, .-segmentNotPresent_handler
	.section	.rodata
.LC167:
	.string	"\nFault13"
	.text
	.align 16
	.globl	stackFault_handler
	.type	stackFault_handler, @function
stackFault_handler:
.LFB127:
	.cfi_startproc
	subl	$24, %esp
	.cfi_def_cfa_offset 28
	pushl	$.LC167
	.cfi_def_cfa_offset 32
	call	printf
/APP
/  149 "Source/Interrupts/int_handlers.c" 1
	hlt
/  0 "" 2
/NO_APP
	call	Shell_Double_buffer
	addl	$16, %esp
	.cfi_def_cfa_offset 16
.L778:
	jmp	.L778
	.cfi_endproc
.LFE127:
	.size	stackFault_handler, .-stackFault_handler
	.globl	avc
	.section	.bss
	.align 4
	.type	avc, @object
	.size	avc, 4
avc:
	.zero	4
	.text
	.align 16
	.globl	generalProtectionFault_handler
	.type	generalProtectionFault_handler, @function
generalProtectionFault_handler:
.LFB128:
	.cfi_startproc
	subl	$12, %esp
	.cfi_def_cfa_offset 16
/APP
/  168 "Source/Interrupts/int_handlers.c" 1
	hlt
/  0 "" 2
/NO_APP
	call	Shell_Double_buffer
.L781:
	jmp	.L781
	.cfi_endproc
.LFE128:
	.size	generalProtectionFault_handler, .-generalProtectionFault_handler
	.section	.rodata
.LC168:
	.string	"\nPage Fault"
	.text
	.align 16
	.globl	pageFault_caller
	.type	pageFault_caller, @function
pageFault_caller:
.LFB129:
	.cfi_startproc
	subl	$24, %esp
	.cfi_def_cfa_offset 28
	pushl	$.LC168
	.cfi_def_cfa_offset 32
	call	printf
/APP
/  196 "Source/Interrupts/int_handlers.c" 1
	hlt
/  0 "" 2
/NO_APP
	addl	$28, %esp
	.cfi_def_cfa_offset 4
	ret
	.cfi_endproc
.LFE129:
	.size	pageFault_caller, .-pageFault_caller
	.section	.rodata
.LC169:
	.string	"\nFaul15t"
	.text
	.align 16
	.globl	unknownInterrupt_handler
	.type	unknownInterrupt_handler, @function
unknownInterrupt_handler:
.LFB130:
	.cfi_startproc
	subl	$24, %esp
	.cfi_def_cfa_offset 28
	pushl	$.LC169
	.cfi_def_cfa_offset 32
	call	printf
/APP
/  236 "Source/Interrupts/int_handlers.c" 1
	hlt
/  0 "" 2
/NO_APP
	call	Shell_Double_buffer
	addl	$16, %esp
	.cfi_def_cfa_offset 16
.L785:
	jmp	.L785
	.cfi_endproc
.LFE130:
	.size	unknownInterrupt_handler, .-unknownInterrupt_handler
	.section	.rodata
.LC170:
	.string	"\nFault16"
	.text
	.align 16
	.globl	coprocessorFault_handler
	.type	coprocessorFault_handler, @function
coprocessorFault_handler:
.LFB131:
	.cfi_startproc
	subl	$24, %esp
	.cfi_def_cfa_offset 28
	pushl	$.LC170
	.cfi_def_cfa_offset 32
	call	printf
/APP
/  246 "Source/Interrupts/int_handlers.c" 1
	hlt
/  0 "" 2
/NO_APP
	call	Shell_Double_buffer
	addl	$16, %esp
	.cfi_def_cfa_offset 16
.L788:
	jmp	.L788
	.cfi_endproc
.LFE131:
	.size	coprocessorFault_handler, .-coprocessorFault_handler
	.section	.rodata
.LC171:
	.string	"\nFault17"
	.text
	.align 16
	.globl	alignmentCheck_handler
	.type	alignmentCheck_handler, @function
alignmentCheck_handler:
.LFB132:
	.cfi_startproc
	subl	$24, %esp
	.cfi_def_cfa_offset 28
	pushl	$.LC171
	.cfi_def_cfa_offset 32
	call	printf
/APP
/  256 "Source/Interrupts/int_handlers.c" 1
	hlt
/  0 "" 2
/NO_APP
	call	Shell_Double_buffer
	addl	$16, %esp
	.cfi_def_cfa_offset 16
.L791:
	jmp	.L791
	.cfi_endproc
.LFE132:
	.size	alignmentCheck_handler, .-alignmentCheck_handler
	.section	.rodata
.LC172:
	.string	"\nFault18"
	.text
	.align 16
	.globl	machineCheck_handler
	.type	machineCheck_handler, @function
machineCheck_handler:
.LFB133:
	.cfi_startproc
	subl	$24, %esp
	.cfi_def_cfa_offset 28
	pushl	$.LC172
	.cfi_def_cfa_offset 32
	call	printf
/APP
/  266 "Source/Interrupts/int_handlers.c" 1
	hlt
/  0 "" 2
/NO_APP
	call	Shell_Double_buffer
	addl	$16, %esp
	.cfi_def_cfa_offset 16
.L794:
	jmp	.L794
	.cfi_endproc
.LFE133:
	.size	machineCheck_handler, .-machineCheck_handler
	.section	.rodata
.LC173:
	.string	"\nFault19"
	.text
	.align 16
	.globl	reserved_handler
	.type	reserved_handler, @function
reserved_handler:
.LFB134:
	.cfi_startproc
	subl	$24, %esp
	.cfi_def_cfa_offset 28
	pushl	$.LC173
	.cfi_def_cfa_offset 32
	call	printf
/APP
/  276 "Source/Interrupts/int_handlers.c" 1
	hlt
/  0 "" 2
/NO_APP
	call	Shell_Double_buffer
	addl	$16, %esp
	.cfi_def_cfa_offset 16
.L797:
	jmp	.L797
	.cfi_endproc
.LFE134:
	.size	reserved_handler, .-reserved_handler
	.align 16
	.globl	PIT_handler
	.type	PIT_handler, @function
PIT_handler:
.LFB135:
	.cfi_startproc
/APP
/  287 "Source/Interrupts/int_handlers.c" 1
	cli
/  0 "" 2
/  292 "Source/Interrupts/int_handlers.c" 1
	iret
/  0 "" 2
/NO_APP
	ret
	.cfi_endproc
.LFE135:
	.size	PIT_handler, .-PIT_handler
	.globl	ag
	.data
	.align 4
	.type	ag, @object
	.size	ag, 4
ag:
	.long	1
	.globl	ab
	.section	.bss
	.align 4
	.type	ab, @object
	.size	ab, 4
ab:
	.zero	4
	.text
	.align 16
	.globl	keyboardInterrupt_handler
	.type	keyboardInterrupt_handler, @function
keyboardInterrupt_handler:
.LFB136:
	.cfi_startproc
/APP
/  45 "Library/sys.h" 1
	inb $96, %al
/  0 "" 2
/NO_APP
	testb	%al, %al
	movzbl	%al, %edx
	js	.L849
	movl	scancodes, %eax
	movl	(%eax,%edx,4), %eax
	testl	%eax, %eax
	je	.L850
	subl	$24, %esp
	.cfi_def_cfa_offset 28
	pushl	%eax
	.cfi_def_cfa_offset 32
	call	keyboard_scancodes
	addl	$16, %esp
	.cfi_def_cfa_offset 16
	cmpl	$13, %eax
	je	.L851
	cmpl	$8, %eax
	je	.L852
	movl	Istream_ptr, %edx
	movb	%al, (%edx)
	movl	Istream_ptr, %ecx
	leal	1(%ecx), %edx
	movl	kb_buff, %ecx
	movl	%edx, Istream_ptr
	addl	$1, %ecx
	movl	%ecx, kb_buff
	movl	Istream_end, %ecx
	cmpl	%ecx, %edx
	je	.L853
.L825:
	subl	$12, %esp
	.cfi_def_cfa_offset 28
	movsbl	%al, %eax
	pushl	%eax
	.cfi_def_cfa_offset 32
	call	_putchar
	addl	$16, %esp
	.cfi_def_cfa_offset 16
.L800:
	addl	$12, %esp
	.cfi_def_cfa_offset 4
.L845:
	rep ret
	.align 16
.L850:
	movl	Special_key_codes(,%edx,4), %eax
	cmpl	$16385, %eax
	je	.L805
	jle	.L854
	cmpl	$16390, %eax
	je	.L809
	cmpl	$16400, %eax
	je	.L810
	cmpl	$16386, %eax
	jne	.L845
	movl	$1, _shift
	ret
	.align 16
.L849:
	movl	Special_key_codes-512(,%edx,4), %eax
	cmpl	$16386, %eax
	je	.L803
	cmpl	$16390, %eax
	jne	.L845
.L803:
	movl	$0, _shift
	ret
	.align 16
.L854:
	cmpl	$4352, %eax
	je	.L807
	cmpl	$12303, %eax
	jne	.L845
	movl	_numlock, %eax
	testl	%eax, %eax
	sete	%al
	movzbl	%al, %edx
	orl	$4, %eax
	movl	%edx, _numlock
	movl	_capslock, %edx
	testl	%edx, %edx
	movl	$0, %edx
	cmovne	%eax, %edx
	.align 16
.L817:
/APP
/  45 "Library/sys.h" 1
	inb $100, %al
/  0 "" 2
/NO_APP
	testb	$2, %al
	jne	.L817
	movl	$-19, %eax
/APP
/  37 "Library/sys.h" 1
	outb %al, $96
/  0 "" 2
	.align 16
/NO_APP
.L818:
/APP
/  45 "Library/sys.h" 1
	inb $100, %al
/  0 "" 2
/NO_APP
	testb	$2, %al
	jne	.L818
.L847:
	movl	%edx, %eax
/APP
/  37 "Library/sys.h" 1
	outb %al, $96
/  0 "" 2
/NO_APP
	ret
	.align 16
.L853:
	.cfi_def_cfa_offset 16
	movl	Input_stream, %edx
	movl	%edx, Istream_ptr
	jmp	.L825
	.align 16
.L852:
	movl	kb_buff, %eax
	testl	%eax, %eax
	je	.L800
	movl	Istream_ptr, %eax
	leal	-1(%eax), %edx
	movl	%edx, Istream_ptr
	movb	$0, -1(%eax)
	movl	kb_buff, %eax
	subl	$1, %eax
	movl	%eax, kb_buff
	addl	$12, %esp
	.cfi_remember_state
	.cfi_def_cfa_offset 4
	jmp	backspace
	.align 16
.L851:
	.cfi_restore_state
	movl	$1, enter_pressed
	jmp	.L800
	.align 16
.L807:
	.cfi_def_cfa_offset 4
	movl	$1, up_input
	ret
	.align 16
.L810:
	movl	_scrolllock, %edx
	xorl	%eax, %eax
	movl	_capslock, %ecx
	testl	%edx, %edx
	movl	_numlock, %edx
	sete	%al
	movl	%eax, _scrolllock
	movl	%edx, %eax
	andl	$4, %edx
	orl	$4, %eax
	testl	%ecx, %ecx
	cmovne	%eax, %edx
	.align 16
.L821:
/APP
/  45 "Library/sys.h" 1
	inb $100, %al
/  0 "" 2
/NO_APP
	testb	$2, %al
	jne	.L821
	movl	$-19, %eax
/APP
/  37 "Library/sys.h" 1
	outb %al, $96
/  0 "" 2
	.align 16
/NO_APP
.L822:
/APP
/  45 "Library/sys.h" 1
	inb $100, %al
/  0 "" 2
/NO_APP
	testb	$2, %al
	jne	.L822
	jmp	.L847
	.align 16
.L809:
	movl	$2, _shift
	ret
	.align 16
.L805:
	movl	_capslock, %eax
	xorl	%edx, %edx
	testl	%eax, %eax
	sete	%dl
	movl	%edx, _capslock
	movl	_numlock, %edx
	movl	%edx, %ecx
	andl	$4, %edx
	orl	$4, %ecx
	testl	%eax, %eax
	cmove	%ecx, %edx
	.align 16
.L814:
/APP
/  45 "Library/sys.h" 1
	inb $100, %al
/  0 "" 2
/NO_APP
	testb	$2, %al
	jne	.L814
	movl	$-19, %eax
/APP
/  37 "Library/sys.h" 1
	outb %al, $96
/  0 "" 2
	.align 16
/NO_APP
.L815:
/APP
/  45 "Library/sys.h" 1
	inb $100, %al
/  0 "" 2
/NO_APP
	testb	$2, %al
	jne	.L815
	jmp	.L847
	.cfi_endproc
.LFE136:
	.size	keyboardInterrupt_handler, .-keyboardInterrupt_handler
	.section	.rodata
.LC174:
	.string	"\nInterrupt 2"
	.text
	.align 16
	.globl	cascade_handler
	.type	cascade_handler, @function
cascade_handler:
.LFB137:
	.cfi_startproc
	subl	$24, %esp
	.cfi_def_cfa_offset 28
/APP
/  426 "Source/Interrupts/int_handlers.c" 1
	cli
/  0 "" 2
/NO_APP
	pushl	$.LC174
	.cfi_def_cfa_offset 32
	call	printf
	addl	$16, %esp
	.cfi_def_cfa_offset 16
.L856:
	jmp	.L856
	.cfi_endproc
.LFE137:
	.size	cascade_handler, .-cascade_handler
	.section	.rodata
.LC175:
	.string	"\nInterrupt 3"
	.text
	.align 16
	.globl	COM2_handler
	.type	COM2_handler, @function
COM2_handler:
.LFB138:
	.cfi_startproc
	subl	$24, %esp
	.cfi_def_cfa_offset 28
/APP
/  435 "Source/Interrupts/int_handlers.c" 1
	cli
/  0 "" 2
/NO_APP
	pushl	$.LC175
	.cfi_def_cfa_offset 32
	call	printf
	addl	$16, %esp
	.cfi_def_cfa_offset 16
.L859:
	jmp	.L859
	.cfi_endproc
.LFE138:
	.size	COM2_handler, .-COM2_handler
	.section	.rodata
.LC176:
	.string	"\nInterrupt 4"
	.text
	.align 16
	.globl	COM1_handler
	.type	COM1_handler, @function
COM1_handler:
.LFB139:
	.cfi_startproc
	subl	$24, %esp
	.cfi_def_cfa_offset 28
/APP
/  444 "Source/Interrupts/int_handlers.c" 1
	cli
/  0 "" 2
/NO_APP
	pushl	$.LC176
	.cfi_def_cfa_offset 32
	call	printf
	addl	$16, %esp
	.cfi_def_cfa_offset 16
.L862:
	jmp	.L862
	.cfi_endproc
.LFE139:
	.size	COM1_handler, .-COM1_handler
	.section	.rodata
.LC177:
	.string	"\nInterrupt 5"
	.text
	.align 16
	.globl	LPT2_handler
	.type	LPT2_handler, @function
LPT2_handler:
.LFB140:
	.cfi_startproc
	subl	$24, %esp
	.cfi_def_cfa_offset 28
/APP
/  453 "Source/Interrupts/int_handlers.c" 1
	cli
/  0 "" 2
/NO_APP
	pushl	$.LC177
	.cfi_def_cfa_offset 32
	call	printf
	addl	$16, %esp
	.cfi_def_cfa_offset 16
.L865:
	jmp	.L865
	.cfi_endproc
.LFE140:
	.size	LPT2_handler, .-LPT2_handler
	.section	.rodata
.LC178:
	.string	"\nInterrupt 6"
	.text
	.align 16
	.globl	floppyDisk_handler
	.type	floppyDisk_handler, @function
floppyDisk_handler:
.LFB141:
	.cfi_startproc
	subl	$24, %esp
	.cfi_def_cfa_offset 28
/APP
/  462 "Source/Interrupts/int_handlers.c" 1
	cli
/  0 "" 2
/NO_APP
	pushl	$.LC178
	.cfi_def_cfa_offset 32
	call	printf
	addl	$16, %esp
	.cfi_def_cfa_offset 16
.L868:
	jmp	.L868
	.cfi_endproc
.LFE141:
	.size	floppyDisk_handler, .-floppyDisk_handler
	.section	.rodata
.LC179:
	.string	"\nInterrupt 7"
	.text
	.align 16
	.globl	LPT1_handler
	.type	LPT1_handler, @function
LPT1_handler:
.LFB142:
	.cfi_startproc
	subl	$24, %esp
	.cfi_def_cfa_offset 28
/APP
/  471 "Source/Interrupts/int_handlers.c" 1
	cli
/  0 "" 2
/NO_APP
	pushl	$.LC179
	.cfi_def_cfa_offset 32
	call	printf
	addl	$16, %esp
	.cfi_def_cfa_offset 16
.L871:
	jmp	.L871
	.cfi_endproc
.LFE142:
	.size	LPT1_handler, .-LPT1_handler
	.section	.rodata
.LC180:
	.string	"\nInterrupt 8"
	.text
	.align 16
	.globl	RTC_handler
	.type	RTC_handler, @function
RTC_handler:
.LFB143:
	.cfi_startproc
	subl	$24, %esp
	.cfi_def_cfa_offset 28
/APP
/  480 "Source/Interrupts/int_handlers.c" 1
	cli
/  0 "" 2
/NO_APP
	pushl	$.LC180
	.cfi_def_cfa_offset 32
	call	printf
	addl	$16, %esp
	.cfi_def_cfa_offset 16
.L874:
	jmp	.L874
	.cfi_endproc
.LFE143:
	.size	RTC_handler, .-RTC_handler
	.section	.rodata
.LC181:
	.string	"\nInterrupt 9"
	.text
	.align 16
	.globl	periph1_handler
	.type	periph1_handler, @function
periph1_handler:
.LFB144:
	.cfi_startproc
	subl	$24, %esp
	.cfi_def_cfa_offset 28
/APP
/  489 "Source/Interrupts/int_handlers.c" 1
	cli
/  0 "" 2
/NO_APP
	pushl	$.LC181
	.cfi_def_cfa_offset 32
	call	printf
	addl	$16, %esp
	.cfi_def_cfa_offset 16
.L877:
	jmp	.L877
	.cfi_endproc
.LFE144:
	.size	periph1_handler, .-periph1_handler
	.section	.rodata
.LC182:
	.string	"\nInterrupt 10"
	.text
	.align 16
	.globl	periph2_handler
	.type	periph2_handler, @function
periph2_handler:
.LFB145:
	.cfi_startproc
	subl	$24, %esp
	.cfi_def_cfa_offset 28
/APP
/  498 "Source/Interrupts/int_handlers.c" 1
	cli
/  0 "" 2
/NO_APP
	pushl	$.LC182
	.cfi_def_cfa_offset 32
	call	printf
	addl	$16, %esp
	.cfi_def_cfa_offset 16
.L880:
	jmp	.L880
	.cfi_endproc
.LFE145:
	.size	periph2_handler, .-periph2_handler
	.section	.rodata
.LC183:
	.string	"\nInterrupt 11"
	.text
	.align 16
	.globl	periph3_handler
	.type	periph3_handler, @function
periph3_handler:
.LFB146:
	.cfi_startproc
	subl	$24, %esp
	.cfi_def_cfa_offset 28
/APP
/  507 "Source/Interrupts/int_handlers.c" 1
	cli
/  0 "" 2
/NO_APP
	pushl	$.LC183
	.cfi_def_cfa_offset 32
	call	printf
	addl	$16, %esp
	.cfi_def_cfa_offset 16
.L883:
	jmp	.L883
	.cfi_endproc
.LFE146:
	.size	periph3_handler, .-periph3_handler
	.align 16
	.globl	mouse_handler
	.type	mouse_handler, @function
mouse_handler:
.LFB147:
	.cfi_startproc
	movl	cycle, %eax
	cmpl	$2, %eax
	leal	mouse_bytes(%eax), %edx
	ja	.L890
	.align 16
.L893:
/APP
/  45 "Library/sys.h" 1
	inb $96, %al
/  0 "" 2
/NO_APP
	movb	%al, (%edx)
	addl	$1, %edx
	cmpl	$mouse_bytes+3, %edx
	jne	.L893
.L890:
	movzbl	mouse_bytes, %eax
	movl	$0, cycle
	testb	%al, %al
	js	.L896
	testb	$64, %al
	jne	.L885
	testb	$32, %al
	jne	.L891
	movl	mousedeltay, %edx
	orl	$-256, %edx
	movl	%edx, mousedeltay
.L891:
	testb	$16, %al
	jne	.L892
	movl	mousedeltax, %eax
	orl	$-256, %eax
	movl	%eax, mousedeltax
.L892:
	movsbl	mouse_bytes+1, %eax
	movl	%eax, mousedeltax
	movsbl	mouse_bytes+2, %eax
	movl	%eax, mousedeltay
.L885:
	rep ret
	.align 16
.L896:
	rep ret
	.cfi_endproc
.LFE147:
	.size	mouse_handler, .-mouse_handler
	.section	.rodata
.LC184:
	.string	"\nInterrupt 13"
	.text
	.align 16
	.globl	FPU_handler
	.type	FPU_handler, @function
FPU_handler:
.LFB148:
	.cfi_startproc
	subl	$24, %esp
	.cfi_def_cfa_offset 28
/APP
/  558 "Source/Interrupts/int_handlers.c" 1
	cli
/  0 "" 2
/NO_APP
	pushl	$.LC184
	.cfi_def_cfa_offset 32
	call	printf
	addl	$16, %esp
	.cfi_def_cfa_offset 16
.L898:
	jmp	.L898
	.cfi_endproc
.LFE148:
	.size	FPU_handler, .-FPU_handler
	.section	.rodata
.LC185:
	.string	"\nInterrupt 14"
	.text
	.align 16
	.globl	primaryHDD_handler
	.type	primaryHDD_handler, @function
primaryHDD_handler:
.LFB149:
	.cfi_startproc
	subl	$24, %esp
	.cfi_def_cfa_offset 28
/APP
/  567 "Source/Interrupts/int_handlers.c" 1
	cli
/  0 "" 2
/NO_APP
	pushl	$.LC185
	.cfi_def_cfa_offset 32
	call	printf
	addl	$16, %esp
	.cfi_def_cfa_offset 16
.L901:
	jmp	.L901
	.cfi_endproc
.LFE149:
	.size	primaryHDD_handler, .-primaryHDD_handler
	.section	.rodata
.LC186:
	.string	"\nInterrupt 15"
	.text
	.align 16
	.globl	secondaryHDD_handler
	.type	secondaryHDD_handler, @function
secondaryHDD_handler:
.LFB150:
	.cfi_startproc
	subl	$24, %esp
	.cfi_def_cfa_offset 28
/APP
/  576 "Source/Interrupts/int_handlers.c" 1
	cli
/  0 "" 2
/NO_APP
	pushl	$.LC186
	.cfi_def_cfa_offset 32
	call	printf
	addl	$16, %esp
	.cfi_def_cfa_offset 16
.L904:
	jmp	.L904
	.cfi_endproc
.LFE150:
	.size	secondaryHDD_handler, .-secondaryHDD_handler
	.comm	Lapic,4,4
	.comm	mpfp,4,4
	.comm	mpcth,4,4
	.comm	Processor_Entries,4,4
	.align 16
	.globl	cpuHasMSR
	.type	cpuHasMSR, @function
cpuHasMSR:
.LFB151:
	.cfi_startproc
	pushl	%ebx
	.cfi_def_cfa_offset 8
	.cfi_offset 3, -8
	movl	$1, %eax
/APP
/  19 "Source/arch/x86/cpu/cpu.c" 1
	cpuid
/  0 "" 2
/NO_APP
	movl	%edx, %eax
	shrl	$5, %eax
	andl	$1, %eax
	popl	%ebx
	.cfi_restore 3
	.cfi_def_cfa_offset 4
	ret
	.cfi_endproc
.LFE151:
	.size	cpuHasMSR, .-cpuHasMSR
	.align 16
	.globl	cpuGetMSR
	.type	cpuGetMSR, @function
cpuGetMSR:
.LFB152:
	.cfi_startproc
	movl	4(%esp), %ecx
/APP
/  25 "Source/arch/x86/cpu/cpu.c" 1
	rdmsr
/  0 "" 2
/NO_APP
	movl	8(%esp), %ecx
	movl	%eax, (%ecx)
	movl	12(%esp), %eax
	movl	%edx, (%eax)
	ret
	.cfi_endproc
.LFE152:
	.size	cpuGetMSR, .-cpuGetMSR
	.align 16
	.globl	cpuSetMSR
	.type	cpuSetMSR, @function
cpuSetMSR:
.LFB153:
	.cfi_startproc
	movl	12(%esp), %edx
	movl	8(%esp), %eax
	movl	4(%esp), %ecx
/APP
/  30 "Source/arch/x86/cpu/cpu.c" 1
	wrmsr
/  0 "" 2
/NO_APP
	ret
	.cfi_endproc
.LFE153:
	.size	cpuSetMSR, .-cpuSetMSR
	.globl	AP_stacks
	.data
	.align 4
	.type	AP_stacks, @object
	.size	AP_stacks, 4
AP_stacks:
	.long	8192
	.text
	.align 16
	.globl	BasicCPU_Init
	.type	BasicCPU_Init, @function
BasicCPU_Init:
.LFB156:
	.cfi_startproc
	subl	$24, %esp
	.cfi_def_cfa_offset 28
	movl	$17, %eax
/APP
/  37 "Library/sys.h" 1
	outb %al, $32
/  0 "" 2
/  37 "Library/sys.h" 1
	outb %al, $160
/  0 "" 2
/NO_APP
	movl	$32, %eax
/APP
/  37 "Library/sys.h" 1
	outb %al, $33
/  0 "" 2
/NO_APP
	movl	$40, %eax
/APP
/  37 "Library/sys.h" 1
	outb %al, $161
/  0 "" 2
/NO_APP
	movl	$4, %eax
/APP
/  37 "Library/sys.h" 1
	outb %al, $33
/  0 "" 2
/NO_APP
	movl	$2, %eax
/APP
/  37 "Library/sys.h" 1
	outb %al, $161
/  0 "" 2
/NO_APP
	movl	$1, %eax
/APP
/  37 "Library/sys.h" 1
	outb %al, $33
/  0 "" 2
/  37 "Library/sys.h" 1
	outb %al, $161
/  0 "" 2
/NO_APP
	xorl	%eax, %eax
/APP
/  37 "Library/sys.h" 1
	outb %al, $33
/  0 "" 2
/  37 "Library/sys.h" 1
	outb %al, $161
/  0 "" 2
/NO_APP
	movl	$-1, %eax
/APP
/  37 "Library/sys.h" 1
	outb %al, $33
/  0 "" 2
/  37 "Library/sys.h" 1
	outb %al, $161
/  0 "" 2
/NO_APP
	movl	$27, %ecx
/APP
/  25 "Source/arch/x86/cpu/cpu.c" 1
	rdmsr
/  0 "" 2
/NO_APP
	andl	$-4096, %eax
	pushl	%eax
	.cfi_def_cfa_offset 32
	movl	%eax, APIC_LOCAL_BASE
	call	BSP_init_LAPIC
	call	MPtables_parse
	call	MADTapic_parse
	movl	Lapic, %eax
	addl	$16, %esp
	.cfi_def_cfa_offset 16
	movl	32(%eax), %eax
	testl	%eax, %eax
	setne	%al
	movzbl	%al, %eax
	movl	%eax, BSP_id
/APP
/  57 "Source/arch/x86/cpu/cpu.c" 1
	sti
/  0 "" 2
/NO_APP
	movl	total_CPU_Cores, %edx
	testl	%edx, %edx
	jne	.L911
	movl	$1, total_CPU_Cores
.L911:
	addl	$12, %esp
	.cfi_def_cfa_offset 4
	jmp	BootAPs
	.cfi_endproc
.LFE156:
	.size	BasicCPU_Init, .-BasicCPU_Init
	.section	.rodata
.LC187:
	.string	"\nReatempting INIT SIPI"
	.align 4
.LC188:
	.string	"\n\t\t%gThe AP #%x has been Booted Successfully %x Error %x Vector %x %x %g"
	.text
	.align 16
	.globl	BootAPs
	.type	BootAPs, @function
BootAPs:
.LFB157:
	.cfi_startproc
	pushl	%ebx
	.cfi_def_cfa_offset 8
	.cfi_offset 3, -8
	subl	$56, %esp
	.cfi_def_cfa_offset 64
	pushl	$4096
	.cfi_def_cfa_offset 68
	pushl	$0
	.cfi_def_cfa_offset 72
	pushl	$126976
	.cfi_def_cfa_offset 76
	call	memset
	addl	$12, %esp
	.cfi_def_cfa_offset 64
	movl	$APIC_Error_vector_end, %edx
	movl	$APIC_Error_vector, %eax
	subl	%eax, %edx
	movl	%edx, %eax
	pushl	%eax
	.cfi_def_cfa_offset 68
	pushl	$APIC_Error_vector
	.cfi_def_cfa_offset 72
	pushl	$126976
	.cfi_def_cfa_offset 76
	call	memcpy
	addl	$12, %esp
	.cfi_def_cfa_offset 64
	subl	$8, %esp
	.cfi_def_cfa_offset 72
	pushl	$APIC_Error_vector_end
	.cfi_def_cfa_offset 76
	pushl	$APIC_Error_vector
	.cfi_def_cfa_offset 80
	pushl	$2
	.cfi_def_cfa_offset 84
	pushl	$1280
	.cfi_def_cfa_offset 88
	pushl	$2
	.cfi_def_cfa_offset 92
	pushl	$26233
	.cfi_def_cfa_offset 96
	call	ByteSequence_Replace
	addl	$32, %esp
	.cfi_def_cfa_offset 64
	movl	$15, %eax
	movb	$10, (%eax)
	movl	$0, 36(%esp)
	movl	$AP_startup_Code_end, %edx
	movl	$AP_startup_Code, %eax
	subl	%eax, %edx
	movl	%edx, %eax
	movl	%eax, AP_startup_Code_sz
	movl	AP_startup_Code_sz, %eax
	andl	$-4, %eax
	addl	$4, %eax
	movl	%eax, AP_startup_Code_sz
	movl	$pmode_AP_code_end, %edx
	movl	$pmode_AP_code, %eax
	subl	%eax, %edx
	movl	%edx, %eax
	movl	%eax, pmode_code_size
	movl	pmode_code_size, %eax
	andl	$-4, %eax
	addl	$4, %eax
	movl	%eax, pmode_code_size
	movl	$1280, 32(%esp)
	movl	32(%esp), %eax
	movl	$0, (%eax)
	movl	$1284, 28(%esp)
	movl	28(%esp), %eax
	movl	$0, (%eax)
	movl	$1, 36(%esp)
	movl	$4096, 24(%esp)
	movl	AP_stacks, %eax
	movl	%eax, 44(%esp)
	movl	$0, 40(%esp)
	jmp	.L914
.L918:
	movl	BSP_id, %eax
	cmpl	40(%esp), %eax
	je	.L919
	movl	44(%esp), %eax
	subl	$4096, %eax
	movl	%eax, 24(%esp)
	movl	24(%esp), %eax
	subl	$4, %esp
	.cfi_def_cfa_offset 68
	pushl	$4096
	.cfi_def_cfa_offset 72
	pushl	$0
	.cfi_def_cfa_offset 76
	pushl	%eax
	.cfi_def_cfa_offset 80
	call	memset
	addl	$16, %esp
	.cfi_def_cfa_offset 64
	movl	AP_startup_Code_sz, %edx
	movl	24(%esp), %eax
	subl	$4, %esp
	.cfi_def_cfa_offset 68
	pushl	%edx
	.cfi_def_cfa_offset 72
	pushl	$AP_startup_Code
	.cfi_def_cfa_offset 76
	pushl	%eax
	.cfi_def_cfa_offset 80
	call	memcpy
	addl	$16, %esp
	.cfi_def_cfa_offset 64
	movl	AP_startup_Code_sz, %edx
	movl	24(%esp), %eax
	addl	%edx, %eax
	movl	%eax, %ecx
	movl	24(%esp), %eax
	movl	44(%esp), %edx
	addl	$4092, %edx
	subl	$8, %esp
	.cfi_def_cfa_offset 72
	pushl	%ecx
	.cfi_def_cfa_offset 76
	pushl	%eax
	.cfi_def_cfa_offset 80
	pushl	$2
	.cfi_def_cfa_offset 84
	pushl	%edx
	.cfi_def_cfa_offset 88
	pushl	$2
	.cfi_def_cfa_offset 92
	pushl	$17028
	.cfi_def_cfa_offset 96
	call	ByteSequence_Replace
	addl	$32, %esp
	.cfi_def_cfa_offset 64
	movl	AP_startup_Code_sz, %edx
	movl	24(%esp), %eax
	addl	%eax, %edx
	movl	pmode_code_size, %eax
	addl	%edx, %eax
	addl	$16, %eax
	movl	%eax, 20(%esp)
	movl	AP_startup_Code_sz, %edx
	movl	24(%esp), %eax
	addl	%eax, %edx
	movl	pmode_code_size, %eax
	addl	%edx, %eax
	addl	$24, %eax
	subl	$8, %esp
	.cfi_def_cfa_offset 72
	pushl	28(%esp)
	.cfi_def_cfa_offset 76
	pushl	%eax
	.cfi_def_cfa_offset 80
	call	AP_gdt_Setup
	addl	$16, %esp
	.cfi_def_cfa_offset 64
	movl	AP_startup_Code_sz, %edx
	movl	24(%esp), %eax
	addl	%edx, %eax
	movl	%eax, %ecx
	movl	24(%esp), %edx
	movl	20(%esp), %eax
	subl	$8, %esp
	.cfi_def_cfa_offset 72
	pushl	%ecx
	.cfi_def_cfa_offset 76
	pushl	%edx
	.cfi_def_cfa_offset 80
	pushl	$2
	.cfi_def_cfa_offset 84
	pushl	%eax
	.cfi_def_cfa_offset 88
	pushl	$2
	.cfi_def_cfa_offset 92
	pushl	$12864
	.cfi_def_cfa_offset 96
	call	ByteSequence_Replace
	addl	$32, %esp
	.cfi_def_cfa_offset 64
	movl	AP_startup_Code_sz, %edx
	movl	24(%esp), %eax
	addl	%eax, %edx
	movl	pmode_code_size, %eax
	addl	%edx, %eax
	addl	$64, %eax
	movl	%eax, 16(%esp)
	movl	AP_startup_Code_sz, %edx
	movl	24(%esp), %eax
	addl	%eax, %edx
	movl	pmode_code_size, %eax
	addl	%edx, %eax
	addl	$72, %eax
	subl	$8, %esp
	.cfi_def_cfa_offset 72
	pushl	24(%esp)
	.cfi_def_cfa_offset 76
	pushl	%eax
	.cfi_def_cfa_offset 80
	call	AP_idt_Setup
	addl	$16, %esp
	.cfi_def_cfa_offset 64
	movl	AP_startup_Code_sz, %edx
	movl	24(%esp), %eax
	addl	%edx, %eax
	movl	%eax, %ecx
	movl	24(%esp), %edx
	movl	16(%esp), %eax
	subl	$8, %esp
	.cfi_def_cfa_offset 72
	pushl	%ecx
	.cfi_def_cfa_offset 76
	pushl	%edx
	.cfi_def_cfa_offset 80
	pushl	$2
	.cfi_def_cfa_offset 84
	pushl	%eax
	.cfi_def_cfa_offset 88
	pushl	$2
	.cfi_def_cfa_offset 92
	pushl	$12880
	.cfi_def_cfa_offset 96
	call	ByteSequence_Replace
	addl	$32, %esp
	.cfi_def_cfa_offset 64
	movl	AP_startup_Code_sz, %edx
	movl	24(%esp), %eax
	addl	%edx, %eax
	addl	$16, %eax
	movl	%eax, 12(%esp)
	movl	pmode_code_size, %edx
	movl	12(%esp), %eax
	subl	$4, %esp
	.cfi_def_cfa_offset 68
	pushl	%edx
	.cfi_def_cfa_offset 72
	pushl	$pmode_AP_code
	.cfi_def_cfa_offset 76
	pushl	%eax
	.cfi_def_cfa_offset 80
	call	memcpy
	addl	$16, %esp
	.cfi_def_cfa_offset 64
	movl	AP_startup_Code_sz, %edx
	movl	24(%esp), %eax
	addl	%edx, %eax
	addl	$8, %eax
	movl	$0, (%eax)
	movl	pmode_code_size, %edx
	movl	12(%esp), %eax
	addl	%edx, %eax
	movl	%eax, %ebx
	movl	12(%esp), %eax
	movl	AP_startup_Code_sz, %ecx
	movl	24(%esp), %edx
	addl	%ecx, %edx
	addl	$8, %edx
	subl	$8, %esp
	.cfi_def_cfa_offset 72
	pushl	%ebx
	.cfi_def_cfa_offset 76
	pushl	%eax
	.cfi_def_cfa_offset 80
	pushl	$2
	.cfi_def_cfa_offset 84
	pushl	%edx
	.cfi_def_cfa_offset 88
	pushl	$2
	.cfi_def_cfa_offset 92
	pushl	$21913
	.cfi_def_cfa_offset 96
	call	ByteSequence_Replace
	addl	$32, %esp
	.cfi_def_cfa_offset 64
	movl	pmode_code_size, %edx
	movl	12(%esp), %eax
	addl	%edx, %eax
	movl	%eax, %edx
	movl	12(%esp), %eax
	subl	$8, %esp
	.cfi_def_cfa_offset 72
	pushl	%edx
	.cfi_def_cfa_offset 76
	pushl	%eax
	.cfi_def_cfa_offset 80
	pushl	$2
	.cfi_def_cfa_offset 84
	pushl	32(%esp)
	.cfi_def_cfa_offset 88
	pushl	$2
	.cfi_def_cfa_offset 92
	pushl	$18777
	.cfi_def_cfa_offset 96
	call	ByteSequence_Replace
	addl	$32, %esp
	.cfi_def_cfa_offset 64
	movl	24(%esp), %eax
	shrl	$12, %eax
	movl	%eax, 36(%esp)
	movl	40(%esp), %eax
	sall	$24, %eax
	movl	%eax, %edx
	movl	APIC_LOCAL_BASE, %eax
	subl	$4, %esp
	.cfi_def_cfa_offset 68
	pushl	%edx
	.cfi_def_cfa_offset 72
	pushl	$784
	.cfi_def_cfa_offset 76
	pushl	%eax
	.cfi_def_cfa_offset 80
	call	localapic_write
	addl	$16, %esp
	.cfi_def_cfa_offset 64
	movl	APIC_LOCAL_BASE, %eax
	subl	$4, %esp
	.cfi_def_cfa_offset 68
	pushl	$17664
	.cfi_def_cfa_offset 72
	pushl	$768
	.cfi_def_cfa_offset 76
	pushl	%eax
	.cfi_def_cfa_offset 80
	call	localapic_write
	addl	$16, %esp
	.cfi_def_cfa_offset 64
	subl	$12, %esp
	.cfi_def_cfa_offset 76
	pushl	$1
	.cfi_def_cfa_offset 80
	call	delay1
	addl	$16, %esp
	.cfi_def_cfa_offset 64
	movl	40(%esp), %eax
	sall	$24, %eax
	movl	%eax, %edx
	movl	APIC_LOCAL_BASE, %eax
	subl	$4, %esp
	.cfi_def_cfa_offset 68
	pushl	%edx
	.cfi_def_cfa_offset 72
	pushl	$784
	.cfi_def_cfa_offset 76
	pushl	%eax
	.cfi_def_cfa_offset 80
	call	localapic_write
	addl	$16, %esp
	.cfi_def_cfa_offset 64
	movl	36(%esp), %eax
	orb	$70, %ah
	movl	%eax, %edx
	movl	APIC_LOCAL_BASE, %eax
	subl	$4, %esp
	.cfi_def_cfa_offset 68
	pushl	%edx
	.cfi_def_cfa_offset 72
	pushl	$768
	.cfi_def_cfa_offset 76
	pushl	%eax
	.cfi_def_cfa_offset 80
	call	localapic_write
	addl	$16, %esp
	.cfi_def_cfa_offset 64
	subl	$12, %esp
	.cfi_def_cfa_offset 76
	pushl	$4
	.cfi_def_cfa_offset 80
	call	delay1
	addl	$16, %esp
	.cfi_def_cfa_offset 64
	movl	32(%esp), %eax
	movl	(%eax), %eax
	addl	%eax, %eax
	cmpl	44(%esp), %eax
	jne	.L917
	subl	$12, %esp
	.cfi_def_cfa_offset 76
	pushl	$.LC187
	.cfi_def_cfa_offset 80
	call	printf
	addl	$16, %esp
	.cfi_def_cfa_offset 64
	movl	36(%esp), %eax
	orb	$70, %ah
	movl	%eax, %edx
	movl	APIC_LOCAL_BASE, %eax
	subl	$4, %esp
	.cfi_def_cfa_offset 68
	pushl	%edx
	.cfi_def_cfa_offset 72
	pushl	$768
	.cfi_def_cfa_offset 76
	pushl	%eax
	.cfi_def_cfa_offset 80
	call	localapic_write
	addl	$16, %esp
	.cfi_def_cfa_offset 64
.L917:
	movl	AP_startup_Code_sz, %edx
	movl	24(%esp), %eax
	addl	%edx, %eax
	leal	8(%eax), %ebx
	movl	$1342181376, %eax
	movl	(%eax), %edx
	movl	Lapic, %eax
	movl	768(%eax), %eax
	andl	$4096, %eax
	movl	%eax, %ecx
	movl	32(%esp), %eax
	movl	(%eax), %eax
	pushl	$0
	.cfi_def_cfa_offset 68
	pushl	%ebx
	.cfi_def_cfa_offset 72
	pushl	%edx
	.cfi_def_cfa_offset 76
	pushl	%ecx
	.cfi_def_cfa_offset 80
	pushl	%eax
	.cfi_def_cfa_offset 84
	pushl	60(%esp)
	.cfi_def_cfa_offset 88
	pushl	$10
	.cfi_def_cfa_offset 92
	pushl	$.LC188
	.cfi_def_cfa_offset 96
	call	printf
	addl	$32, %esp
	.cfi_def_cfa_offset 64
	jmp	.L916
.L919:
	nop
.L916:
	addl	$8192, 44(%esp)
	addl	$1, 40(%esp)
.L914:
	movl	total_CPU_Cores, %eax
	subl	$1, %eax
	cmpl	40(%esp), %eax
	ja	.L918
	subl	$12, %esp
	.cfi_def_cfa_offset 76
	pushl	$4
	.cfi_def_cfa_offset 80
	call	delay1
	addl	$16, %esp
	.cfi_def_cfa_offset 64
	nop
	addl	$56, %esp
	.cfi_def_cfa_offset 8
	popl	%ebx
	.cfi_restore 3
	.cfi_def_cfa_offset 4
	ret
	.cfi_endproc
.LFE157:
	.size	BootAPs, .-BootAPs
	.section	.rodata
.LC189:
	.string	"Sun"
	.text
	.align 16
	.globl	__cmos_get_short_day
	.type	__cmos_get_short_day, @function
__cmos_get_short_day:
.LFB158:
	.cfi_startproc
	movzbl	4(%esp), %eax
	leal	-2(%eax), %edx
	movl	$.LC189, %eax
	cmpb	$5, %dl
	ja	.L920
	movzbl	%dl, %edx
	movl	CSWTCH.1398(,%edx,4), %eax
.L920:
	rep ret
	.cfi_endproc
.LFE158:
	.size	__cmos_get_short_day, .-__cmos_get_short_day
	.section	.rodata
.LC190:
	.string	"Sunday"
	.text
	.align 16
	.globl	__cmos_get_day
	.type	__cmos_get_day, @function
__cmos_get_day:
.LFB159:
	.cfi_startproc
	movzbl	4(%esp), %eax
	leal	-2(%eax), %edx
	movl	$.LC190, %eax
	cmpb	$5, %dl
	ja	.L923
	movzbl	%dl, %edx
	movl	CSWTCH.1400(,%edx,4), %eax
.L923:
	rep ret
	.cfi_endproc
.LFE159:
	.size	__cmos_get_day, .-__cmos_get_day
	.section	.rodata
.LC191:
	.string	"Jan"
	.text
	.align 16
	.globl	__cmos_get_short_month
	.type	__cmos_get_short_month, @function
__cmos_get_short_month:
.LFB160:
	.cfi_startproc
	movzbl	4(%esp), %eax
	leal	-2(%eax), %edx
	movl	$.LC191, %eax
	cmpb	$10, %dl
	ja	.L926
	movzbl	%dl, %edx
	movl	CSWTCH.1402(,%edx,4), %eax
.L926:
	rep ret
	.cfi_endproc
.LFE160:
	.size	__cmos_get_short_month, .-__cmos_get_short_month
	.section	.rodata
.LC192:
	.string	"January"
	.text
	.align 16
	.globl	__cmos_get_month
	.type	__cmos_get_month, @function
__cmos_get_month:
.LFB161:
	.cfi_startproc
	movzbl	4(%esp), %eax
	leal	-2(%eax), %edx
	movl	$.LC192, %eax
	cmpb	$10, %dl
	ja	.L929
	movzbl	%dl, %edx
	movl	CSWTCH.1404(,%edx,4), %eax
.L929:
	rep ret
	.cfi_endproc
.LFE161:
	.size	__cmos_get_month, .-__cmos_get_month
	.align 16
	.globl	__cmos_do_doomsday
	.type	__cmos_do_doomsday, @function
__cmos_do_doomsday:
.LFB162:
	.cfi_startproc
	pushl	%esi
	.cfi_def_cfa_offset 8
	.cfi_offset 6, -8
	pushl	%ebx
	.cfi_def_cfa_offset 12
	.cfi_offset 3, -12
	movl	16(%esp), %ebx
	movl	12(%esp), %eax
	movl	20(%esp), %esi
	cmpb	$2, %bl
	ja	.L934
	leal	13(%ebx), %edx
	leal	-1(%esi), %ecx
.L933:
	movl	%ecx, %ebx
	movzbl	%al, %eax
	movzbl	%dl, %edx
	shrb	$2, %bl
	movzbl	%bl, %esi
	movzbl	%cl, %ebx
	leal	0(,%ebx,4), %ecx
	addl	%ebx, %eax
	addl	%esi, %eax
	movl	%ebx, %esi
	addl	%ebx, %ecx
	leal	(%esi,%ecx,8), %ecx
	shrw	$12, %cx
	subl	%ecx, %eax
	movl	%eax, %ecx
	leal	(%edx,%edx,2), %eax
	leal	-27(%edx,%eax,4), %ebx
	movl	$1717986919, %edx
	movl	%ebx, %eax
	sarl	$31, %ebx
	imull	%edx
	sarl	%edx
	subl	%ebx, %edx
	leal	(%ecx,%edx), %eax
	popl	%ebx
	.cfi_remember_state
	.cfi_restore 3
	.cfi_def_cfa_offset 8
	movzwl	%ax, %edx
	imull	$9363, %edx, %edx
	popl	%esi
	.cfi_restore 6
	.cfi_def_cfa_offset 4
	movl	%edx, %ecx
	movl	%eax, %edx
	shrl	$16, %ecx
	subl	%ecx, %edx
	shrw	%dx
	addl	%ecx, %edx
	shrw	$2, %dx
	leal	0(,%edx,8), %ecx
	subl	%edx, %ecx
	movl	%ecx, %edx
	subl	%edx, %eax
	addl	$1, %eax
	ret
	.align 16
.L934:
	.cfi_restore_state
	movl	%ebx, %edx
	movl	%esi, %ecx
	jmp	.L933
	.cfi_endproc
.LFE162:
	.size	__cmos_do_doomsday, .-__cmos_do_doomsday
	.align 16
	.globl	decode_bcd
	.type	decode_bcd, @function
decode_bcd:
.LFB163:
	.cfi_startproc
	pushl	%ebx
	.cfi_def_cfa_offset 8
	.cfi_offset 3, -8
	movl	8(%esp), %eax
	movzbl	%al, %ebx
	andl	$15, %eax
	movl	%ebx, %edx
	sarl	$3, %ebx
	sarl	%edx
	andl	$30, %ebx
	movl	%edx, %ecx
	andl	$120, %ecx
	leal	(%ecx,%ebx), %edx
	popl	%ebx
	.cfi_restore 3
	.cfi_def_cfa_offset 4
	addl	%edx, %eax
	ret
	.cfi_endproc
.LFE163:
	.size	decode_bcd, .-decode_bcd
	.comm	cmos,2,1
	.align 16
	.globl	init_cmos
	.type	init_cmos, @function
init_cmos:
.LFB164:
	.cfi_startproc
/APP
/  151 "Source/Drivers/timer/cmos.c" 1
	cli
/  0 "" 2
/NO_APP
	movl	$11, %eax
/APP
/  37 "Library/sys.h" 1
	outb %al, $112
/  0 "" 2
/  45 "Library/sys.h" 1
	inb $113, %al
/  0 "" 2
/  154 "Source/Drivers/timer/cmos.c" 1
	sti
/  0 "" 2
/NO_APP
	movl	%eax, %edx
	shrb	$2, %al
	shrb	%dl
	xorl	$1, %eax
	andl	$1, %edx
	andl	$1, %eax
	movb	%dl, cmos
	movb	%al, cmos+1
	ret
	.cfi_endproc
.LFE164:
	.size	init_cmos, .-init_cmos
	.align 16
	.globl	cmos_24hour
	.type	cmos_24hour, @function
cmos_24hour:
.LFB165:
	.cfi_startproc
	movzbl	cmos, %eax
	ret
	.cfi_endproc
.LFE165:
	.size	cmos_24hour, .-cmos_24hour
	.align 16
	.globl	cmos_bcd_encoded
	.type	cmos_bcd_encoded, @function
cmos_bcd_encoded:
.LFB166:
	.cfi_startproc
	movzbl	cmos+1, %eax
	ret
	.cfi_endproc
.LFE166:
	.size	cmos_bcd_encoded, .-cmos_bcd_encoded
	.align 16
	.globl	cmos_updating
	.type	cmos_updating, @function
cmos_updating:
.LFB167:
	.cfi_startproc
/APP
/  151 "Source/Drivers/timer/cmos.c" 1
	cli
/  0 "" 2
/NO_APP
	movl	$10, %eax
/APP
/  37 "Library/sys.h" 1
	outb %al, $112
/  0 "" 2
/  45 "Library/sys.h" 1
	inb $113, %al
/  0 "" 2
/  154 "Source/Drivers/timer/cmos.c" 1
	sti
/  0 "" 2
/NO_APP
	shrb	$7, %al
	ret
	.cfi_endproc
.LFE167:
	.size	cmos_updating, .-cmos_updating
	.align 16
	.globl	cmos_rtc_get_value
	.type	cmos_rtc_get_value, @function
cmos_rtc_get_value:
.LFB169:
	.cfi_startproc
	pushl	%ebx
	.cfi_def_cfa_offset 8
	.cfi_offset 3, -8
	movl	8(%esp), %ecx
	movl	12(%esp), %ebx
/APP
/  151 "Source/Drivers/timer/cmos.c" 1
	cli
/  0 "" 2
/NO_APP
	movl	%ecx, %eax
/APP
/  37 "Library/sys.h" 1
	outb %al, $112
/  0 "" 2
/  45 "Library/sys.h" 1
	inb $113, %al
/  0 "" 2
/NO_APP
	movl	%eax, %edx
/APP
/  154 "Source/Drivers/timer/cmos.c" 1
	sti
/  0 "" 2
/NO_APP
	cmpb	$0, cmos+1
	je	.L942
	testb	%bl, %bl
	je	.L942
	cmpl	$50, %ecx
	ja	.L942
	jmp	*.L945(,%ecx,4)
	.section	.rodata
	.align 4
	.align 4
.L945:
	.long	.L944
	.long	.L942
	.long	.L944
	.long	.L942
	.long	.L944
	.long	.L942
	.long	.L944
	.long	.L944
	.long	.L944
	.long	.L944
	.long	.L942
	.long	.L942
	.long	.L942
	.long	.L942
	.long	.L942
	.long	.L942
	.long	.L942
	.long	.L942
	.long	.L942
	.long	.L942
	.long	.L942
	.long	.L942
	.long	.L942
	.long	.L942
	.long	.L942
	.long	.L942
	.long	.L942
	.long	.L942
	.long	.L942
	.long	.L942
	.long	.L942
	.long	.L942
	.long	.L942
	.long	.L942
	.long	.L942
	.long	.L942
	.long	.L942
	.long	.L942
	.long	.L942
	.long	.L942
	.long	.L942
	.long	.L942
	.long	.L942
	.long	.L942
	.long	.L942
	.long	.L942
	.long	.L942
	.long	.L942
	.long	.L942
	.long	.L942
	.long	.L944
	.text
	.align 16
.L944:
	movzbl	%al, %edx
	andl	$15, %eax
	movl	%edx, %ecx
	sarl	$3, %edx
	sarl	%ecx
	andl	$30, %edx
	movl	%ecx, %ebx
	andl	$120, %ebx
	leal	(%ebx,%edx), %ecx
	leal	(%ecx,%eax), %edx
.L942:
	movl	%edx, %eax
	popl	%ebx
	.cfi_restore 3
	.cfi_def_cfa_offset 4
	ret
	.cfi_endproc
.LFE169:
	.size	cmos_rtc_get_value, .-cmos_rtc_get_value
	.align 16
	.globl	pci_vendor_lookup
	.type	pci_vendor_lookup, @function
pci_vendor_lookup:
.LFB170:
	.cfi_startproc
	movl	$.LC48, %eax
	ret
	.cfi_endproc
.LFE170:
	.size	pci_vendor_lookup, .-pci_vendor_lookup
	.align 16
	.globl	pci_device_lookup
	.type	pci_device_lookup, @function
pci_device_lookup:
.LFB171:
	.cfi_startproc
	movl	$.LC48, %eax
	ret
	.cfi_endproc
.LFE171:
	.size	pci_device_lookup, .-pci_device_lookup
	.align 16
	.globl	pciConfigReadWord
	.type	pciConfigReadWord, @function
pciConfigReadWord:
.LFB172:
	.cfi_startproc
	movl	16(%esp), %ecx
	movzwl	12(%esp), %edx
	movl	%ecx, %eax
	andl	$252, %eax
	sall	$8, %edx
	orl	$-2147483648, %eax
	orl	%edx, %eax
	movzwl	8(%esp), %edx
	sall	$11, %edx
	orl	%edx, %eax
	movzwl	4(%esp), %edx
	sall	$16, %edx
	orl	%edx, %eax
	movl	$3320, %edx
/APP
/  86 "Library/sys.h" 1
	outl %eax, %dx
/  0 "" 2
/NO_APP
	movl	$3324, %edx
/APP
/  94 "Library/sys.h" 1
	inl %dx, %eax
/  0 "" 2
/NO_APP
	andl	$2, %ecx
	movzwl	%cx, %ecx
	sall	$3, %ecx
	shrl	%cl, %eax
	ret
	.cfi_endproc
.LFE172:
	.size	pciConfigReadWord, .-pciConfigReadWord
	.align 16
	.globl	PciRead32
	.type	PciRead32, @function
PciRead32:
.LFB173:
	.cfi_startproc
	movl	16(%esp), %eax
	movl	12(%esp), %edx
	andl	$252, %eax
	sall	$8, %edx
	orl	$-2147483648, %eax
	orl	%edx, %eax
	movl	8(%esp), %edx
	sall	$11, %edx
	orl	%edx, %eax
	movl	4(%esp), %edx
	sall	$16, %edx
	orl	%edx, %eax
	movl	$3320, %edx
/APP
/  86 "Library/sys.h" 1
	outl %eax, %dx
/  0 "" 2
/NO_APP
	movl	$3324, %edx
/APP
/  94 "Library/sys.h" 1
	inl %dx, %eax
/  0 "" 2
/NO_APP
	ret
	.cfi_endproc
.LFE173:
	.size	PciRead32, .-PciRead32
	.align 16
	.globl	PciRead16
	.type	PciRead16, @function
PciRead16:
.LFB174:
	.cfi_startproc
	movl	16(%esp), %ecx
	movl	12(%esp), %edx
	movl	%ecx, %eax
	sall	$8, %edx
	andl	$252, %eax
	orl	$-2147483648, %eax
	orl	%edx, %eax
	movl	8(%esp), %edx
	sall	$11, %edx
	orl	%edx, %eax
	movl	4(%esp), %edx
	sall	$16, %edx
	orl	%edx, %eax
	movl	$3320, %edx
/APP
/  86 "Library/sys.h" 1
	outl %eax, %dx
/  0 "" 2
/NO_APP
	andl	$2, %ecx
	leal	3324(%ecx), %edx
/APP
/  61 "Library/sys.h" 1
	inw %dx, %ax
/  0 "" 2
/NO_APP
	ret
	.cfi_endproc
.LFE174:
	.size	PciRead16, .-PciRead16
	.align 16
	.globl	PciRead8
	.type	PciRead8, @function
PciRead8:
.LFB175:
	.cfi_startproc
	movl	16(%esp), %ecx
	movl	12(%esp), %edx
	movl	%ecx, %eax
	sall	$8, %edx
	andl	$252, %eax
	orl	$-2147483648, %eax
	orl	%edx, %eax
	movl	8(%esp), %edx
	sall	$11, %edx
	orl	%edx, %eax
	movl	4(%esp), %edx
	sall	$16, %edx
	orl	%edx, %eax
	movl	$3320, %edx
/APP
/  86 "Library/sys.h" 1
	outl %eax, %dx
/  0 "" 2
/NO_APP
	andl	$3, %ecx
	leal	3324(%ecx), %edx
/APP
/  45 "Library/sys.h" 1
	inb %dx, %al
/  0 "" 2
/NO_APP
	ret
	.cfi_endproc
.LFE175:
	.size	PciRead8, .-PciRead8
	.align 16
	.globl	PciWrite32
	.type	PciWrite32, @function
PciWrite32:
.LFB176:
	.cfi_startproc
	movl	16(%esp), %eax
	movl	12(%esp), %edx
	andl	$252, %eax
	sall	$8, %edx
	orl	$-2147483648, %eax
	orl	%edx, %eax
	movl	8(%esp), %edx
	sall	$11, %edx
	orl	%edx, %eax
	movl	4(%esp), %edx
	sall	$16, %edx
	orl	%edx, %eax
	movl	$3320, %edx
/APP
/  86 "Library/sys.h" 1
	outl %eax, %dx
/  0 "" 2
/NO_APP
	movl	$3324, %edx
	movl	20(%esp), %eax
/APP
/  86 "Library/sys.h" 1
	outl %eax, %dx
/  0 "" 2
/NO_APP
	ret
	.cfi_endproc
.LFE176:
	.size	PciWrite32, .-PciWrite32
	.align 16
	.globl	PciWrite16
	.type	PciWrite16, @function
PciWrite16:
.LFB177:
	.cfi_startproc
	movl	16(%esp), %ecx
	movl	12(%esp), %edx
	movl	%ecx, %eax
	sall	$8, %edx
	andl	$252, %eax
	orl	$-2147483648, %eax
	orl	%edx, %eax
	movl	8(%esp), %edx
	sall	$11, %edx
	orl	%edx, %eax
	movl	4(%esp), %edx
	sall	$16, %edx
	orl	%edx, %eax
	movl	$3320, %edx
/APP
/  86 "Library/sys.h" 1
	outl %eax, %dx
/  0 "" 2
/NO_APP
	andl	$2, %ecx
	movl	20(%esp), %eax
	leal	3324(%ecx), %edx
/APP
/  53 "Library/sys.h" 1
	outw %ax, %dx
/  0 "" 2
/NO_APP
	ret
	.cfi_endproc
.LFE177:
	.size	PciWrite16, .-PciWrite16
	.align 16
	.globl	PciWrite8
	.type	PciWrite8, @function
PciWrite8:
.LFB178:
	.cfi_startproc
	movl	16(%esp), %ecx
	movl	12(%esp), %edx
	movl	%ecx, %eax
	sall	$8, %edx
	andl	$252, %eax
	orl	$-2147483648, %eax
	orl	%edx, %eax
	movl	8(%esp), %edx
	sall	$11, %edx
	orl	%edx, %eax
	movl	4(%esp), %edx
	sall	$16, %edx
	orl	%edx, %eax
	movl	$3320, %edx
/APP
/  86 "Library/sys.h" 1
	outl %eax, %dx
/  0 "" 2
/NO_APP
	andl	$3, %ecx
	movl	20(%esp), %eax
	leal	3324(%ecx), %edx
/APP
/  37 "Library/sys.h" 1
	outb %al, %dx
/  0 "" 2
/NO_APP
	ret
	.cfi_endproc
.LFE178:
	.size	PciWrite8, .-PciWrite8
	.align 16
	.globl	PciDeviceRead
	.type	PciDeviceRead, @function
PciDeviceRead:
.LFB179:
	.cfi_startproc
	pushl	%ebx
	.cfi_def_cfa_offset 8
	.cfi_offset 3, -8
	movl	16(%esp), %eax
	movl	8(%esp), %edx
	movl	12(%esp), %ecx
	cmpl	$1, %eax
	je	.L961
	cmpl	$2, %eax
	movl	8(%edx), %eax
	je	.L962
	andl	$252, %ecx
	sall	$11, %eax
	orl	$-2147483648, %ecx
	orl	%ecx, %eax
	movl	12(%edx), %ecx
	sall	$8, %ecx
	orl	%ecx, %eax
	movl	4(%edx), %ecx
	movl	$3320, %edx
	sall	$16, %ecx
	orl	%ecx, %eax
/APP
/  86 "Library/sys.h" 1
	outl %eax, %dx
/  0 "" 2
/NO_APP
	movl	$3324, %edx
/APP
/  94 "Library/sys.h" 1
	inl %dx, %eax
/  0 "" 2
/NO_APP
	popl	%ebx
	.cfi_remember_state
	.cfi_restore 3
	.cfi_def_cfa_offset 4
	ret
	.align 16
.L961:
	.cfi_restore_state
	movl	8(%edx), %eax
	movl	%ecx, %ebx
	andl	$252, %ebx
	orl	$-2147483648, %ebx
	sall	$11, %eax
	orl	%ebx, %eax
	movl	12(%edx), %ebx
	movl	4(%edx), %edx
	sall	$8, %ebx
	sall	$16, %edx
	orl	%ebx, %eax
	orl	%edx, %eax
	movl	$3320, %edx
/APP
/  86 "Library/sys.h" 1
	outl %eax, %dx
/  0 "" 2
/NO_APP
	andl	$3, %ecx
	leal	3324(%ecx), %edx
/APP
/  45 "Library/sys.h" 1
	inb %dx, %al
/  0 "" 2
/NO_APP
	movzbl	%al, %eax
	popl	%ebx
	.cfi_remember_state
	.cfi_restore 3
	.cfi_def_cfa_offset 4
	ret
	.align 16
.L962:
	.cfi_restore_state
	movl	%ecx, %ebx
	sall	$11, %eax
	andl	$252, %ebx
	orl	$-2147483648, %ebx
	orl	%ebx, %eax
	movl	12(%edx), %ebx
	movl	4(%edx), %edx
	sall	$8, %ebx
	sall	$16, %edx
	orl	%ebx, %eax
	orl	%edx, %eax
	movl	$3320, %edx
/APP
/  86 "Library/sys.h" 1
	outl %eax, %dx
/  0 "" 2
/NO_APP
	andl	$2, %ecx
	leal	3324(%ecx), %edx
/APP
/  61 "Library/sys.h" 1
	inw %dx, %ax
/  0 "" 2
/NO_APP
	movzwl	%ax, %eax
	popl	%ebx
	.cfi_restore 3
	.cfi_def_cfa_offset 4
	ret
	.cfi_endproc
.LFE179:
	.size	PciDeviceRead, .-PciDeviceRead
	.align 16
	.globl	PciDeviceWrite
	.type	PciDeviceWrite, @function
PciDeviceWrite:
.LFB180:
	.cfi_startproc
	pushl	%ebx
	.cfi_def_cfa_offset 8
	.cfi_offset 3, -8
	movl	20(%esp), %eax
	movl	8(%esp), %edx
	movl	12(%esp), %ecx
	cmpl	$1, %eax
	je	.L968
	cmpl	$2, %eax
	movl	8(%edx), %eax
	je	.L969
	andl	$252, %ecx
	sall	$11, %eax
	orl	$-2147483648, %ecx
	orl	%ecx, %eax
	movl	12(%edx), %ecx
	movl	4(%edx), %edx
	sall	$8, %ecx
	sall	$16, %edx
	orl	%ecx, %eax
	orl	%edx, %eax
	movl	$3320, %edx
/APP
/  86 "Library/sys.h" 1
	outl %eax, %dx
/  0 "" 2
/NO_APP
	movl	$3324, %edx
	movl	16(%esp), %eax
/APP
/  86 "Library/sys.h" 1
	outl %eax, %dx
/  0 "" 2
/NO_APP
	popl	%ebx
	.cfi_remember_state
	.cfi_restore 3
	.cfi_def_cfa_offset 4
	ret
	.align 16
.L968:
	.cfi_restore_state
	movl	8(%edx), %eax
	movl	%ecx, %ebx
	andl	$252, %ebx
	orl	$-2147483648, %ebx
	sall	$11, %eax
	orl	%ebx, %eax
	movl	12(%edx), %ebx
	movl	4(%edx), %edx
	sall	$8, %ebx
	sall	$16, %edx
	orl	%ebx, %eax
	orl	%edx, %eax
	movl	$3320, %edx
/APP
/  86 "Library/sys.h" 1
	outl %eax, %dx
/  0 "" 2
/NO_APP
	andl	$3, %ecx
	movzbl	16(%esp), %eax
	leal	3324(%ecx), %edx
/APP
/  37 "Library/sys.h" 1
	outb %al, %dx
/  0 "" 2
/NO_APP
	popl	%ebx
	.cfi_remember_state
	.cfi_restore 3
	.cfi_def_cfa_offset 4
	ret
	.align 16
.L969:
	.cfi_restore_state
	movl	%ecx, %ebx
	sall	$11, %eax
	andl	$252, %ebx
	orl	$-2147483648, %ebx
	orl	%ebx, %eax
	movl	12(%edx), %ebx
	movl	4(%edx), %edx
	sall	$8, %ebx
	sall	$16, %edx
	orl	%ebx, %eax
	orl	%edx, %eax
	movl	$3320, %edx
/APP
/  86 "Library/sys.h" 1
	outl %eax, %dx
/  0 "" 2
/NO_APP
	andl	$2, %ecx
	movzwl	16(%esp), %eax
	leal	3324(%ecx), %edx
/APP
/  53 "Library/sys.h" 1
	outw %ax, %dx
/  0 "" 2
/NO_APP
	popl	%ebx
	.cfi_restore 3
	.cfi_def_cfa_offset 4
	ret
	.cfi_endproc
.LFE180:
	.size	PciDeviceWrite, .-PciDeviceWrite
	.comm	tempPCS,4,4
	.align 16
	.globl	checkDevice
	.type	checkDevice, @function
checkDevice:
.LFB181:
	.cfi_startproc
	pushl	%ebp
	.cfi_def_cfa_offset 8
	.cfi_offset 5, -8
	pushl	%edi
	.cfi_def_cfa_offset 12
	.cfi_offset 7, -12
	pushl	%esi
	.cfi_def_cfa_offset 16
	.cfi_offset 6, -16
	pushl	%ebx
	.cfi_def_cfa_offset 20
	.cfi_offset 3, -20
	subl	$28, %esp
	.cfi_def_cfa_offset 48
	movl	tempPCS, %eax
	movl	52(%esp), %ecx
	movl	56(%esp), %ebx
	leal	64(%eax), %edx
	.align 16
.L971:
	addl	$1, %eax
	movb	$0, -1(%eax)
	cmpl	%eax, %edx
	jne	.L971
	movl	tempPCS, %eax
	movzbl	%cl, %edi
	movl	$3320, %ebp
	movl	%edi, 12(%esp)
	xorl	%ecx, %ecx
	movl	%eax, %esi
	movl	%eax, 4(%esp)
	movzbl	%bl, %eax
	movl	%edi, %ebx
	movl	%eax, 8(%esp)
	sall	$11, %eax
	sall	$16, %ebx
	movl	$3324, %edi
	orl	$-2147483648, %ebx
	orl	%eax, %ebx
.L972:
	movl	%ecx, %eax
	movl	%ebp, %edx
	andl	$252, %eax
	orl	%ebx, %eax
/APP
/  86 "Library/sys.h" 1
	outl %eax, %dx
/  0 "" 2
/NO_APP
	movl	%edi, %edx
/APP
/  94 "Library/sys.h" 1
	inl %dx, %eax
/  0 "" 2
/NO_APP
	movl	%eax, (%esi)
	leal	4(%ecx), %eax
	movl	%ebp, %edx
	andl	$252, %eax
	orl	%ebx, %eax
/APP
/  86 "Library/sys.h" 1
	outl %eax, %dx
/  0 "" 2
/NO_APP
	movl	%edi, %edx
/APP
/  94 "Library/sys.h" 1
	inl %dx, %eax
/  0 "" 2
/NO_APP
	movl	%eax, 4(%esi)
	leal	8(%ecx), %eax
	movl	%ebp, %edx
	andl	$252, %eax
	orl	%ebx, %eax
/APP
/  86 "Library/sys.h" 1
	outl %eax, %dx
/  0 "" 2
/NO_APP
	movl	%edi, %edx
/APP
/  94 "Library/sys.h" 1
	inl %dx, %eax
/  0 "" 2
/NO_APP
	movl	%eax, 8(%esi)
	leal	12(%ecx), %eax
	movl	%ebp, %edx
	andl	$252, %eax
	orl	%ebx, %eax
/APP
/  86 "Library/sys.h" 1
	outl %eax, %dx
/  0 "" 2
/NO_APP
	movl	%edi, %edx
/APP
/  94 "Library/sys.h" 1
	inl %dx, %eax
/  0 "" 2
/NO_APP
	addl	$16, %ecx
	movl	%eax, 12(%esi)
	addl	$16, %esi
	cmpl	$64, %ecx
	jne	.L972
	movl	4(%esp), %eax
	cmpw	$-1, (%eax)
	je	.L980
	subl	$12, %esp
	.cfi_def_cfa_offset 60
	movl	$3320, %ebp
	movl	$3324, %edi
	pushl	$64
	.cfi_def_cfa_offset 64
	call	*kmalloc
	xorl	%ecx, %ecx
	movl	%eax, 20(%esp)
	movl	%eax, %esi
	addl	$16, %esp
	.cfi_def_cfa_offset 48
.L975:
	movl	%ecx, %eax
	movl	%ebp, %edx
	andl	$252, %eax
	orl	%ebx, %eax
/APP
/  86 "Library/sys.h" 1
	outl %eax, %dx
/  0 "" 2
/NO_APP
	movl	%edi, %edx
/APP
/  94 "Library/sys.h" 1
	inl %dx, %eax
/  0 "" 2
/NO_APP
	movl	%eax, (%esi)
	leal	4(%ecx), %eax
	movl	%ebp, %edx
	andl	$252, %eax
	orl	%ebx, %eax
/APP
/  86 "Library/sys.h" 1
	outl %eax, %dx
/  0 "" 2
/NO_APP
	movl	%edi, %edx
/APP
/  94 "Library/sys.h" 1
	inl %dx, %eax
/  0 "" 2
/NO_APP
	movl	%eax, 4(%esi)
	leal	8(%ecx), %eax
	movl	%ebp, %edx
	andl	$252, %eax
	orl	%ebx, %eax
/APP
/  86 "Library/sys.h" 1
	outl %eax, %dx
/  0 "" 2
/NO_APP
	movl	%edi, %edx
/APP
/  94 "Library/sys.h" 1
	inl %dx, %eax
/  0 "" 2
/NO_APP
	movl	%eax, 8(%esi)
	leal	12(%ecx), %eax
	movl	%ebp, %edx
	andl	$252, %eax
	orl	%ebx, %eax
/APP
/  86 "Library/sys.h" 1
	outl %eax, %dx
/  0 "" 2
/NO_APP
	movl	%edi, %edx
/APP
/  94 "Library/sys.h" 1
	inl %dx, %eax
/  0 "" 2
/NO_APP
	addl	$16, %ecx
	movl	%eax, 12(%esi)
	addl	$16, %esi
	cmpl	$64, %ecx
	jne	.L975
	movl	48(%esp), %eax
	movl	12(%esp), %edi
	movl	%edi, 4(%eax)
	movl	8(%esp), %edi
	movl	$0, (%eax)
	movl	$0, 12(%eax)
	movl	$0, 20(%eax)
	movl	$0, 24(%eax)
	movl	%edi, 8(%eax)
	movl	4(%esp), %edi
	movl	%edi, 16(%eax)
	movl	48(%esp), %eax
	addl	$28, %esp
	.cfi_remember_state
	.cfi_def_cfa_offset 20
	popl	%ebx
	.cfi_restore 3
	.cfi_def_cfa_offset 16
	popl	%esi
	.cfi_restore 6
	.cfi_def_cfa_offset 12
	popl	%edi
	.cfi_restore 7
	.cfi_def_cfa_offset 8
	popl	%ebp
	.cfi_restore 5
	.cfi_def_cfa_offset 4
	ret	$4
.L980:
	.cfi_restore_state
	movl	48(%esp), %eax
	movl	$-1, (%eax)
	movl	$-1, 4(%eax)
	movl	$-1, 8(%eax)
	movl	$-1, 12(%eax)
	movl	$0, 16(%eax)
	movl	$0, 20(%eax)
	movl	$0, 24(%eax)
	movl	48(%esp), %eax
	addl	$28, %esp
	.cfi_def_cfa_offset 20
	popl	%ebx
	.cfi_restore 3
	.cfi_def_cfa_offset 16
	popl	%esi
	.cfi_restore 6
	.cfi_def_cfa_offset 12
	popl	%edi
	.cfi_restore 7
	.cfi_def_cfa_offset 8
	popl	%ebp
	.cfi_restore 5
	.cfi_def_cfa_offset 4
	ret	$4
	.cfi_endproc
.LFE181:
	.size	checkDevice, .-checkDevice
	.section	.rodata
	.align 4
.LC193:
	.string	"\n\tSecondary DEVICE: %s CLASS: %x SUBCLASS: %x"
	.text
	.align 16
	.globl	checkSecBus
	.type	checkSecBus, @function
checkSecBus:
.LFB182:
	.cfi_startproc
	pushl	%ebp
	.cfi_def_cfa_offset 8
	.cfi_offset 5, -8
	pushl	%edi
	.cfi_def_cfa_offset 12
	.cfi_offset 7, -12
	movl	$3320, %ebp
	pushl	%esi
	.cfi_def_cfa_offset 16
	.cfi_offset 6, -16
	pushl	%ebx
	.cfi_def_cfa_offset 20
	.cfi_offset 3, -20
	movl	$3324, %edi
	subl	$40, %esp
	.cfi_def_cfa_offset 60
	pushl	$60
	.cfi_def_cfa_offset 64
	call	*kmalloc
	movl	68(%esp), %esi
	movl	%eax, 20(%esp)
	movl	%eax, %ebx
	movl	64(%esp), %eax
	xorl	%ecx, %ecx
	addl	$16, %esp
	.cfi_def_cfa_offset 48
	sall	$11, %esi
	orl	$-2147483648, %esi
	sall	$16, %eax
	orl	%eax, %esi
.L982:
	movl	%ecx, %eax
	movl	%ebp, %edx
	andl	$252, %eax
	orl	%esi, %eax
/APP
/  86 "Library/sys.h" 1
	outl %eax, %dx
/  0 "" 2
/NO_APP
	movl	%edi, %edx
/APP
/  94 "Library/sys.h" 1
	inl %dx, %eax
/  0 "" 2
/NO_APP
	movl	%eax, (%ebx)
	leal	4(%ecx), %eax
	movl	%ebp, %edx
	andl	$252, %eax
	orl	%esi, %eax
/APP
/  86 "Library/sys.h" 1
	outl %eax, %dx
/  0 "" 2
/NO_APP
	movl	%edi, %edx
/APP
/  94 "Library/sys.h" 1
	inl %dx, %eax
/  0 "" 2
/NO_APP
	movl	%eax, 4(%ebx)
	leal	8(%ecx), %eax
	movl	%ebp, %edx
	andl	$252, %eax
	orl	%esi, %eax
/APP
/  86 "Library/sys.h" 1
	outl %eax, %dx
/  0 "" 2
/NO_APP
	movl	%edi, %edx
/APP
/  94 "Library/sys.h" 1
	inl %dx, %eax
/  0 "" 2
/NO_APP
	movl	%eax, 8(%ebx)
	leal	12(%ecx), %eax
	movl	%ebp, %edx
	andl	$252, %eax
	orl	%esi, %eax
/APP
/  86 "Library/sys.h" 1
	outl %eax, %dx
/  0 "" 2
/NO_APP
	movl	%edi, %edx
/APP
/  94 "Library/sys.h" 1
	inl %dx, %eax
/  0 "" 2
/NO_APP
	addl	$16, %ecx
	movl	%eax, 12(%ebx)
	addl	$16, %ebx
	cmpl	$64, %ecx
	jne	.L982
	movl	4(%esp), %eax
	movl	$3320, %edi
	movl	$0, 4(%esp)
	movl	$3324, %ebp
	movzbl	25(%eax), %eax
	sall	$16, %eax
	movl	%eax, 12(%esp)
	.align 16
.L986:
	subl	$12, %esp
	.cfi_def_cfa_offset 60
	pushl	$64
	.cfi_def_cfa_offset 64
	call	*kmalloc
	movl	20(%esp), %ecx
	movl	%eax, 24(%esp)
	movl	%eax, %ebx
	movl	%ecx, %esi
	sall	$3, %esi
	orl	28(%esp), %esi
	addl	$16, %esp
	.cfi_def_cfa_offset 48
	orl	$-2147483648, %esi
	orl	%ecx, %esi
	xorl	%ecx, %ecx
.L983:
	movl	%ecx, %eax
	movl	%edi, %edx
	andl	$252, %eax
	orl	%esi, %eax
/APP
/  86 "Library/sys.h" 1
	outl %eax, %dx
/  0 "" 2
/NO_APP
	movl	%ebp, %edx
/APP
/  94 "Library/sys.h" 1
	inl %dx, %eax
/  0 "" 2
/NO_APP
	movl	%eax, (%ebx)
	leal	4(%ecx), %eax
	movl	%edi, %edx
	andl	$252, %eax
	orl	%esi, %eax
/APP
/  86 "Library/sys.h" 1
	outl %eax, %dx
/  0 "" 2
/NO_APP
	movl	%ebp, %edx
/APP
/  94 "Library/sys.h" 1
	inl %dx, %eax
/  0 "" 2
/NO_APP
	movl	%eax, 4(%ebx)
	leal	8(%ecx), %eax
	movl	%edi, %edx
	andl	$252, %eax
	orl	%esi, %eax
/APP
/  86 "Library/sys.h" 1
	outl %eax, %dx
/  0 "" 2
/NO_APP
	movl	%ebp, %edx
/APP
/  94 "Library/sys.h" 1
	inl %dx, %eax
/  0 "" 2
/NO_APP
	movl	%eax, 8(%ebx)
	leal	12(%ecx), %eax
	movl	%edi, %edx
	andl	$252, %eax
	orl	%esi, %eax
/APP
/  86 "Library/sys.h" 1
	outl %eax, %dx
/  0 "" 2
/NO_APP
	movl	%ebp, %edx
/APP
/  94 "Library/sys.h" 1
	inl %dx, %eax
/  0 "" 2
/NO_APP
	addl	$16, %ecx
	movl	%eax, 12(%ebx)
	addl	$16, %ebx
	cmpl	$64, %ecx
	jne	.L983
	movl	8(%esp), %eax
	cmpw	$-1, (%eax)
	je	.L991
	movl	8(%esp), %ebx
	movzbl	10(%ebx), %eax
	pushl	%eax
	.cfi_def_cfa_offset 52
	movzbl	11(%ebx), %eax
	pushl	%eax
	.cfi_def_cfa_offset 56
	pushl	$.LC48
	.cfi_def_cfa_offset 60
	pushl	$.LC193
	.cfi_def_cfa_offset 64
	call	printf
	addl	$16, %esp
	.cfi_def_cfa_offset 48
.L985:
	addl	$256, 4(%esp)
	addl	$65536, 12(%esp)
	movl	4(%esp), %eax
	cmpl	$2048, %eax
	jne	.L986
	addl	$28, %esp
	.cfi_remember_state
	.cfi_def_cfa_offset 20
	xorl	%eax, %eax
	popl	%ebx
	.cfi_restore 3
	.cfi_def_cfa_offset 16
	popl	%esi
	.cfi_restore 6
	.cfi_def_cfa_offset 12
	popl	%edi
	.cfi_restore 7
	.cfi_def_cfa_offset 8
	popl	%ebp
	.cfi_restore 5
	.cfi_def_cfa_offset 4
	ret
	.align 16
.L991:
	.cfi_restore_state
	subl	$12, %esp
	.cfi_def_cfa_offset 60
	pushl	20(%esp)
	.cfi_def_cfa_offset 64
	call	*kfree
	addl	$16, %esp
	.cfi_def_cfa_offset 48
	jmp	.L985
	.cfi_endproc
.LFE182:
	.size	checkSecBus, .-checkSecBus
	.section	.rodata
.LC194:
	.string	"\n\n  Secondary Bus number "
.LC195:
	.string	"\n\n  BUS number "
.LC196:
	.string	"\n"
.LC197:
	.string	"\n\tDEVICE: "
.LC198:
	.string	" CLASS: "
.LC199:
	.string	" subCLASS: "
.LC200:
	.string	"\n\n"
	.text
	.align 16
	.globl	checkAllBuses
	.type	checkAllBuses, @function
checkAllBuses:
.LFB183:
	.cfi_startproc
	pushl	%ebp
	.cfi_def_cfa_offset 8
	.cfi_offset 5, -8
	pushl	%edi
	.cfi_def_cfa_offset 12
	.cfi_offset 7, -12
	pushl	%esi
	.cfi_def_cfa_offset 16
	.cfi_offset 6, -16
	pushl	%ebx
	.cfi_def_cfa_offset 20
	.cfi_offset 3, -20
	subl	$72, %esp
	.cfi_def_cfa_offset 92
	pushl	$64
	.cfi_def_cfa_offset 96
	call	*kmalloc
	addl	$16, %esp
	.cfi_def_cfa_offset 80
	movl	%eax, tempPCS
	movl	$0, 12(%esp)
	movl	$0, (%esp)
	.align 16
.L993:
	movl	12(%esp), %eax
	xorl	%ebp, %ebp
	movb	$0, 10(%esp)
	leal	devices(%eax), %ebx
	imull	$896, (%esp), %eax
	movl	%eax, 4(%esp)
	jmp	.L998
	.align 16
.L994:
	cmpl	$-1, 4(%ebx)
	je	.L995
	movl	16(%ebx), %edx
	cmpb	$-1, 11(%edx)
	je	.L995
	movzbl	11(%eax), %esi
	movzbl	10(%eax), %edx
	movl	%esi, %ecx
	movb	%dl, 11(%esp)
	cmpb	$1, %cl
	jne	.L996
	cmpb	$6, %dl
	jne	.L996
	imull	$28, TotalAHCIDevices, %ecx
	movl	(%ebx), %edi
	leal	AHCI_Devices(%ecx), %edx
	movl	%edi, AHCI_Devices(%ecx)
	movl	4(%ebx), %ecx
	movl	%eax, 16(%edx)
	movl	20(%ebx), %eax
	movl	%ecx, 4(%edx)
	movl	8(%ebx), %ecx
	movl	%eax, 20(%edx)
	movl	24(%ebx), %eax
	movl	%ecx, 8(%edx)
	movl	12(%ebx), %ecx
	movl	%eax, 24(%edx)
	movl	TotalAHCIDevices, %eax
	movl	%ecx, 12(%edx)
	addl	$1, %eax
	movl	%eax, TotalAHCIDevices
.L996:
	cmpb	$0, 10(%esp)
	je	.L1008
.L997:
	subl	$12, %esp
	.cfi_def_cfa_offset 92
	pushl	$.LC197
	.cfi_def_cfa_offset 96
	call	printf
	movl	$.LC48, (%esp)
	call	printf
	movl	$.LC198, (%esp)
	call	printf
	movl	%esi, %eax
	movzbl	%al, %esi
	movl	%esi, (%esp)
	call	console_write_dec
	movl	$.LC199, (%esp)
	call	printf
	movzbl	27(%esp), %eax
	movzbl	%al, %edi
	movl	%edi, (%esp)
	call	console_write_dec
	addl	$16, %esp
	.cfi_def_cfa_offset 80
	movb	$1, 10(%esp)
.L995:
	addl	$1, %ebp
	addl	$28, %ebx
	cmpl	$32, %ebp
	je	.L1009
.L998:
	subl	$4, %esp
	.cfi_def_cfa_offset 84
	imull	$28, %ebp, %edi
	addl	8(%esp), %edi
	pushl	%ebp
	.cfi_def_cfa_offset 88
	pushl	8(%esp)
	.cfi_def_cfa_offset 92
	leal	28(%esp), %eax
	pushl	%eax
	.cfi_def_cfa_offset 96
	call	checkDevice
	.cfi_def_cfa_offset 92
	movl	28(%esp), %eax
	movl	%eax, devices(%edi)
	movl	32(%esp), %eax
	movl	%eax, devices+4(%edi)
	movl	36(%esp), %eax
	movl	%eax, devices+8(%edi)
	movl	40(%esp), %eax
	movl	%eax, devices+12(%edi)
	movl	44(%esp), %eax
	movl	%eax, devices+16(%edi)
	movl	48(%esp), %eax
	movl	%eax, devices+20(%edi)
	movl	52(%esp), %eax
	addl	$12, %esp
	.cfi_def_cfa_offset 80
	movl	%eax, devices+24(%edi)
	movl	16(%ebx), %eax
	cmpb	$1, 14(%eax)
	jne	.L994
	subl	$12, %esp
	.cfi_def_cfa_offset 92
	addl	$28, %ebx
	pushl	$.LC194
	.cfi_def_cfa_offset 96
	call	printf
	popl	%edx
	.cfi_def_cfa_offset 92
	popl	%ecx
	.cfi_def_cfa_offset 88
	pushl	%ebp
	.cfi_def_cfa_offset 92
	pushl	12(%esp)
	.cfi_def_cfa_offset 96
	addl	$1, %ebp
	call	checkSecBus
	addl	$16, %esp
	.cfi_def_cfa_offset 80
	cmpl	$32, %ebp
	jne	.L998
	.align 16
.L1009:
	addl	$1, (%esp)
	addl	$896, 12(%esp)
	movl	(%esp), %eax
	cmpl	$255, %eax
	jne	.L993
	subl	$12, %esp
	.cfi_def_cfa_offset 92
	pushl	$.LC200
	.cfi_def_cfa_offset 96
	call	printf
	addl	$76, %esp
	.cfi_def_cfa_offset 20
	popl	%ebx
	.cfi_restore 3
	.cfi_def_cfa_offset 16
	popl	%esi
	.cfi_restore 6
	.cfi_def_cfa_offset 12
	popl	%edi
	.cfi_restore 7
	.cfi_def_cfa_offset 8
	popl	%ebp
	.cfi_restore 5
	.cfi_def_cfa_offset 4
	ret
	.align 16
.L1008:
	.cfi_def_cfa_offset 80
	.cfi_offset 3, -20
	.cfi_offset 5, -8
	.cfi_offset 6, -16
	.cfi_offset 7, -12
	subl	$12, %esp
	.cfi_def_cfa_offset 92
	pushl	$.LC195
	.cfi_def_cfa_offset 96
	call	printf
	popl	%eax
	.cfi_def_cfa_offset 92
	pushl	12(%esp)
	.cfi_def_cfa_offset 96
	call	console_write_dec
	movl	$.LC196, (%esp)
	call	printf
	addl	$16, %esp
	.cfi_def_cfa_offset 80
	jmp	.L997
	.cfi_endproc
.LFE183:
	.size	checkAllBuses, .-checkAllBuses
	.align 16
	.globl	PciGetBar_1
	.type	PciGetBar_1, @function
PciGetBar_1:
.LFB184:
	.cfi_startproc
	movl	12(%esp), %edx
	testl	%edx, %edx
	je	.L1018
	cmpl	$1, %edx
	je	.L1019
	cmpl	$2, %edx
	je	.L1020
	cmpl	$3, %edx
	je	.L1021
	cmpl	$4, %edx
	je	.L1022
	cmpl	$5, %edx
	movl	$-1, %eax
	je	.L1023
	rep ret
	.align 16
.L1018:
	imull	$28, 8(%esp), %edx
	imull	$896, 4(%esp), %eax
	movl	devices+16(%edx,%eax), %eax
	movl	16(%eax), %eax
	ret
	.align 16
.L1019:
	imull	$28, 8(%esp), %edx
	imull	$896, 4(%esp), %eax
	movl	devices+16(%edx,%eax), %eax
	movl	20(%eax), %eax
	ret
	.align 16
.L1020:
	imull	$28, 8(%esp), %edx
	imull	$896, 4(%esp), %eax
	movl	devices+16(%edx,%eax), %eax
	movl	24(%eax), %eax
	ret
	.align 16
.L1021:
	imull	$28, 8(%esp), %edx
	imull	$896, 4(%esp), %eax
	movl	devices+16(%edx,%eax), %eax
	movl	28(%eax), %eax
	ret
	.align 16
.L1022:
	imull	$28, 8(%esp), %edx
	imull	$896, 4(%esp), %eax
	movl	devices+16(%edx,%eax), %eax
	movl	32(%eax), %eax
	ret
	.align 16
.L1023:
	imull	$28, 8(%esp), %edx
	imull	$896, 4(%esp), %eax
	movl	devices+16(%edx,%eax), %eax
	movl	36(%eax), %eax
	ret
	.cfi_endproc
.LFE184:
	.size	PciGetBar_1, .-PciGetBar_1
	.align 16
	.globl	PciGetBar_2
	.type	PciGetBar_2, @function
PciGetBar_2:
.LFB185:
	.cfi_startproc
	movl	8(%esp), %edx
	testl	%edx, %edx
	je	.L1032
	cmpl	$1, %edx
	je	.L1033
	cmpl	$2, %edx
	je	.L1034
	cmpl	$3, %edx
	je	.L1035
	cmpl	$4, %edx
	je	.L1036
	cmpl	$5, %edx
	movl	$-1, %eax
	je	.L1037
	rep ret
	.align 16
.L1032:
	movl	4(%esp), %eax
	movl	16(%eax), %eax
	movl	16(%eax), %eax
	ret
	.align 16
.L1033:
	movl	4(%esp), %eax
	movl	16(%eax), %eax
	movl	20(%eax), %eax
	ret
	.align 16
.L1034:
	movl	4(%esp), %eax
	movl	16(%eax), %eax
	movl	24(%eax), %eax
	ret
	.align 16
.L1035:
	movl	4(%esp), %eax
	movl	16(%eax), %eax
	movl	28(%eax), %eax
	ret
	.align 16
.L1036:
	movl	4(%esp), %eax
	movl	16(%eax), %eax
	movl	32(%eax), %eax
	ret
	.align 16
.L1037:
	movl	4(%esp), %eax
	movl	16(%eax), %eax
	movl	36(%eax), %eax
	ret
	.cfi_endproc
.LFE185:
	.size	PciGetBar_2, .-PciGetBar_2
	.comm	test1,4,4
	.comm	disks,4,4
	.comm	controllers,4,4
	.comm	bus,4,4
	.comm	device,4,4
	.comm	func,4,4
	.comm	abar,4,4
	.comm	AHCI,1,1
	.align 16
	.globl	get_device_info
	.type	get_device_info, @function
get_device_info:
.LFB186:
	.cfi_startproc
	pushl	%ebx
	.cfi_def_cfa_offset 8
	.cfi_offset 3, -8
	movl	$4098, %edx
	movzwl	8(%esp), %ecx
	movzwl	12(%esp), %ebx
	movl	$kSupportedDevices, %eax
	jmp	.L1041
	.align 16
.L1039:
	addl	$8, %eax
	movzwl	(%eax), %edx
	testw	%dx, %dx
	je	.L1044
.L1041:
	cmpw	%dx, %cx
	jne	.L1039
	cmpw	%bx, 2(%eax)
	jne	.L1039
	movl	4(%eax), %eax
	popl	%ebx
	.cfi_remember_state
	.cfi_restore 3
	.cfi_def_cfa_offset 4
	ret
	.align 16
.L1044:
	.cfi_restore_state
	xorl	%eax, %eax
	popl	%ebx
	.cfi_restore 3
	.cfi_def_cfa_offset 4
	ret
	.cfi_endproc
.LFE186:
	.size	get_device_info, .-get_device_info
	.globl	ahci_found
	.section	.bss
	.type	ahci_found, @object
	.size	ahci_found, 1
ahci_found:
	.zero	1
	.globl	data_base
	.align 4
	.type	data_base, @object
	.size	data_base, 4
data_base:
	.zero	4
	.section	.rodata
.LC201:
	.string	"\nAHCI disk sent an intterupt\n"
	.text
	.align 16
	.globl	ahci_handler
	.type	ahci_handler, @function
ahci_handler:
.LFB187:
	.cfi_startproc
	subl	$24, %esp
	.cfi_def_cfa_offset 28
	pushl	$.LC201
	.cfi_def_cfa_offset 32
	call	printf
	addl	$28, %esp
	.cfi_def_cfa_offset 4
	ret
	.cfi_endproc
.LFE187:
	.size	ahci_handler, .-ahci_handler
	.section	.rodata
.LC202:
	.string	"\n\tAHCI CONTROLLER #"
	.align 4
.LC203:
	.string	" FOUND, INITIALIZING AHCI CONTROLLER and Disks"
	.align 4
.LC204:
	.string	"\n\tAHCI CONTROLLER Initialized\n"
	.text
	.align 16
	.globl	checkAHCI
	.type	checkAHCI, @function
checkAHCI:
.LFB188:
	.cfi_startproc
	pushl	%edi
	.cfi_def_cfa_offset 8
	.cfi_offset 7, -8
	pushl	%esi
	.cfi_def_cfa_offset 12
	.cfi_offset 6, -12
	pushl	%ebx
	.cfi_def_cfa_offset 16
	.cfi_offset 3, -16
	subl	$12, %esp
	.cfi_def_cfa_offset 28
	pushl	$4096
	.cfi_def_cfa_offset 32
	call	*kmalloc
	movl	$4096, (%esp)
	movl	%eax, ahci
	movl	%eax, ahci_start
	call	*kmalloc
	movl	$1048576, (%esp)
	movl	%eax, Disk_dev
	movl	%eax, Disk_dev_start
	call	*kmalloc
	movl	TotalAHCIDevices, %ecx
	addl	$16, %esp
	.cfi_def_cfa_offset 16
	movl	%eax, AHCI_BASE
	testl	%ecx, %ecx
	je	.L1053
	movl	controllers, %edx
	movl	ahci, %eax
	movl	$AHCI_Devices, %ebx
	xorl	%esi, %esi
	.align 16
.L1052:
	addl	$1, %edx
	movl	%edx, controllers
	movl	%ebx, (%eax)
	movl	$4098, %edx
	movl	16(%ebx), %eax
	movzwl	2(%eax), %edi
	movzwl	(%eax), %ecx
	movl	$kSupportedDevices, %eax
	jmp	.L1051
	.align 16
.L1049:
	addl	$8, %eax
	movzwl	(%eax), %edx
	testw	%dx, %dx
	je	.L1058
.L1051:
	cmpw	%dx, %cx
	jne	.L1049
	cmpw	2(%eax), %di
	jne	.L1049
	movl	4(%eax), %eax
.L1050:
	subl	$12, %esp
	.cfi_def_cfa_offset 28
	addl	$1, %esi
	addl	$28, %ebx
	pushl	%eax
	.cfi_def_cfa_offset 32
	call	printf
	movl	$.LC202, (%esp)
	call	printf
	popl	%eax
	.cfi_def_cfa_offset 28
	pushl	controllers
	.cfi_def_cfa_offset 32
	call	console_write_dec
	movl	$.LC203, (%esp)
	call	printf
	popl	%edx
	.cfi_def_cfa_offset 28
	pushl	ahci
	.cfi_def_cfa_offset 32
	call	probe_port
	movl	$.LC204, (%esp)
	call	printf
	movl	ahci, %eax
	movl	controllers, %edx
	addl	$16, %esp
	.cfi_def_cfa_offset 16
	movb	$1, ahci_found
	movw	%dx, 4(%eax)
	addl	$520, %eax
	cmpl	%esi, TotalAHCIDevices
	movl	%eax, ahci
	ja	.L1052
.L1053:
	subl	$12, %esp
	.cfi_def_cfa_offset 28
	pushl	$.LC196
	.cfi_def_cfa_offset 32
	call	printf
	addl	$16, %esp
	.cfi_def_cfa_offset 16
	movl	controllers, %eax
	popl	%ebx
	.cfi_remember_state
	.cfi_restore 3
	.cfi_def_cfa_offset 12
	popl	%esi
	.cfi_restore 6
	.cfi_def_cfa_offset 8
	popl	%edi
	.cfi_restore 7
	.cfi_def_cfa_offset 4
	ret
	.align 16
.L1058:
	.cfi_restore_state
	xorl	%eax, %eax
	jmp	.L1050
	.cfi_endproc
.LFE188:
	.size	checkAHCI, .-checkAHCI
	.comm	satatest,4,4
	.section	.rodata
	.align 4
.LC205:
	.string	"\n\t The Data we Recieved from identity command:\n\t"
	.align 4
.LC206:
	.string	"\n\t\tSerial Number: %s \n\t\tModel Number: %s\n\t\tFirmware: %s\n"
.LC207:
	.string	"\t\tTotal Logical Sectors: %x "
	.align 4
.LC208:
	.string	"  Heads: %x Sectors: %x Cyclinders: %x Bytes per sectors: %x Bytes per track: %x"
	.text
	.align 16
	.globl	IDENTIFYdrive
	.type	IDENTIFYdrive, @function
IDENTIFYdrive:
.LFB189:
	.cfi_startproc
	pushl	%ebx
	.cfi_def_cfa_offset 8
	.cfi_offset 3, -8
	subl	$20, %esp
	.cfi_def_cfa_offset 28
	movl	28(%esp), %ebx
	pushl	$512
	.cfi_def_cfa_offset 32
	call	*kmalloc
	movl	%eax, 8(%ebx)
	movl	$0, (%esp)
	pushl	$0
	.cfi_def_cfa_offset 36
	pushl	$0
	.cfi_def_cfa_offset 40
	pushl	$512
	.cfi_def_cfa_offset 44
	pushl	$1
	.cfi_def_cfa_offset 48
	pushl	%eax
	.cfi_def_cfa_offset 52
	pushl	$0
	.cfi_def_cfa_offset 56
	pushl	$236
	.cfi_def_cfa_offset 60
	pushl	4(%ebx)
	.cfi_def_cfa_offset 64
	call	SATA_Commander
	movl	8(%ebx), %ebx
	addl	$36, %esp
	.cfi_def_cfa_offset 28
	pushl	$.LC205
	.cfi_def_cfa_offset 32
	call	printf
	leal	46(%ebx), %eax
	pushl	%eax
	.cfi_def_cfa_offset 36
	leal	54(%ebx), %eax
	pushl	%eax
	.cfi_def_cfa_offset 40
	leal	20(%ebx), %eax
	pushl	%eax
	.cfi_def_cfa_offset 44
	pushl	$.LC206
	.cfi_def_cfa_offset 48
	call	printf
	addl	$24, %esp
	.cfi_def_cfa_offset 24
	pushl	120(%ebx)
	.cfi_def_cfa_offset 28
	pushl	$.LC207
	.cfi_def_cfa_offset 32
	call	printf
	popl	%eax
	.cfi_def_cfa_offset 28
	movzwl	8(%ebx), %eax
	popl	%edx
	.cfi_def_cfa_offset 24
	pushl	%eax
	.cfi_def_cfa_offset 28
	movzwl	10(%ebx), %eax
	pushl	%eax
	.cfi_def_cfa_offset 32
	movzwl	2(%ebx), %eax
	pushl	%eax
	.cfi_def_cfa_offset 36
	movzwl	12(%ebx), %eax
	pushl	%eax
	.cfi_def_cfa_offset 40
	movzwl	6(%ebx), %eax
	pushl	%eax
	.cfi_def_cfa_offset 44
	pushl	$.LC208
	.cfi_def_cfa_offset 48
	call	printf
	addl	$40, %esp
	.cfi_def_cfa_offset 8
	movl	$1, %eax
	popl	%ebx
	.cfi_restore 3
	.cfi_def_cfa_offset 4
	ret
	.cfi_endproc
.LFE189:
	.size	IDENTIFYdrive, .-IDENTIFYdrive
	.section	.rodata
.LC209:
	.string	"\n\t\tSATAPI drive found \n"
.LC210:
	.string	"\n\t\tSEMB drive found \n"
.LC211:
	.string	"\n\t\tPM drive found \n"
	.align 4
.LC212:
	.string	"\n\t\tNo Drives Recognized on this controller\n"
	.align 4
.LC213:
	.string	"\n\n\t\tSata Disk #%x at port %x Found!\n"
	.text
	.align 16
	.globl	probe_port
	.type	probe_port, @function
probe_port:
.LFB190:
	.cfi_startproc
	pushl	%ebp
	.cfi_def_cfa_offset 8
	.cfi_offset 5, -8
	pushl	%edi
	.cfi_def_cfa_offset 12
	.cfi_offset 7, -12
	pushl	%esi
	.cfi_def_cfa_offset 16
	.cfi_offset 6, -16
	pushl	%ebx
	.cfi_def_cfa_offset 20
	.cfi_offset 3, -20
	xorl	%ebx, %ebx
	subl	$40, %esp
	.cfi_def_cfa_offset 60
	movl	60(%esp), %eax
	movl	%eax, %edi
	movl	%eax, 16(%esp)
	pushl	$4096
	.cfi_def_cfa_offset 64
	call	*kmalloc
	movl	%eax, Disk_dev
	movl	(%edi), %eax
	movl	16(%eax), %eax
	movl	36(%eax), %eax
	movl	%eax, abar
	movl	12(%eax), %esi
	movl	%edi, %eax
	addl	$8, %eax
	movl	%eax, 28(%esp)
	addl	$16, %esp
	.cfi_def_cfa_offset 48
	movl	%eax, %ebp
	movl	$0, 8(%esp)
	jmp	.L1067
	.align 16
.L1062:
	addl	$1, %ebx
	shrl	%esi
	addl	$16, %ebp
	cmpl	$32, %ebx
	je	.L1085
.L1067:
	testl	$1, %esi
	je	.L1062
	movl	abar, %eax
	leal	2(%ebx), %edi
	subl	$12, %esp
	.cfi_def_cfa_offset 60
	sall	$7, %edi
	addl	%edi, %eax
	pushl	%eax
	.cfi_def_cfa_offset 64
	call	check_type
	addl	$16, %esp
	.cfi_def_cfa_offset 48
	testl	%eax, %eax
	je	.L1062
	movl	abar, %ecx
	movl	%ebx, %edx
	sall	$7, %edx
	addl	%ecx, %edx
	movl	%ecx, (%esp)
	movl	280(%edx), %ecx
	andl	$1, %ecx
	jne	.L1063
	movl	280(%edx), %ecx
	orl	$1, %ecx
	movl	%ecx, 280(%edx)
.L1063:
	cmpl	$1, %eax
	jne	.L1064
	movl	sata, %ecx
	addl	(%esp), %edi
	shrl	%esi
	movb	$1, AHCI
	addl	$16, %ebp
	movl	%ecx, %edx
	addl	$1, %ecx
	sall	$4, %edx
	addl	Disk_dev, %edx
	movl	$1, (%edx)
	movl	%edi, 4(%edx)
	movl	$1, -16(%ebp)
	movl	4(%edx), %edi
	movl	%edi, -12(%ebp)
	movl	8(%edx), %edi
	movl	%edi, -8(%ebp)
	movl	12(%edx), %edx
	movl	4(%esp), %edi
	movl	%edx, -4(%ebp)
	movl	disks, %edx
	movl	%ecx, sata
	movl	%ebx, %ecx
	addl	$1, %ebx
	sall	%cl, %eax
	orl	%eax, 8(%esp)
	movw	%dx, 6(%edi)
	addl	$1, %edx
	cmpl	$32, %ebx
	movl	%edx, disks
	jne	.L1067
	.align 16
.L1085:
	xorl	%ebx, %ebx
	cmpb	$0, AHCI
	movl	$1, %eax
	movl	$1, %edi
	je	.L1086
	movl	8(%esp), %ebp
	movl	12(%esp), %esi
	jmp	.L1077
	.align 16
.L1069:
	addl	$1, %ebx
	addl	$16, %esi
	cmpl	$32, %ebx
	je	.L1087
.L1077:
	movl	%edi, %edx
	movl	%ebx, %ecx
	sall	%cl, %edx
	testl	%ebp, %edx
	je	.L1069
	leal	1(%eax), %ecx
	subl	$4, %esp
	.cfi_def_cfa_offset 52
	movl	%ecx, 4(%esp)
	pushl	%ebx
	.cfi_def_cfa_offset 56
	pushl	%eax
	.cfi_def_cfa_offset 60
	pushl	$.LC213
	.cfi_def_cfa_offset 64
	call	printf
	popl	%eax
	.cfi_def_cfa_offset 60
	leal	2(%ebx), %eax
	popl	%edx
	.cfi_def_cfa_offset 56
	sall	$7, %eax
	addl	abar, %eax
	pushl	%ebx
	.cfi_def_cfa_offset 60
	addl	$1, %ebx
	pushl	%eax
	.cfi_def_cfa_offset 64
	call	port_rebase
	movl	%esi, (%esp)
	addl	$16, %esi
	call	IDENTIFYdrive
	addl	$16, %esp
	.cfi_def_cfa_offset 48
	cmpl	$32, %ebx
	movl	(%esp), %eax
	jne	.L1077
.L1087:
	addl	$28, %esp
	.cfi_remember_state
	.cfi_def_cfa_offset 20
	popl	%ebx
	.cfi_restore 3
	.cfi_def_cfa_offset 16
	popl	%esi
	.cfi_restore 6
	.cfi_def_cfa_offset 12
	popl	%edi
	.cfi_restore 7
	.cfi_def_cfa_offset 8
	popl	%ebp
	.cfi_restore 5
	.cfi_def_cfa_offset 4
	ret
	.align 16
.L1064:
	.cfi_restore_state
	cmpl	$4, %eax
	je	.L1088
	cmpl	$2, %eax
	jne	.L1066
	addl	(%esp), %edi
	movl	Disk_dev, %eax
	subl	$12, %esp
	.cfi_def_cfa_offset 60
	movb	$1, AHCI
	movl	$3, (%eax)
	addl	$16, %eax
	movl	%edi, -12(%eax)
	movl	$3, 0(%ebp)
	movl	-12(%eax), %edx
	movl	16(%esp), %edi
	movl	%edx, 4(%ebp)
	movl	-8(%eax), %edx
	movl	%edx, 8(%ebp)
	movl	-4(%eax), %edx
	movl	%edx, 12(%ebp)
	movl	disks, %edx
	movl	%eax, Disk_dev
	movw	%dx, 6(%edi)
	pushl	$.LC210
	.cfi_def_cfa_offset 64
	addl	$1, %edx
	movl	%edx, disks
	call	printf
	addl	$16, %esp
	.cfi_def_cfa_offset 48
	jmp	.L1062
	.align 16
.L1088:
	addl	(%esp), %edi
	movl	Disk_dev, %eax
	subl	$12, %esp
	.cfi_def_cfa_offset 60
	movb	$1, AHCI
	movl	$2, (%eax)
	addl	$16, %eax
	movl	%edi, -12(%eax)
	movl	$2, 0(%ebp)
	movl	-12(%eax), %edx
	movl	16(%esp), %edi
	movl	%edx, 4(%ebp)
	movl	-8(%eax), %edx
	movl	%edx, 8(%ebp)
	movl	-4(%eax), %edx
	movl	%edx, 12(%ebp)
	movl	disks, %edx
	movl	%eax, Disk_dev
	movw	%dx, 6(%edi)
	pushl	$.LC209
	.cfi_def_cfa_offset 64
	addl	$1, %edx
	movl	%edx, disks
	call	printf
	addl	$16, %esp
	.cfi_def_cfa_offset 48
	jmp	.L1062
	.align 16
.L1066:
	cmpl	$3, %eax
	jne	.L1062
	addl	(%esp), %edi
	movl	Disk_dev, %eax
	subl	$12, %esp
	.cfi_def_cfa_offset 60
	movb	$1, AHCI
	movl	$4, (%eax)
	addl	$16, %eax
	movl	%edi, -12(%eax)
	movl	$4, 0(%ebp)
	movl	-12(%eax), %edx
	movl	16(%esp), %edi
	movl	%edx, 4(%ebp)
	movl	-8(%eax), %edx
	movl	%edx, 8(%ebp)
	movl	-4(%eax), %edx
	movl	%edx, 12(%ebp)
	movl	disks, %edx
	movl	%eax, Disk_dev
	movw	%dx, 6(%edi)
	pushl	$.LC211
	.cfi_def_cfa_offset 64
	addl	$1, %edx
	movl	%edx, disks
	call	printf
	addl	$16, %esp
	.cfi_def_cfa_offset 48
	jmp	.L1062
.L1086:
	movl	$.LC212, 48(%esp)
	addl	$28, %esp
	.cfi_def_cfa_offset 20
	popl	%ebx
	.cfi_restore 3
	.cfi_def_cfa_offset 16
	popl	%esi
	.cfi_restore 6
	.cfi_def_cfa_offset 12
	popl	%edi
	.cfi_restore 7
	.cfi_def_cfa_offset 8
	popl	%ebp
	.cfi_restore 5
	.cfi_def_cfa_offset 4
	jmp	printf
	.cfi_endproc
.LFE190:
	.size	probe_port, .-probe_port
	.align 16
	.globl	check_type
	.type	check_type, @function
check_type:
.LFB191:
	.cfi_startproc
	pushl	%ebx
	.cfi_def_cfa_offset 8
	.cfi_offset 3, -8
	movl	8(%esp), %edx
	movl	52(%edx), %ecx
	movl	40(%edx), %eax
	movl	%eax, %ebx
	andl	$15, %ebx
	cmpb	$3, %bl
	setne	%bl
	testl	%ecx, %ecx
	sete	%cl
	orb	%cl, %bl
	jne	.L1094
	shrl	$8, %eax
	andl	$15, %eax
	cmpb	$1, %al
	jne	.L1094
	movl	36(%edx), %edx
	movl	$2, %eax
	cmpl	$-1019477759, %edx
	je	.L1089
	cmpl	$-351010559, %edx
	movl	$4, %eax
	je	.L1089
	xorl	%eax, %eax
	cmpl	$-1771503359, %edx
	sete	%al
	leal	1(%eax,%eax), %eax
.L1089:
	popl	%ebx
	.cfi_remember_state
	.cfi_restore 3
	.cfi_def_cfa_offset 4
	ret
	.align 16
.L1094:
	.cfi_restore_state
	xorl	%eax, %eax
	popl	%ebx
	.cfi_restore 3
	.cfi_def_cfa_offset 4
	ret
	.cfi_endproc
.LFE191:
	.size	check_type, .-check_type
	.align 16
	.globl	port_rebase
	.type	port_rebase, @function
port_rebase:
.LFB192:
	.cfi_startproc
	pushl	%ebp
	.cfi_def_cfa_offset 8
	.cfi_offset 5, -8
	movl	abar, %eax
	pushl	%edi
	.cfi_def_cfa_offset 12
	.cfi_offset 7, -12
	pushl	%esi
	.cfi_def_cfa_offset 16
	.cfi_offset 6, -16
	pushl	%ebx
	.cfi_def_cfa_offset 20
	.cfi_offset 3, -20
	movl	20(%esp), %esi
	movl	$-2147483648, 4(%eax)
	movl	$1, 4(%eax)
	movl	$-2147483648, 4(%eax)
	movl	$2, 4(%eax)
	movl	24(%esi), %eax
	movl	24(%esp), %edi
	andl	$-2, %eax
	movl	%eax, 24(%esi)
	movl	24(%esi), %eax
	andl	$-17, %eax
	movl	%eax, 24(%esi)
.L1100:
	movl	24(%esi), %eax
	testb	$64, %ah
	jne	.L1100
	movl	24(%esi), %ebx
	andl	$32768, %ebx
	jne	.L1100
	movl	24(%esi), %eax
	andl	$-17, %eax
	movl	%eax, 24(%esi)
	movl	24(%esi), %eax
	andb	$127, %ah
	movl	%eax, 24(%esi)
	movl	24(%esi), %eax
	andb	$191, %ah
	movl	%eax, 24(%esi)
	movl	24(%esi), %eax
	andl	$-2, %eax
	movl	%eax, 24(%esi)
	movl	24(%esi), %eax
	andl	$-9, %eax
	movl	%eax, 24(%esi)
	movl	%edi, %eax
	movl	$65535, 48(%esi)
	sall	$10, %eax
	addl	AHCI_BASE, %eax
	movl	$0, 16(%esi)
	movl	%eax, (%esi)
	movl	$0, 4(%esi)
	movl	(%esi), %eax
	leal	1024(%eax), %edx
	.align 16
.L1102:
	addl	$1, %eax
	movb	$0, -1(%eax)
	cmpl	%edx, %eax
	jne	.L1102
	movl	AHCI_BASE, %edx
	movl	%edi, %eax
	sall	$8, %eax
	leal	32768(%edx,%eax), %eax
	movl	%eax, 8(%esi)
	movl	$0, 12(%esi)
	movl	8(%esi), %eax
	leal	256(%eax), %edx
	.align 16
.L1103:
	addl	$1, %eax
	movb	$0, -1(%eax)
	cmpl	%edx, %eax
	jne	.L1103
	movl	(%esi), %ebp
	sall	$13, %edi
	leal	2(%ebp), %ecx
	addl	$1026, %ebp
	.align 16
.L1105:
	movl	$8, %eax
	movw	%ax, (%ecx)
	movl	AHCI_BASE, %eax
	movl	$0, 10(%ecx)
	leal	40960(%edi,%eax), %eax
	addl	%ebx, %eax
	leal	256(%eax), %edx
	movl	%eax, 6(%ecx)
	.align 16
.L1104:
	addl	$1, %eax
	movb	$0, -1(%eax)
	cmpl	%eax, %edx
	jne	.L1104
	addl	$32, %ecx
	addl	$256, %ebx
	cmpl	%ebp, %ecx
	jne	.L1105
	movl	24(%esi), %eax
	orl	$16, %eax
	movl	%eax, 24(%esi)
	movl	24(%esi), %eax
	orl	$1, %eax
	movl	%eax, 24(%esi)
	movl	$0, 16(%esi)
	movl	$0, 20(%esi)
	popl	%ebx
	.cfi_restore 3
	.cfi_def_cfa_offset 16
	popl	%esi
	.cfi_restore 6
	.cfi_def_cfa_offset 12
	popl	%edi
	.cfi_restore 7
	.cfi_def_cfa_offset 8
	popl	%ebp
	.cfi_restore 5
	.cfi_def_cfa_offset 4
	ret
	.cfi_endproc
.LFE192:
	.size	port_rebase, .-port_rebase
	.align 16
	.globl	start_cmd
	.type	start_cmd, @function
start_cmd:
.LFB193:
	.cfi_startproc
	movl	4(%esp), %eax
	movl	24(%eax), %edx
	orl	$16, %edx
	movl	%edx, 24(%eax)
	movl	24(%eax), %edx
	orl	$1, %edx
	movl	%edx, 24(%eax)
	ret
	.cfi_endproc
.LFE193:
	.size	start_cmd, .-start_cmd
	.align 16
	.globl	stop_cmd
	.type	stop_cmd, @function
stop_cmd:
.LFB194:
	.cfi_startproc
	movl	4(%esp), %eax
	movl	24(%eax), %edx
	andl	$-2, %edx
	movl	%edx, 24(%eax)
	movl	24(%eax), %edx
	andl	$-17, %edx
	movl	%edx, 24(%eax)
	.align 16
.L1115:
	movl	24(%eax), %edx
	andb	$64, %dh
	jne	.L1115
	movl	24(%eax), %edx
	andb	$128, %dh
	jne	.L1115
	movl	24(%eax), %edx
	andl	$-17, %edx
	movl	%edx, 24(%eax)
	ret
	.cfi_endproc
.LFE194:
	.size	stop_cmd, .-stop_cmd
	.section	.rodata
.LC214:
	.string	"Read disk error\n"
	.text
	.align 16
	.globl	read
	.type	read, @function
read:
.LFB195:
	.cfi_startproc
	pushl	%ebx
	.cfi_def_cfa_offset 8
	.cfi_offset 3, -8
	subl	$20, %esp
	.cfi_def_cfa_offset 28
	movl	40(%esp), %eax
	movl	28(%esp), %ebx
	movl	%eax, %edx
	pushl	%eax
	.cfi_def_cfa_offset 32
	subl	$1, %eax
	shrl	$4, %eax
	sall	$9, %edx
	pushl	40(%esp)
	.cfi_def_cfa_offset 36
	movzwl	%ax, %eax
	pushl	40(%esp)
	.cfi_def_cfa_offset 40
	pushl	%edx
	.cfi_def_cfa_offset 44
	addl	$1, %eax
	pushl	%eax
	.cfi_def_cfa_offset 48
	pushl	64(%esp)
	.cfi_def_cfa_offset 52
	pushl	$0
	.cfi_def_cfa_offset 56
	pushl	$32
	.cfi_def_cfa_offset 60
	pushl	%ebx
	.cfi_def_cfa_offset 64
	call	SATA_Commander
	movl	16(%ebx), %edx
	addl	$48, %esp
	.cfi_def_cfa_offset 16
	movl	$1, %eax
	andl	$1073741824, %edx
	je	.L1119
	subl	$12, %esp
	.cfi_def_cfa_offset 28
	pushl	$.LC214
	.cfi_def_cfa_offset 32
	call	printf
	addl	$16, %esp
	.cfi_def_cfa_offset 16
	xorl	%eax, %eax
.L1119:
	addl	$8, %esp
	.cfi_def_cfa_offset 8
	popl	%ebx
	.cfi_restore 3
	.cfi_def_cfa_offset 4
	ret
	.cfi_endproc
.LFE195:
	.size	read, .-read
	.section	.rodata
.LC215:
	.string	"Write disk error\n"
	.text
	.align 16
	.globl	write
	.type	write, @function
write:
.LFB196:
	.cfi_startproc
	pushl	%ebx
	.cfi_def_cfa_offset 8
	.cfi_offset 3, -8
	subl	$20, %esp
	.cfi_def_cfa_offset 28
	movl	40(%esp), %eax
	movl	28(%esp), %ebx
	movl	%eax, %edx
	pushl	%eax
	.cfi_def_cfa_offset 32
	subl	$1, %eax
	shrl	$4, %eax
	sall	$9, %edx
	pushl	40(%esp)
	.cfi_def_cfa_offset 36
	movzwl	%ax, %eax
	pushl	40(%esp)
	.cfi_def_cfa_offset 40
	pushl	%edx
	.cfi_def_cfa_offset 44
	addl	$1, %eax
	pushl	%eax
	.cfi_def_cfa_offset 48
	pushl	64(%esp)
	.cfi_def_cfa_offset 52
	pushl	$1
	.cfi_def_cfa_offset 56
	pushl	$48
	.cfi_def_cfa_offset 60
	pushl	%ebx
	.cfi_def_cfa_offset 64
	call	SATA_Commander
	movl	16(%ebx), %edx
	addl	$48, %esp
	.cfi_def_cfa_offset 16
	movl	$1, %eax
	andl	$1073741824, %edx
	je	.L1125
	subl	$12, %esp
	.cfi_def_cfa_offset 28
	pushl	$.LC215
	.cfi_def_cfa_offset 32
	call	printf
	addl	$16, %esp
	.cfi_def_cfa_offset 16
	xorl	%eax, %eax
.L1125:
	addl	$8, %esp
	.cfi_def_cfa_offset 8
	popl	%ebx
	.cfi_restore 3
	.cfi_def_cfa_offset 4
	ret
	.cfi_endproc
.LFE196:
	.size	write, .-write
	.align 16
	.globl	sec_read_static
	.type	sec_read_static, @function
sec_read_static:
.LFB199:
	.cfi_startproc
	pushl	%ebx
	.cfi_def_cfa_offset 8
	.cfi_offset 3, -8
	subl	$20, %esp
	.cfi_def_cfa_offset 28
	movl	40(%esp), %eax
	movl	28(%esp), %ebx
	movl	%eax, %edx
	pushl	%eax
	.cfi_def_cfa_offset 32
	subl	$1, %eax
	shrl	$4, %eax
	sall	$9, %edx
	pushl	40(%esp)
	.cfi_def_cfa_offset 36
	movzwl	%ax, %eax
	pushl	40(%esp)
	.cfi_def_cfa_offset 40
	pushl	%edx
	.cfi_def_cfa_offset 44
	addl	$1, %eax
	pushl	%eax
	.cfi_def_cfa_offset 48
	pushl	64(%esp)
	.cfi_def_cfa_offset 52
	pushl	$0
	.cfi_def_cfa_offset 56
	pushl	$32
	.cfi_def_cfa_offset 60
	pushl	%ebx
	.cfi_def_cfa_offset 64
	call	SATA_Commander
	movl	16(%ebx), %edx
	addl	$48, %esp
	.cfi_def_cfa_offset 16
	movl	$1, %eax
	andl	$1073741824, %edx
	je	.L1131
	subl	$12, %esp
	.cfi_def_cfa_offset 28
	pushl	$.LC214
	.cfi_def_cfa_offset 32
	call	printf
	addl	$16, %esp
	.cfi_def_cfa_offset 16
	xorl	%eax, %eax
.L1131:
	addl	$8, %esp
	.cfi_def_cfa_offset 8
	popl	%ebx
	.cfi_restore 3
	.cfi_def_cfa_offset 4
	ret
	.cfi_endproc
.LFE199:
	.size	sec_read_static, .-sec_read_static
	.align 16
	.globl	sec_write_static
	.type	sec_write_static, @function
sec_write_static:
.LFB200:
	.cfi_startproc
	pushl	%ebx
	.cfi_def_cfa_offset 8
	.cfi_offset 3, -8
	subl	$20, %esp
	.cfi_def_cfa_offset 28
	movl	40(%esp), %eax
	movl	28(%esp), %ebx
	movl	%eax, %edx
	pushl	%eax
	.cfi_def_cfa_offset 32
	subl	$1, %eax
	shrl	$4, %eax
	sall	$9, %edx
	pushl	40(%esp)
	.cfi_def_cfa_offset 36
	movzwl	%ax, %eax
	pushl	40(%esp)
	.cfi_def_cfa_offset 40
	pushl	%edx
	.cfi_def_cfa_offset 44
	addl	$1, %eax
	pushl	%eax
	.cfi_def_cfa_offset 48
	pushl	64(%esp)
	.cfi_def_cfa_offset 52
	pushl	$1
	.cfi_def_cfa_offset 56
	pushl	$48
	.cfi_def_cfa_offset 60
	pushl	%ebx
	.cfi_def_cfa_offset 64
	call	SATA_Commander
	movl	16(%ebx), %edx
	addl	$48, %esp
	.cfi_def_cfa_offset 16
	movl	$1, %eax
	andl	$1073741824, %edx
	je	.L1137
	subl	$12, %esp
	.cfi_def_cfa_offset 28
	pushl	$.LC215
	.cfi_def_cfa_offset 32
	call	printf
	addl	$16, %esp
	.cfi_def_cfa_offset 16
	xorl	%eax, %eax
.L1137:
	addl	$8, %esp
	.cfi_def_cfa_offset 8
	popl	%ebx
	.cfi_restore 3
	.cfi_def_cfa_offset 4
	ret
	.cfi_endproc
.LFE200:
	.size	sec_write_static, .-sec_write_static
	.align 16
	.globl	SATA_Commander
	.type	SATA_Commander, @function
SATA_Commander:
.LFB201:
	.cfi_startproc
	pushl	%ebp
	.cfi_def_cfa_offset 8
	.cfi_offset 5, -8
	pushl	%edi
	.cfi_def_cfa_offset 12
	.cfi_offset 7, -12
	pushl	%esi
	.cfi_def_cfa_offset 16
	.cfi_offset 6, -16
	pushl	%ebx
	.cfi_def_cfa_offset 20
	.cfi_offset 3, -20
	subl	$40, %esp
	.cfi_def_cfa_offset 60
	movl	64(%esp), %eax
	movl	68(%esp), %ebx
	movl	%eax, 24(%esp)
	movl	60(%esp), %eax
	andl	$1, %ebx
	sall	$6, %ebx
	orl	$-123, %ebx
	movl	(%eax), %esi
	pushl	60(%esp)
	.cfi_def_cfa_offset 64
	call	find_cmdslot
	sall	$5, %eax
	addl	%eax, %esi
	movzwl	80(%esp), %eax
	addl	$16, %esp
	.cfi_def_cfa_offset 48
	movl	64(%esp), %ebp
	orb	$4, 1(%esi)
	movb	%bl, (%esi)
	movl	8(%esi), %edi
	subl	$1, %ebp
	movw	%ax, 2(%esi)
	je	.L1144
	movl	60(%esp), %esi
	leal	128(%edi), %ebx
	xorl	%ecx, %ecx
	.align 16
.L1145:
	leal	8(%ecx), %edx
	movl	%esi, (%ebx)
	movl	$0, 4(%ebx)
	addl	$1, %ecx
	addl	$8192, %esi
	addl	$16, %ebx
	sall	$4, %edx
	addl	%edi, %edx
	movl	12(%edx), %eax
	andl	$-4194304, %eax
	orb	$32, %ah
	movl	%eax, 12(%edx)
	shrl	$24, %eax
	andl	$127, %eax
	cmpl	%ebp, %ecx
	movb	%al, 15(%edx)
	jne	.L1145
	movl	64(%esp), %eax
	movl	60(%esp), %esi
	addl	$524286, %eax
	sall	$13, %eax
	leal	8192(%esi,%eax), %eax
	movl	%eax, 60(%esp)
.L1144:
	movl	60(%esp), %esi
	movl	%ebp, %eax
	addl	$8, %ebp
	sall	$4, %eax
	sall	$4, %ebp
	movl	68(%esp), %ecx
	addl	%edi, %eax
	movl	%esi, 128(%eax)
	movl	$0, 132(%eax)
	leal	(%edi,%ebp), %eax
	andl	$4194303, %ecx
	movl	12(%eax), %edx
	andl	$-4194304, %edx
	orl	%ecx, %edx
	movl	%edx, 12(%eax)
	shrl	$24, %edx
	andl	$127, %edx
	movb	%dl, 15(%eax)
	leal	20(%edi), %edx
	movl	%edi, %eax
	.align 16
.L1146:
	addl	$1, %eax
	movb	$0, -1(%eax)
	cmpl	%edx, %eax
	jne	.L1146
	movzbl	12(%esp), %eax
	movb	$39, (%edi)
	orb	$-128, 1(%edi)
	movb	$64, 7(%edi)
	movb	%al, 2(%edi)
	movzbl	72(%esp), %eax
	movb	%al, 4(%edi)
	movl	72(%esp), %eax
	shrl	$8, %eax
	movb	%al, 5(%edi)
	movl	72(%esp), %eax
	shrl	$16, %eax
	movb	%al, 6(%edi)
	movl	72(%esp), %eax
	shrl	$24, %eax
	movb	%al, 8(%edi)
	movzbl	76(%esp), %eax
	movb	%al, 9(%edi)
	movl	76(%esp), %eax
	shrl	$8, %eax
	movb	%al, 10(%edi)
	movzbl	80(%esp), %eax
	movb	%al, 12(%edi)
	movl	80(%esp), %eax
	shrl	$8, %eax
	movb	%al, 13(%edi)
	movl	48(%esp), %eax
	movl	$1, 56(%eax)
	movl	%eax, %edx
	.align 16
.L1147:
	movl	56(%edx), %eax
	testl	%eax, %eax
	jne	.L1147
	addl	$28, %esp
	.cfi_def_cfa_offset 20
	movl	$1, %eax
	popl	%ebx
	.cfi_restore 3
	.cfi_def_cfa_offset 16
	popl	%esi
	.cfi_restore 6
	.cfi_def_cfa_offset 12
	popl	%edi
	.cfi_restore 7
	.cfi_def_cfa_offset 8
	popl	%ebp
	.cfi_restore 5
	.cfi_def_cfa_offset 4
	ret
	.cfi_endproc
.LFE201:
	.size	SATA_Commander, .-SATA_Commander
	.section	.rodata
	.align 4
.LC216:
	.string	"Cannot find free command list entry\n"
	.text
	.align 16
	.globl	find_cmdslot
	.type	find_cmdslot, @function
find_cmdslot:
.LFB202:
	.cfi_startproc
	subl	$12, %esp
	.cfi_def_cfa_offset 16
	movl	16(%esp), %eax
	movl	52(%eax), %edx
	movl	56(%eax), %eax
	orl	%eax, %edx
	movl	abar, %eax
	movl	(%eax), %ecx
	shrl	$8, %ecx
	andl	$15, %ecx
	je	.L1156
	xorl	%eax, %eax
	testb	$1, %dl
	jne	.L1159
	jmp	.L1155
	.align 16
.L1160:
	testb	$1, %dl
	je	.L1155
.L1159:
	addl	$1, %eax
	shrl	%edx
	cmpl	%eax, %ecx
	jne	.L1160
.L1156:
	subl	$12, %esp
	.cfi_def_cfa_offset 28
	pushl	$.LC216
	.cfi_def_cfa_offset 32
	call	printf
	addl	$16, %esp
	.cfi_def_cfa_offset 16
	movl	$-1, %eax
.L1155:
	addl	$12, %esp
	.cfi_def_cfa_offset 4
	ret
	.cfi_endproc
.LFE202:
	.size	find_cmdslot, .-find_cmdslot
	.comm	buffer0,8,4
	.globl	seed1
	.data
	.align 4
	.type	seed1, @object
	.size	seed1, 4
seed1:
	.long	9
	.comm	buffer1,8,4
	.globl	seed2
	.align 4
	.type	seed2, @object
	.size	seed2, 4
seed2:
	.long	8
	.comm	buffer2,8,4
	.globl	seed3
	.align 4
	.type	seed3, @object
	.size	seed3, 4
seed3:
	.long	7
	.comm	buffer3,8,4
	.text
	.align 16
	.globl	Init
	.type	Init, @function
Init:
.LFB578:
	.cfi_startproc
	rep ret
	.cfi_endproc
.LFE578:
	.size	Init, .-Init
	.align 16
	.globl	custom_memcpy
	.type	custom_memcpy, @function
custom_memcpy:
.LFB204:
	.cfi_startproc
	subl	$16, %esp
	.cfi_def_cfa_offset 20
	movl	24(%esp), %eax
	movl	%eax, 12(%esp)
	movl	20(%esp), %eax
	movl	%eax, 8(%esp)
	jmp	.L1171
.L1172:
	movl	8(%esp), %eax
	leal	4(%eax), %edx
	movl	%edx, 8(%esp)
	movl	12(%esp), %edx
	leal	4(%edx), %ecx
	movl	%ecx, 12(%esp)
	movl	(%edx), %edx
	movl	%edx, (%eax)
	subl	$1, 28(%esp)
.L1171:
	cmpl	$0, 28(%esp)
	jne	.L1172
	movl	20(%esp), %eax
	addl	$16, %esp
	.cfi_def_cfa_offset 4
	ret
	.cfi_endproc
.LFE204:
	.size	custom_memcpy, .-custom_memcpy
	.align 16
	.globl	RectD
	.type	RectD, @function
RectD:
.LFB209:
	.cfi_startproc
	pushl	%ebp
	.cfi_def_cfa_offset 8
	.cfi_offset 5, -8
	pushl	%edi
	.cfi_def_cfa_offset 12
	.cfi_offset 7, -12
	pushl	%esi
	.cfi_def_cfa_offset 16
	.cfi_offset 6, -16
	pushl	%ebx
	.cfi_def_cfa_offset 20
	.cfi_offset 3, -20
	subl	$24, %esp
	.cfi_def_cfa_offset 44
	movl	48(%esp), %eax
	addl	56(%esp), %eax
	cmpl	%eax, 48(%esp)
	movl	60(%esp), %esi
	movl	%eax, (%esp)
	jge	.L1188
	movl	depthVESA, %eax
	movl	44(%esp), %ecx
	addl	52(%esp), %ecx
	movl	48(%esp), %ebp
	leal	7(%eax), %ebx
	testl	%eax, %eax
	cmovns	%eax, %ebx
	movl	widthVESA, %eax
	sarl	$3, %ebx
	imull	%ebx, %eax
	movl	%eax, %edx
	movl	%eax, 4(%esp)
	movl	44(%esp), %eax
	imull	48(%esp), %edx
	imull	%ebx, %eax
	addl	%edx, %eax
	addl	buff, %eax
	movl	%eax, %edi
	.align 16
.L1176:
	cmpl	%ecx, 44(%esp)
	jge	.L1178
	movl	44(%esp), %eax
	movl	%edi, %edx
	.align 16
.L1177:
	addl	$1, %eax
	movl	%esi, (%edx)
	addl	%ebx, %edx
	cmpl	%ecx, %eax
	jne	.L1177
.L1178:
	addl	$1, %ebp
	addl	4(%esp), %edi
	cmpl	(%esp), %ebp
	jne	.L1176
.L1175:
	movl	cx0, %edx
	movl	%ecx, %eax
	movl	%edx, 8(%esp)
	movl	8(%esp), %edx
	cmpl	%edx, 44(%esp)
	jl	.L1179
	movl	8(%esp), %edi
	movl	%edi, 44(%esp)
.L1179:
	movl	44(%esp), %edi
	movl	%edi, cx0
	movl	cx1, %edx
	movl	%edx, 12(%esp)
	movl	12(%esp), %edx
	cmpl	%ecx, %edx
	jl	.L1180
	movl	12(%esp), %eax
.L1180:
	movl	%eax, cx1
	movl	cy0, %eax
	movl	%eax, 16(%esp)
	movl	16(%esp), %eax
	cmpl	%eax, 48(%esp)
	jl	.L1181
	movl	16(%esp), %eax
	movl	%eax, 48(%esp)
.L1181:
	movl	48(%esp), %eax
	movl	%eax, cy0
	movl	cy1, %eax
	movl	%eax, 20(%esp)
	movl	20(%esp), %eax
	cmpl	(%esp), %eax
	jl	.L1182
	movl	20(%esp), %eax
	movl	%eax, (%esp)
.L1182:
	movl	(%esp), %eax
	movl	%eax, cy1
	addl	$24, %esp
	.cfi_remember_state
	.cfi_def_cfa_offset 20
	popl	%ebx
	.cfi_restore 3
	.cfi_def_cfa_offset 16
	popl	%esi
	.cfi_restore 6
	.cfi_def_cfa_offset 12
	popl	%edi
	.cfi_restore 7
	.cfi_def_cfa_offset 8
	popl	%ebp
	.cfi_restore 5
	.cfi_def_cfa_offset 4
	ret
.L1188:
	.cfi_restore_state
	movl	44(%esp), %eax
	movl	52(%esp), %edi
	leal	(%eax,%edi), %ecx
	jmp	.L1175
	.cfi_endproc
.LFE209:
	.size	RectD, .-RectD
	.comm	dbuff_run,4,4
	.globl	xa
	.section	.bss
	.align 4
	.type	xa, @object
	.size	xa, 4
xa:
	.zero	4
	.globl	xb
	.align 4
	.type	xb, @object
	.size	xb, 4
xb:
	.zero	4
	.globl	buffer
	.data
	.type	buffer, @object
	.size	buffer, 1
buffer:
	.byte	90
	.text
	.align 16
	.globl	memcpy_rep2
	.type	memcpy_rep2, @function
memcpy_rep2:
.LFB210:
	.cfi_startproc
	movl	12(%esp), %ecx
	movl	8(%esp), %eax
	movl	4(%esp), %edx
/APP
/  98 "Source/graphics/graphics.c" 1
	mov %eax, %eax;                mov %eax, %edi;                mov %edx, %eax;                mov %eax, %esi;                mov %ecx, %ecx;                cld;                rep movsd;
/  0 "" 2
/NO_APP
	ret
	.cfi_endproc
.LFE210:
	.size	memcpy_rep2, .-memcpy_rep2
	.align 16
	.globl	DBuff
	.type	DBuff, @function
DBuff:
.LFB211:
	.cfi_startproc
	pushl	%ebx
	.cfi_def_cfa_offset 8
	.cfi_offset 3, -8
	subl	$40, %esp
	.cfi_def_cfa_offset 48
	movl	buff, %eax
	movl	%eax, 28(%esp)
	movl	vga_mem, %eax
	movl	%eax, 24(%esp)
	movl	$0, 16(%esp)
	movl	depthVESA, %eax
	leal	7(%eax), %edx
	testl	%eax, %eax
	cmovs	%edx, %eax
	sarl	$3, %eax
	movl	%eax, 12(%esp)
	call	Enable_SSE
	movl	$0, 8(%esp)
	movl	$0, 4(%esp)
	jmp	.L1191
.L1192:
/APP
/  124 "Source/graphics/graphics.c" 1
	int $50
/  0 "" 2
/NO_APP
.L1191:
	movl	dbuff_run, %eax
	testl	%eax, %eax
	je	.L1192
/APP
/  126 "Source/graphics/graphics.c" 1
	cli
/  0 "" 2
/NO_APP
	movl	$0, dbuff_run
	movl	cx0, %eax
	imull	12(%esp), %eax
	movl	%eax, %edx
	movl	cy0, %eax
	imull	12(%esp), %eax
	movl	widthVESA, %ecx
	imull	%ecx, %eax
	addl	%edx, %eax
	shrl	$2, %eax
	movl	%eax, 16(%esp)
	movl	cx0, %eax
	movl	%eax, %edx
	shrl	$31, %edx
	addl	%edx, %eax
	sarl	%eax
	movl	%eax, cx0
	movl	cx1, %eax
	movl	%eax, %edx
	shrl	$31, %edx
	addl	%edx, %eax
	sarl	%eax
	movl	%eax, cx1
	movl	buff, %eax
	movl	16(%esp), %edx
	sall	$2, %edx
	addl	%edx, %eax
	movl	%eax, 28(%esp)
	movl	vga_mem, %eax
	movl	16(%esp), %edx
	sall	$2, %edx
	addl	%edx, %eax
	movl	%eax, 24(%esp)
	movl	cy1, %edx
	movl	cy0, %eax
	subl	%eax, %edx
	movl	%edx, %eax
	movl	%eax, 20(%esp)
	jmp	.L1193
.L1194:
	movl	cx1, %edx
	movl	cx0, %eax
	movl	%edx, %ecx
	subl	%eax, %ecx
	movl	24(%esp), %eax
	movl	28(%esp), %edx
	movl	%edx, %ebx
/APP
/  163 "Source/graphics/graphics.c" 1
	mov %eax, %edi;                    mov %ebx, %esi;                    rep movsd;
/  0 "" 2
/NO_APP
	addl	$2048, 24(%esp)
	addl	$2048, 28(%esp)
	subl	$1, 20(%esp)
.L1193:
	cmpl	$0, 20(%esp)
	jne	.L1194
	movl	$512, cx0
	movl	$512, cx1
	movl	$384, cy0
	movl	$384, cy1
/APP
/  176 "Source/graphics/graphics.c" 1
	int $50
/  0 "" 2
/NO_APP
	jmp	.L1191
	.cfi_endproc
.LFE211:
	.size	DBuff, .-DBuff
	.align 16
	.globl	RectL
	.type	RectL, @function
RectL:
.LFB212:
	.cfi_startproc
	pushl	%ebp
	.cfi_def_cfa_offset 8
	.cfi_offset 5, -8
	pushl	%edi
	.cfi_def_cfa_offset 12
	.cfi_offset 7, -12
	pushl	%esi
	.cfi_def_cfa_offset 16
	.cfi_offset 6, -16
	pushl	%ebx
	.cfi_def_cfa_offset 20
	.cfi_offset 3, -20
	subl	$48, %esp
	.cfi_def_cfa_offset 68
	movl	72(%esp), %eax
	movl	80(%esp), %ebx
	movl	76(%esp), %esi
	movl	84(%esp), %edi
	addl	%eax, %ebx
	cmpl	%ebx, %eax
	movl	%ebx, 16(%esp)
	jge	.L1196
	movl	depthVESA, %ecx
	movl	68(%esp), %ebx
	leal	7(%ecx), %edx
	addl	%esi, %ebx
	testl	%ecx, %ecx
	movl	%ebx, (%esp)
	movl	widthVESA, %ebx
	cmovns	%ecx, %edx
	movl	vesa_buff, %ecx
	sarl	$3, %edx
	movl	%edx, 4(%esp)
	movl	%ecx, 28(%esp)
	leal	-1(%esi), %ecx
	movl	4(%esp), %esi
	imull	%edx, %ebx
	movl	offset, %edx
	imull	%esi, %ecx
	movl	%ebx, %ebp
	movl	%ebx, 20(%esp)
	leal	1(%eax), %ebx
	movl	%ecx, 24(%esp)
	movl	68(%esp), %ecx
	imull	%ebp, %eax
	addl	24(%esp), %eax
	imull	%esi, %ecx
	addl	%ecx, %eax
	movl	%eax, 8(%esp)
	xorl	%eax, %eax
	.align 16
.L1198:
	movl	(%esp), %esi
	cmpl	68(%esp), %esi
	movl	%ebx, 12(%esp)
	jle	.L1206
	movl	8(%esp), %ecx
	subl	24(%esp), %ecx
	leal	-2(%ebx), %esi
	addl	28(%esp), %ecx
	movl	68(%esp), %eax
	.align 16
.L1203:
	movl	cx0, %ebp
	addl	$1, %eax
	movl	%edi, (%ecx)
	leal	-2(%eax), %edx
	movl	%ebp, 32(%esp)
	movl	32(%esp), %ebp
	cmpl	%edx, %ebp
	jg	.L1199
	movl	32(%esp), %edx
.L1199:
	movl	%edx, cx0
	movl	cx1, %edx
	movl	%edx, 36(%esp)
	movl	36(%esp), %ebp
	movl	%eax, %edx
	cmpl	%ebp, %eax
	jg	.L1200
	movl	36(%esp), %edx
.L1200:
	movl	%edx, cx1
	movl	cy0, %edx
	movl	%edx, 40(%esp)
	movl	40(%esp), %ebp
	movl	%esi, %edx
	cmpl	%esi, %ebp
	jg	.L1201
	movl	40(%esp), %edx
.L1201:
	movl	%edx, cy0
	movl	cy1, %edx
	movl	%edx, 44(%esp)
	movl	44(%esp), %ebp
	movl	%ebx, %edx
	cmpl	%ebp, %ebx
	jg	.L1202
	movl	44(%esp), %edx
.L1202:
	addl	4(%esp), %ecx
	cmpl	%eax, (%esp)
	movl	%edx, cy1
	jne	.L1203
	movl	8(%esp), %edx
	movl	$1, %eax
.L1206:
	movl	20(%esp), %ecx
	addl	$1, %ebx
	addl	%ecx, 8(%esp)
	movl	12(%esp), %ecx
	cmpl	%ecx, 16(%esp)
	jg	.L1198
	testb	%al, %al
	jne	.L1216
.L1196:
	addl	$48, %esp
	.cfi_remember_state
	.cfi_def_cfa_offset 20
	popl	%ebx
	.cfi_restore 3
	.cfi_def_cfa_offset 16
	popl	%esi
	.cfi_restore 6
	.cfi_def_cfa_offset 12
	popl	%edi
	.cfi_restore 7
	.cfi_def_cfa_offset 8
	popl	%ebp
	.cfi_restore 5
	.cfi_def_cfa_offset 4
	ret
.L1216:
	.cfi_restore_state
	movl	%edx, offset
	jmp	.L1196
	.cfi_endproc
.LFE212:
	.size	RectL, .-RectL
	.align 16
	.globl	Creater
	.type	Creater, @function
Creater:
.LFB213:
	.cfi_startproc
	pushl	%esi
	.cfi_def_cfa_offset 8
	.cfi_offset 6, -8
	pushl	%ebx
	.cfi_def_cfa_offset 12
	.cfi_offset 3, -12
	subl	$16, %esp
	.cfi_def_cfa_offset 28
	movl	depthVESA, %ebx
	movl	cx0, %esi
	movl	28(%esp), %edx
	movl	32(%esp), %ecx
	leal	7(%ebx), %eax
	movl	%esi, (%esp)
	movl	(%esp), %esi
	addl	%edx, %ecx
	testl	%ebx, %ebx
	cmovns	%ebx, %eax
	movl	widthVESA, %ebx
	sarl	$3, %eax
	imull	%eax, %ebx
	imull	%edx, %eax
	imull	%ecx, %ebx
	addl	%ebx, %eax
	movl	vesa_buff, %ebx
	movl	%eax, offset
	movl	$1000, (%ebx,%eax)
	leal	1(%edx), %ebx
	subl	$1, %edx
	leal	1(%ecx), %eax
	subl	$1, %ecx
	cmpl	%esi, %edx
	jl	.L1218
	movl	(%esp), %edx
.L1218:
	movl	%edx, cx0
	movl	cx1, %edx
	movl	%edx, 4(%esp)
	movl	4(%esp), %edx
	cmpl	%edx, %ebx
	jg	.L1219
	movl	4(%esp), %ebx
.L1219:
	movl	%ebx, cx1
	movl	cy0, %edx
	movl	%edx, 8(%esp)
	movl	8(%esp), %edx
	cmpl	%edx, %ecx
	jl	.L1220
	movl	8(%esp), %ecx
.L1220:
	movl	%ecx, cy0
	movl	cy1, %edx
	movl	%edx, 12(%esp)
	movl	12(%esp), %edx
	cmpl	%edx, %eax
	jg	.L1221
	movl	12(%esp), %eax
.L1221:
	movl	%eax, cy1
	addl	$16, %esp
	.cfi_def_cfa_offset 12
	popl	%ebx
	.cfi_restore 3
	.cfi_def_cfa_offset 8
	popl	%esi
	.cfi_restore 6
	.cfi_def_cfa_offset 4
	ret
	.cfi_endproc
.LFE213:
	.size	Creater, .-Creater
	.align 16
	.globl	Func_Plot
	.type	Func_Plot, @function
Func_Plot:
.LFB214:
	.cfi_startproc
	pushl	%ebp
	.cfi_def_cfa_offset 8
	.cfi_offset 5, -8
	pushl	%edi
	.cfi_def_cfa_offset 12
	.cfi_offset 7, -12
	pushl	%esi
	.cfi_def_cfa_offset 16
	.cfi_offset 6, -16
	pushl	%ebx
	.cfi_def_cfa_offset 20
	.cfi_offset 3, -20
	subl	$68, %esp
	.cfi_def_cfa_offset 88
	movl	88(%esp), %esi
	movl	96(%esp), %ebx
	movl	92(%esp), %ecx
	movl	100(%esp), %edx
	cmpl	%ebx, %esi
	movl	%ebx, %eax
	cmovle	%esi, %eax
	cmovge	%esi, %ebx
	cmpl	%ebx, %eax
	movl	%ebx, 40(%esp)
	jg	.L1223
	cmpl	%edx, %ecx
	movl	%edx, %ebx
	cmovle	%ecx, %ebx
	cmovge	%ecx, %edx
	movl	depthVESA, %ecx
	movl	%edx, (%esp)
	movl	%ebx, %esi
	movl	%ebx, 28(%esp)
	movl	widthVESA, %ebx
	leal	7(%ecx), %edx
	testl	%ecx, %ecx
	cmovns	%ecx, %edx
	sarl	$3, %edx
	imull	%edx, %ebx
	movl	%edx, %ecx
	movl	%edx, 44(%esp)
	imull	%eax, %ecx
	movl	%ebx, %edx
	movl	%ebx, 8(%esp)
	movl	offset, %ebx
	imull	%esi, %edx
	movl	%ebx, 20(%esp)
	movl	vesa_buff, %ebx
	addl	%ecx, %edx
	movl	%edx, 36(%esp)
	movl	%ebx, 24(%esp)
	leal	1(%eax), %ebx
	notl	%eax
	movl	%eax, 48(%esp)
	movl	%ebx, 12(%esp)
	movl	%esi, %ebx
	xorl	%esi, %esi
	notl	%ebx
	.align 16
.L1234:
	movl	(%esp), %edx
	cmpl	%edx, 28(%esp)
	jg	.L1245
	movl	12(%esp), %ecx
	movl	48(%esp), %edx
	movl	28(%esp), %eax
	addl	%ecx, %edx
	movl	%ecx, 32(%esp)
	subl	$2, %ecx
	movl	%edx, 4(%esp)
	addl	$1, %eax
	movl	36(%esp), %edx
	movl	%ecx, 16(%esp)
	jmp	.L1233
	.align 16
.L1246:
	movl	%eax, %ecx
	addl	8(%esp), %edx
	addl	$1, %eax
	cmpl	(%esp), %ecx
	jg	.L1226
.L1233:
	leal	(%ebx,%eax), %ecx
	cmpl	4(%esp), %ecx
	jne	.L1246
	movl	cx0, %ebp
	movl	16(%esp), %edi
	movl	24(%esp), %esi
	movl	104(%esp), %ecx
	movl	%edx, 20(%esp)
	movl	%ebp, 52(%esp)
	movl	52(%esp), %ebp
	movl	%ecx, (%esi,%edx)
	movl	%eax, %ecx
	leal	-2(%eax), %esi
	cmpl	%edi, %ebp
	jg	.L1229
	movl	52(%esp), %edi
.L1229:
	movl	%edi, cx0
	movl	cx1, %edi
	movl	%edi, 56(%esp)
	movl	12(%esp), %edi
	movl	56(%esp), %ebp
	cmpl	%edi, %ebp
	jl	.L1230
	movl	56(%esp), %edi
.L1230:
	movl	%edi, cx1
	movl	cy0, %edi
	movl	%edi, 60(%esp)
	movl	60(%esp), %edi
	cmpl	%esi, %edi
	jg	.L1231
	movl	60(%esp), %esi
.L1231:
	movl	%esi, cy0
	movl	cy1, %esi
	movl	%esi, 64(%esp)
	movl	64(%esp), %edi
	movl	%eax, %esi
	cmpl	%edi, %eax
	jg	.L1232
	movl	64(%esp), %esi
.L1232:
	addl	$1, %eax
	addl	8(%esp), %edx
	cmpl	(%esp), %ecx
	movl	%esi, cy1
	movl	$1, %esi
	jle	.L1233
.L1226:
	movl	44(%esp), %edx
	addl	$1, 12(%esp)
	addl	%edx, 36(%esp)
	movl	40(%esp), %edx
	cmpl	%edx, 32(%esp)
	jle	.L1234
	movl	%esi, %eax
	testb	%al, %al
	jne	.L1247
.L1223:
	addl	$68, %esp
	.cfi_remember_state
	.cfi_def_cfa_offset 20
	popl	%ebx
	.cfi_restore 3
	.cfi_def_cfa_offset 16
	popl	%esi
	.cfi_restore 6
	.cfi_def_cfa_offset 12
	popl	%edi
	.cfi_restore 7
	.cfi_def_cfa_offset 8
	popl	%ebp
	.cfi_restore 5
	.cfi_def_cfa_offset 4
	ret
.L1245:
	.cfi_restore_state
	movl	12(%esp), %eax
	movl	%eax, 32(%esp)
	jmp	.L1226
.L1247:
	movl	20(%esp), %eax
	movl	%eax, offset
	jmp	.L1223
	.cfi_endproc
.LFE214:
	.size	Func_Plot, .-Func_Plot
	.align 16
	.globl	line_plot
	.type	line_plot, @function
line_plot:
.LFB215:
	.cfi_startproc
	pushl	%ebp
	.cfi_def_cfa_offset 8
	.cfi_offset 5, -8
	pushl	%edi
	.cfi_def_cfa_offset 12
	.cfi_offset 7, -12
	pushl	%esi
	.cfi_def_cfa_offset 16
	.cfi_offset 6, -16
	pushl	%ebx
	.cfi_def_cfa_offset 20
	.cfi_offset 3, -20
	subl	$172, %esp
	.cfi_def_cfa_offset 192
	movl	200(%esp), %edx
	movl	204(%esp), %eax
	subl	192(%esp), %edx
	subl	196(%esp), %eax
	movl	%edx, %edi
	movl	%edx, %ecx
	cltd
	orl	$1, %edx
	sarl	$31, %ecx
	orl	$1, %ecx
	movl	%edx, %esi
	movl	%edx, 60(%esp)
	movl	%edi, %edx
	movl	%ecx, 56(%esp)
	imull	%ecx, %edx
	imull	%esi, %eax
	leal	1(%edx), %ecx
	addl	$1, %eax
	cmpl	%eax, %ecx
	movl	%ecx, 24(%esp)
	movl	%eax, 32(%esp)
	jge	.L1251
	testl	%eax, %eax
	jle	.L1248
	movl	depthVESA, %edx
	movl	%esi, %ecx
	movl	$0, 20(%esp)
	movl	$0, 36(%esp)
	leal	7(%edx), %eax
	testl	%edx, %edx
	cmovns	%edx, %eax
	movl	buff, %edx
	sarl	$3, %eax
	movl	%eax, %esi
	movl	%eax, 12(%esp)
	imull	widthVESA, %eax
	movl	%edx, 48(%esp)
	movzwl	208(%esp), %edx
	movw	%dx, (%esp)
	movl	%ecx, %edx
	imull	%eax, %edx
	imull	196(%esp), %eax
	movl	%edx, 64(%esp)
	movl	%eax, 40(%esp)
	movl	196(%esp), %eax
	leal	1(%eax), %edi
	movl	%esi, %eax
	addl	%eax, %eax
	movl	%eax, 68(%esp)
	movl	212(%esp), %eax
	movl	%edi, %esi
	subl	$1, %eax
	movl	%eax, 72(%esp)
	.align 16
.L1253:
	cmpl	$1, 212(%esp)
	movl	%esi, 44(%esp)
	leal	-2(%esi), %eax
	jle	.L1304
	movl	%eax, %edi
	movl	%eax, 28(%esp)
	movl	192(%esp), %eax
	movl	40(%esp), %ebx
	movl	48(%esp), %ebp
	leal	-1(%eax), %edx
	movl	%edx, 52(%esp)
	imull	12(%esp), %edx
	movl	%edx, %ecx
	movl	%ebx, %edx
	addl	%ecx, %edx
	addl	68(%esp), %ecx
	addl	%ebp, %edx
	movl	%edx, 4(%esp)
	movl	%eax, %edx
	subl	$2, %edx
	addl	%ebx, %ecx
	movl	72(%esp), %ebx
	addl	%ebp, %ecx
	movl	%ecx, 8(%esp)
	movl	%edi, %ecx
	addl	%eax, %ebx
	movl	%ebx, 16(%esp)
	.align 16
.L1280:
	movl	cx0, %ebp
	leal	2(%eax), %ebx
	movl	%eax, %edi
	movl	%ebp, 140(%esp)
	movl	140(%esp), %ebp
	cmpl	%ebp, %eax
	jl	.L1272
	movl	140(%esp), %edi
.L1272:
	movl	%edi, cx0
	movl	cx1, %edi
	movl	%edi, 144(%esp)
	movl	144(%esp), %edi
	cmpl	%ebx, %edi
	jl	.L1273
	movl	144(%esp), %ebx
.L1273:
	movl	%ebx, cx1
	movl	cy0, %ebx
	movl	%ebx, 148(%esp)
	movl	148(%esp), %edi
	movl	%ecx, %ebx
	cmpl	%ecx, %edi
	jg	.L1274
	movl	148(%esp), %ebx
.L1274:
	movl	%ebx, cy0
	movl	cy1, %ebx
	movl	%ebx, 152(%esp)
	movl	152(%esp), %edi
	movl	%esi, %ebx
	cmpl	%esi, %edi
	jl	.L1275
	movl	152(%esp), %ebx
.L1275:
	movl	%ebx, cy1
	movl	cx0, %ebp
	movzwl	(%esp), %ebx
	movl	8(%esp), %edi
	movl	%ebp, 124(%esp)
	movl	124(%esp), %ebp
	movw	%bx, (%edi)
	leal	2(%edx), %ebx
	movl	%edx, %edi
	cmpl	%ebp, %edx
	jl	.L1276
	movl	124(%esp), %edi
.L1276:
	movl	%edi, cx0
	movl	cx1, %edi
	movl	%edi, 128(%esp)
	movl	128(%esp), %edi
	cmpl	%ebx, %edi
	jl	.L1277
	movl	128(%esp), %ebx
.L1277:
	movl	%ebx, cx1
	movl	cy0, %ebx
	movl	%ebx, 132(%esp)
	movl	132(%esp), %edi
	movl	%ecx, %ebx
	cmpl	%ecx, %edi
	jg	.L1278
	movl	132(%esp), %ebx
.L1278:
	movl	%ebx, cy0
	movl	cy1, %ebx
	movl	%ebx, 136(%esp)
	movl	136(%esp), %edi
	movl	%esi, %ebx
	cmpl	%esi, %edi
	jl	.L1279
	movl	136(%esp), %ebx
.L1279:
	movzwl	(%esp), %edi
	movl	%ebx, cy1
	addl	$1, %eax
	movl	4(%esp), %ebx
	subl	$1, %edx
	movw	%di, (%ebx)
	movl	12(%esp), %edi
	addl	%edi, 8(%esp)
	subl	%edi, %ebx
	cmpl	16(%esp), %eax
	movl	%ebx, 4(%esp)
	jne	.L1280
.L1287:
	movl	cx0, %ecx
	movl	12(%esp), %ebx
	movl	192(%esp), %eax
	movl	52(%esp), %edx
	imull	192(%esp), %ebx
	movl	%ecx, 156(%esp)
	movl	156(%esp), %ecx
	addl	$1, %eax
	addl	40(%esp), %ebx
	cmpl	%ecx, %edx
	jl	.L1281
	movl	156(%esp), %edx
.L1281:
	movl	%edx, cx0
	movl	cx1, %edx
	movl	%edx, 160(%esp)
	movl	160(%esp), %edx
	cmpl	%edx, %eax
	jg	.L1282
	movl	160(%esp), %eax
.L1282:
	movl	%eax, cx1
	movl	cy0, %eax
	movl	%eax, 164(%esp)
	movl	164(%esp), %eax
	cmpl	28(%esp), %eax
	jg	.L1283
	movl	164(%esp), %eax
	movl	%eax, 28(%esp)
.L1283:
	movl	28(%esp), %eax
	movl	%eax, cy0
	movl	cy1, %eax
	movl	%eax, 168(%esp)
	movl	168(%esp), %eax
	cmpl	%esi, %eax
	jl	.L1284
	movl	168(%esp), %eax
	movl	%eax, 44(%esp)
.L1284:
	movl	44(%esp), %eax
	movzwl	(%esp), %ecx
	movl	%eax, cy1
	movl	48(%esp), %eax
	movw	%cx, (%eax,%ebx)
	movl	24(%esp), %ecx
	addl	%ecx, 20(%esp)
	movl	32(%esp), %ecx
	movl	20(%esp), %eax
	cmpl	%eax, %ecx
	jg	.L1285
	subl	%ecx, %eax
	movl	%eax, 20(%esp)
	movl	56(%esp), %eax
	addl	%eax, 192(%esp)
.L1285:
	addl	$1, 36(%esp)
	movl	64(%esp), %edx
	movl	36(%esp), %eax
	addl	%edx, 40(%esp)
	addl	60(%esp), %esi
	cmpl	32(%esp), %eax
	jne	.L1253
.L1248:
	addl	$172, %esp
	.cfi_remember_state
	.cfi_def_cfa_offset 20
	popl	%ebx
	.cfi_restore 3
	.cfi_def_cfa_offset 16
	popl	%esi
	.cfi_restore 6
	.cfi_def_cfa_offset 12
	popl	%edi
	.cfi_restore 7
	.cfi_def_cfa_offset 8
	popl	%ebp
	.cfi_restore 5
	.cfi_def_cfa_offset 4
	ret
.L1251:
	.cfi_restore_state
	movl	24(%esp), %eax
	testl	%eax, %eax
	jle	.L1248
	movl	depthVESA, %edx
	movl	widthVESA, %ecx
	movl	$0, 36(%esp)
	movl	$0, 28(%esp)
	leal	7(%edx), %eax
	testl	%edx, %edx
	cmovns	%edx, %eax
	movl	buff, %edx
	sarl	$3, %eax
	imull	%eax, %ecx
	movl	%edx, 44(%esp)
	movzwl	208(%esp), %edx
	movl	%ecx, 16(%esp)
	movw	%dx, 4(%esp)
	movl	56(%esp), %edx
	imull	%eax, %edx
	imull	192(%esp), %eax
	movl	%edx, 48(%esp)
	movl	%eax, 40(%esp)
	movl	192(%esp), %eax
	leal	-1(%eax), %edi
	leal	(%ecx,%ecx), %eax
	movl	%eax, 52(%esp)
	movl	$1, %eax
	subl	212(%esp), %eax
	movl	%edi, %ecx
	movl	%eax, 64(%esp)
	.align 16
.L1271:
	movl	16(%esp), %esi
	movl	40(%esp), %eax
	imull	196(%esp), %esi
	movl	cx0, %edx
	movl	%edx, 76(%esp)
	movl	76(%esp), %ebp
	movl	%ecx, %edx
	leal	(%eax,%esi), %edi
	movl	196(%esp), %eax
	leal	1(%eax), %ebx
	leal	2(%ecx), %eax
	movl	%eax, (%esp)
	movl	196(%esp), %eax
	subl	$1, %eax
	cmpl	%ebp, %ecx
	jl	.L1254
	movl	76(%esp), %edx
.L1254:
	movl	%edx, cx0
	movl	cx1, %edx
	movl	%edx, 80(%esp)
	movl	80(%esp), %ebp
	leal	2(%ecx), %edx
	cmpl	(%esp), %ebp
	jl	.L1255
	movl	80(%esp), %edx
.L1255:
	movl	%edx, cx1
	movl	cy0, %edx
	movl	%edx, 84(%esp)
	movl	84(%esp), %edx
	cmpl	%edx, %eax
	jl	.L1256
	movl	84(%esp), %eax
.L1256:
	movl	%eax, cy0
	movl	cy1, %eax
	movl	%eax, 88(%esp)
	movl	88(%esp), %eax
	cmpl	%eax, %ebx
	jg	.L1257
	movl	88(%esp), %ebx
.L1257:
	movzwl	4(%esp), %edx
	cmpl	$1, 212(%esp)
	movl	44(%esp), %eax
	movl	%ebx, cy1
	movw	%dx, (%eax,%edi)
	jle	.L1270
	subl	16(%esp), %esi
	movl	40(%esp), %edi
	movl	44(%esp), %ebx
	movl	196(%esp), %eax
	movl	%edi, %edx
	addl	%esi, %edx
	addl	52(%esp), %esi
	addl	%ebx, %edx
	movl	%edx, 12(%esp)
	movl	%edi, %edx
	addl	%esi, %edx
	addl	%ebx, %edx
	movl	%edx, 8(%esp)
	movl	64(%esp), %edx
	addl	%eax, %edx
	movl	%edx, 20(%esp)
	movl	%eax, %edx
	.align 16
.L1269:
	movl	cx0, %edi
	leal	2(%edx), %ebx
	movl	%edx, %esi
	movl	%edi, 108(%esp)
	movl	108(%esp), %ebp
	movl	%ecx, %edi
	cmpl	%ebp, %ecx
	jl	.L1261
	movl	108(%esp), %edi
.L1261:
	movl	%edi, cx0
	movl	cx1, %edi
	movl	%edi, 112(%esp)
	movl	(%esp), %edi
	movl	112(%esp), %ebp
	cmpl	%edi, %ebp
	jl	.L1262
	movl	112(%esp), %edi
.L1262:
	movl	%edi, cx1
	movl	cy0, %edi
	movl	%edi, 116(%esp)
	movl	116(%esp), %edi
	cmpl	%edi, %edx
	jl	.L1263
	movl	116(%esp), %esi
.L1263:
	movl	%esi, cy0
	movl	cy1, %esi
	movl	%esi, 120(%esp)
	movl	120(%esp), %esi
	cmpl	%esi, %ebx
	jg	.L1264
	movl	120(%esp), %ebx
.L1264:
	movzwl	4(%esp), %edi
	movl	8(%esp), %esi
	movl	%ebx, cy1
	leal	-2(%eax), %ebx
	movw	%di, (%esi)
	movl	cx0, %edi
	movl	%eax, %esi
	movl	%edi, 92(%esp)
	movl	92(%esp), %ebp
	movl	%ecx, %edi
	cmpl	%ebp, %ecx
	jl	.L1265
	movl	92(%esp), %edi
.L1265:
	movl	%edi, cx0
	movl	cx1, %edi
	movl	%edi, 96(%esp)
	movl	(%esp), %edi
	movl	96(%esp), %ebp
	cmpl	%edi, %ebp
	jl	.L1266
	movl	96(%esp), %edi
.L1266:
	movl	%edi, cx1
	movl	cy0, %edi
	movl	%edi, 100(%esp)
	movl	100(%esp), %edi
	cmpl	%edi, %ebx
	jl	.L1267
	movl	100(%esp), %ebx
.L1267:
	movl	%ebx, cy0
	movl	cy1, %ebx
	movl	%ebx, 104(%esp)
	movl	104(%esp), %ebx
	cmpl	%ebx, %eax
	jg	.L1268
	movl	104(%esp), %esi
.L1268:
	movzwl	4(%esp), %ebx
	movl	%esi, cy1
	subl	$1, %eax
	movl	12(%esp), %esi
	addl	$1, %edx
	movw	%bx, (%esi)
	movl	16(%esp), %ebx
	addl	%ebx, 8(%esp)
	subl	%ebx, %esi
	cmpl	%eax, 20(%esp)
	movl	%esi, 12(%esp)
	jne	.L1269
.L1270:
	movl	32(%esp), %edx
	addl	%edx, 28(%esp)
	movl	28(%esp), %eax
	cmpl	%eax, 24(%esp)
	jg	.L1260
	movl	24(%esp), %edx
	movl	60(%esp), %eax
	subl	%edx, 28(%esp)
	addl	%eax, 196(%esp)
.L1260:
	movl	48(%esp), %esi
	addl	56(%esp), %ecx
	addl	$1, 36(%esp)
	addl	%esi, 40(%esp)
	movl	36(%esp), %eax
	cmpl	24(%esp), %eax
	jne	.L1271
	addl	$172, %esp
	.cfi_remember_state
	.cfi_def_cfa_offset 20
	popl	%ebx
	.cfi_restore 3
	.cfi_def_cfa_offset 16
	popl	%esi
	.cfi_restore 6
	.cfi_def_cfa_offset 12
	popl	%edi
	.cfi_restore 7
	.cfi_def_cfa_offset 8
	popl	%ebp
	.cfi_restore 5
	.cfi_def_cfa_offset 4
	ret
.L1304:
	.cfi_restore_state
	movl	%eax, 28(%esp)
	movl	192(%esp), %eax
	subl	$1, %eax
	movl	%eax, 52(%esp)
	jmp	.L1287
	.cfi_endproc
.LFE215:
	.size	line_plot, .-line_plot
	.align 16
	.globl	line_fast
	.type	line_fast, @function
line_fast:
.LFB216:
	.cfi_startproc
	pushl	%ebp
	.cfi_def_cfa_offset 8
	.cfi_offset 5, -8
	pushl	%edi
	.cfi_def_cfa_offset 12
	.cfi_offset 7, -12
	pushl	%esi
	.cfi_def_cfa_offset 16
	.cfi_offset 6, -16
	pushl	%ebx
	.cfi_def_cfa_offset 20
	.cfi_offset 3, -20
	xorl	%ebx, %ebx
	subl	$172, %esp
	.cfi_def_cfa_offset 192
	movl	200(%esp), %eax
	subl	192(%esp), %eax
	movl	204(%esp), %edx
	subl	196(%esp), %edx
	movl	%eax, %ecx
	sarl	$31, %ecx
	movl	%ecx, %esi
	xorl	%eax, %esi
	subl	%ecx, %esi
	movl	%edx, %ecx
	sarl	$31, %ecx
	movl	%esi, 32(%esp)
	movl	%ecx, %edi
	xorl	%edx, %edi
	subl	%ecx, %edi
	cmpl	$0, %eax
	movl	$-1, %ecx
	setg	%bl
	testl	%eax, %eax
	movl	%edi, 28(%esp)
	cmovns	%ebx, %ecx
	movl	%ecx, %ebx
	movl	%ecx, 60(%esp)
	xorl	%ecx, %ecx
	cmpl	$0, %edx
	setg	%cl
	testl	%edx, %edx
	movl	$-1, %edx
	cmovns	%ecx, %edx
	cmpl	%edi, %esi
	movl	%edx, 56(%esp)
	jl	.L1308
	testl	%eax, %eax
	je	.L1305
	movl	depthVESA, %edx
	sarl	%esi
	movl	widthVESA, %ecx
	movl	%esi, 24(%esp)
	movl	$0, 36(%esp)
	leal	7(%edx), %eax
	testl	%edx, %edx
	cmovns	%edx, %eax
	movl	192(%esp), %edx
	sarl	$3, %eax
	imull	%eax, %ecx
	addl	%ebx, %edx
	leal	1(%edx), %edi
	movl	%ecx, %esi
	movl	%ecx, 16(%esp)
	movl	buff, %ecx
	imull	%eax, %edx
	movl	%ecx, 44(%esp)
	movzwl	208(%esp), %ecx
	movl	%edx, 40(%esp)
	movw	%cx, 4(%esp)
	movl	%ebx, %ecx
	imull	%eax, %ecx
	leal	(%esi,%esi), %eax
	movl	%eax, 52(%esp)
	movl	$1, %eax
	subl	212(%esp), %eax
	movl	%ecx, 48(%esp)
	movl	%edi, %ecx
	movl	%eax, 64(%esp)
	.align 16
.L1316:
	movl	28(%esp), %edx
	addl	%edx, 24(%esp)
	movl	24(%esp), %eax
	movl	32(%esp), %edx
	cmpl	%eax, %edx
	jg	.L1310
	subl	%edx, %eax
	movl	%eax, 24(%esp)
	movl	56(%esp), %eax
	addl	%eax, 196(%esp)
.L1310:
	movl	16(%esp), %esi
	leal	-2(%ecx), %edx
	movl	40(%esp), %eax
	imull	196(%esp), %esi
	movl	%edx, (%esp)
	movl	cx0, %edx
	movl	%edx, 76(%esp)
	movl	76(%esp), %ebp
	leal	-2(%ecx), %edx
	leal	(%eax,%esi), %edi
	movl	196(%esp), %eax
	leal	1(%eax), %ebx
	subl	$1, %eax
	cmpl	%edx, %ebp
	jg	.L1311
	movl	76(%esp), %edx
.L1311:
	movl	%edx, cx0
	movl	cx1, %edx
	movl	%edx, 80(%esp)
	movl	80(%esp), %ebp
	movl	%ecx, %edx
	cmpl	%ebp, %ecx
	jg	.L1312
	movl	80(%esp), %edx
.L1312:
	movl	%edx, cx1
	movl	cy0, %edx
	movl	%edx, 84(%esp)
	movl	84(%esp), %edx
	cmpl	%edx, %eax
	jl	.L1313
	movl	84(%esp), %eax
.L1313:
	movl	%eax, cy0
	movl	cy1, %eax
	movl	%eax, 88(%esp)
	movl	88(%esp), %eax
	cmpl	%eax, %ebx
	jg	.L1314
	movl	88(%esp), %ebx
.L1314:
	movzwl	4(%esp), %edx
	cmpl	$1, 212(%esp)
	movl	44(%esp), %eax
	movl	%ebx, cy1
	movw	%dx, (%eax,%edi)
	jle	.L1327
	subl	16(%esp), %esi
	movl	40(%esp), %edi
	movl	44(%esp), %ebx
	movl	196(%esp), %eax
	movl	%edi, %edx
	addl	%esi, %edx
	addl	52(%esp), %esi
	addl	%ebx, %edx
	movl	%edx, 12(%esp)
	movl	%edi, %edx
	addl	%esi, %edx
	addl	%ebx, %edx
	movl	%edx, 8(%esp)
	movl	64(%esp), %edx
	addl	%eax, %edx
	movl	%edx, 20(%esp)
	movl	%eax, %edx
	.align 16
.L1326:
	movl	cx0, %edi
	leal	2(%edx), %ebx
	movl	%edx, %esi
	movl	%edi, 108(%esp)
	movl	(%esp), %edi
	movl	108(%esp), %ebp
	cmpl	%edi, %ebp
	jg	.L1318
	movl	108(%esp), %edi
.L1318:
	movl	%edi, cx0
	movl	cx1, %edi
	movl	%edi, 112(%esp)
	movl	112(%esp), %ebp
	movl	%ecx, %edi
	cmpl	%ebp, %ecx
	jg	.L1319
	movl	112(%esp), %edi
.L1319:
	movl	%edi, cx1
	movl	cy0, %edi
	movl	%edi, 116(%esp)
	movl	116(%esp), %edi
	cmpl	%edi, %edx
	jl	.L1320
	movl	116(%esp), %esi
.L1320:
	movl	%esi, cy0
	movl	cy1, %esi
	movl	%esi, 120(%esp)
	movl	120(%esp), %esi
	cmpl	%esi, %ebx
	jg	.L1321
	movl	120(%esp), %ebx
.L1321:
	movzwl	4(%esp), %edi
	movl	8(%esp), %esi
	movl	%ebx, cy1
	leal	-2(%eax), %ebx
	movw	%di, (%esi)
	movl	cx0, %edi
	movl	%eax, %esi
	movl	%edi, 92(%esp)
	movl	(%esp), %edi
	movl	92(%esp), %ebp
	cmpl	%edi, %ebp
	jg	.L1322
	movl	92(%esp), %edi
.L1322:
	movl	%edi, cx0
	movl	cx1, %edi
	movl	%edi, 96(%esp)
	movl	96(%esp), %ebp
	movl	%ecx, %edi
	cmpl	%ebp, %ecx
	jg	.L1323
	movl	96(%esp), %edi
.L1323:
	movl	%edi, cx1
	movl	cy0, %edi
	movl	%edi, 100(%esp)
	movl	100(%esp), %edi
	cmpl	%edi, %ebx
	jl	.L1324
	movl	100(%esp), %ebx
.L1324:
	movl	%ebx, cy0
	movl	cy1, %ebx
	movl	%ebx, 104(%esp)
	movl	104(%esp), %ebx
	cmpl	%ebx, %eax
	jg	.L1325
	movl	104(%esp), %esi
.L1325:
	movzwl	4(%esp), %ebx
	movl	%esi, cy1
	subl	$1, %eax
	movl	12(%esp), %esi
	addl	$1, %edx
	movw	%bx, (%esi)
	movl	16(%esp), %ebx
	addl	%ebx, 8(%esp)
	subl	%ebx, %esi
	cmpl	%eax, 20(%esp)
	movl	%esi, 12(%esp)
	jne	.L1326
.L1327:
	addl	$1, 36(%esp)
	addl	60(%esp), %ecx
	movl	36(%esp), %eax
	movl	48(%esp), %esi
	addl	%esi, 40(%esp)
	cmpl	%eax, 32(%esp)
	jne	.L1316
.L1305:
	addl	$172, %esp
	.cfi_remember_state
	.cfi_def_cfa_offset 20
	popl	%ebx
	.cfi_restore 3
	.cfi_def_cfa_offset 16
	popl	%esi
	.cfi_restore 6
	.cfi_def_cfa_offset 12
	popl	%edi
	.cfi_restore 7
	.cfi_def_cfa_offset 8
	popl	%ebp
	.cfi_restore 5
	.cfi_def_cfa_offset 4
	ret
.L1308:
	.cfi_restore_state
	movl	28(%esp), %eax
	movl	depthVESA, %edx
	movl	buff, %ecx
	movl	56(%esp), %esi
	movl	$0, 36(%esp)
	sarl	%eax
	testl	%edx, %edx
	movl	%eax, 20(%esp)
	leal	7(%edx), %eax
	movl	%ecx, 48(%esp)
	movzwl	208(%esp), %ecx
	cmovns	%edx, %eax
	movl	widthVESA, %edx
	sarl	$3, %eax
	movl	%eax, 12(%esp)
	imull	%eax, %edx
	movw	%cx, (%esp)
	movl	%eax, %ecx
	movl	%esi, %eax
	imull	%edx, %eax
	movl	%eax, 64(%esp)
	movl	196(%esp), %eax
	addl	%esi, %eax
	imull	%eax, %edx
	leal	1(%eax), %edi
	leal	(%ecx,%ecx), %eax
	movl	%eax, 68(%esp)
	movl	212(%esp), %eax
	movl	%edi, %esi
	movl	%edx, 40(%esp)
	subl	$1, %eax
	movl	%eax, 72(%esp)
	.align 16
.L1344:
	movl	32(%esp), %ecx
	addl	%ecx, 20(%esp)
	movl	20(%esp), %eax
	movl	28(%esp), %ecx
	cmpl	%eax, %ecx
	jg	.L1328
	subl	%ecx, %eax
	movl	%eax, 20(%esp)
	movl	60(%esp), %eax
	addl	%eax, 192(%esp)
.L1328:
	cmpl	$1, 212(%esp)
	movl	%esi, 44(%esp)
	leal	-2(%esi), %eax
	jle	.L1362
	movl	%eax, %edi
	movl	%eax, 24(%esp)
	movl	192(%esp), %eax
	movl	40(%esp), %ebx
	movl	48(%esp), %ebp
	leal	-1(%eax), %edx
	movl	%edx, 52(%esp)
	imull	12(%esp), %edx
	movl	%edx, %ecx
	movl	%ebx, %edx
	addl	%ecx, %edx
	addl	68(%esp), %ecx
	addl	%ebp, %edx
	movl	%edx, 4(%esp)
	movl	%eax, %edx
	subl	$2, %edx
	addl	%ebx, %ecx
	movl	72(%esp), %ebx
	addl	%ebp, %ecx
	movl	%ecx, 8(%esp)
	movl	%edi, %ecx
	addl	%eax, %ebx
	movl	%ebx, 16(%esp)
	.align 16
.L1339:
	movl	cx0, %ebp
	leal	2(%eax), %ebx
	movl	%eax, %edi
	movl	%ebp, 140(%esp)
	movl	140(%esp), %ebp
	cmpl	%ebp, %eax
	jl	.L1331
	movl	140(%esp), %edi
.L1331:
	movl	%edi, cx0
	movl	cx1, %edi
	movl	%edi, 144(%esp)
	movl	144(%esp), %edi
	cmpl	%ebx, %edi
	jl	.L1332
	movl	144(%esp), %ebx
.L1332:
	movl	%ebx, cx1
	movl	cy0, %ebx
	movl	%ebx, 148(%esp)
	movl	148(%esp), %edi
	movl	%ecx, %ebx
	cmpl	%ecx, %edi
	jg	.L1333
	movl	148(%esp), %ebx
.L1333:
	movl	%ebx, cy0
	movl	cy1, %ebx
	movl	%ebx, 152(%esp)
	movl	152(%esp), %edi
	movl	%esi, %ebx
	cmpl	%esi, %edi
	jl	.L1334
	movl	152(%esp), %ebx
.L1334:
	movl	%ebx, cy1
	movl	cx0, %ebp
	movzwl	(%esp), %ebx
	movl	8(%esp), %edi
	movl	%ebp, 124(%esp)
	movl	124(%esp), %ebp
	movw	%bx, (%edi)
	leal	2(%edx), %ebx
	movl	%edx, %edi
	cmpl	%ebp, %edx
	jl	.L1335
	movl	124(%esp), %edi
.L1335:
	movl	%edi, cx0
	movl	cx1, %edi
	movl	%edi, 128(%esp)
	movl	128(%esp), %edi
	cmpl	%ebx, %edi
	jl	.L1336
	movl	128(%esp), %ebx
.L1336:
	movl	%ebx, cx1
	movl	cy0, %ebx
	movl	%ebx, 132(%esp)
	movl	132(%esp), %edi
	movl	%ecx, %ebx
	cmpl	%ecx, %edi
	jg	.L1337
	movl	132(%esp), %ebx
.L1337:
	movl	%ebx, cy0
	movl	cy1, %ebx
	movl	%ebx, 136(%esp)
	movl	136(%esp), %edi
	movl	%esi, %ebx
	cmpl	%esi, %edi
	jl	.L1338
	movl	136(%esp), %ebx
.L1338:
	movzwl	(%esp), %edi
	movl	%ebx, cy1
	addl	$1, %eax
	movl	4(%esp), %ebx
	subl	$1, %edx
	movw	%di, (%ebx)
	movl	12(%esp), %edi
	addl	%edi, 8(%esp)
	subl	%edi, %ebx
	cmpl	%eax, 16(%esp)
	movl	%ebx, 4(%esp)
	jne	.L1339
.L1330:
	movl	cx0, %ecx
	movl	12(%esp), %ebx
	movl	192(%esp), %eax
	movl	52(%esp), %edx
	imull	192(%esp), %ebx
	movl	%ecx, 156(%esp)
	movl	156(%esp), %ecx
	addl	$1, %eax
	addl	40(%esp), %ebx
	cmpl	%ecx, %edx
	jl	.L1340
	movl	156(%esp), %edx
.L1340:
	movl	%edx, cx0
	movl	cx1, %edx
	movl	%edx, 160(%esp)
	movl	160(%esp), %edx
	cmpl	%edx, %eax
	jg	.L1341
	movl	160(%esp), %eax
.L1341:
	movl	%eax, cx1
	movl	cy0, %eax
	movl	%eax, 164(%esp)
	movl	164(%esp), %eax
	cmpl	24(%esp), %eax
	jg	.L1342
	movl	164(%esp), %eax
	movl	%eax, 24(%esp)
.L1342:
	movl	24(%esp), %eax
	movl	%eax, cy0
	movl	cy1, %eax
	movl	%eax, 168(%esp)
	movl	168(%esp), %eax
	cmpl	%esi, %eax
	jl	.L1343
	movl	168(%esp), %eax
	movl	%eax, 44(%esp)
.L1343:
	movl	44(%esp), %eax
	movzwl	(%esp), %ecx
	addl	$1, 36(%esp)
	movl	64(%esp), %edx
	addl	56(%esp), %esi
	addl	%edx, 40(%esp)
	movl	%eax, cy1
	movl	48(%esp), %eax
	movw	%cx, (%eax,%ebx)
	movl	36(%esp), %eax
	cmpl	%eax, 28(%esp)
	jne	.L1344
	addl	$172, %esp
	.cfi_remember_state
	.cfi_def_cfa_offset 20
	popl	%ebx
	.cfi_restore 3
	.cfi_def_cfa_offset 16
	popl	%esi
	.cfi_restore 6
	.cfi_def_cfa_offset 12
	popl	%edi
	.cfi_restore 7
	.cfi_def_cfa_offset 8
	popl	%ebp
	.cfi_restore 5
	.cfi_def_cfa_offset 4
	ret
.L1362:
	.cfi_restore_state
	movl	%eax, 24(%esp)
	movl	192(%esp), %eax
	subl	$1, %eax
	movl	%eax, 52(%esp)
	jmp	.L1330
	.cfi_endproc
.LFE216:
	.size	line_fast, .-line_fast
	.align 16
	.globl	Mouse_Plot
	.type	Mouse_Plot, @function
Mouse_Plot:
.LFB217:
	.cfi_startproc
	pushl	%ebp
	.cfi_def_cfa_offset 8
	.cfi_offset 5, -8
	pushl	%edi
	.cfi_def_cfa_offset 12
	.cfi_offset 7, -12
	pushl	%esi
	.cfi_def_cfa_offset 16
	.cfi_offset 6, -16
	pushl	%ebx
	.cfi_def_cfa_offset 20
	.cfi_offset 3, -20
	subl	$64, %esp
	.cfi_def_cfa_offset 84
	movl	depthVESA, %edx
	leal	7(%edx), %eax
	testl	%edx, %edx
	cmovns	%edx, %eax
	sarl	$3, %eax
	movl	%eax, 4(%esp)
.L1388:
	call	mouse_handler
/APP
/  371 "Source/graphics/graphics.c" 1
	int $50
/  0 "" 2
/  372 "Source/graphics/graphics.c" 1
	cli
/  0 "" 2
/NO_APP
	movl	widthVESA, %eax
	movl	mouse_buff, %edi
	movl	$-2, %esi
	movl	$20, %ebx
	movl	%eax, 12(%esp)
	movl	buff, %eax
	movl	%eax, (%esp)
	.align 16
.L1366:
	movl	mousey, %edx
	movl	mousex, %eax
	addl	%ebx, %edx
	imull	12(%esp), %edx
	addl	%eax, %edx
	imull	4(%esp), %edx
	leal	(%edi,%edx), %ecx
	addl	(%esp), %edx
	cmpl	$12, %ebx
	jg	.L1364
	leal	(%ebx,%ebx), %ebp
	xorl	%eax, %eax
	movl	%ebx, 8(%esp)
	.align 16
.L1365:
	movzwl	(%ecx,%eax), %ebx
	movw	%bx, (%edx,%eax)
	addl	$2, %eax
	cmpl	%ebp, %eax
	jne	.L1365
.L1402:
	movl	8(%esp), %ebx
.L1368:
	addl	$1, %esi
	subl	$1, %ebx
	jne	.L1366
	movl	mousey, %esi
	movl	mousex, %eax
	movl	mousey, %ebx
	movl	mousex, %edx
	movl	cx0, %ecx
	addl	$25, %esi
	addl	$25, %eax
	subl	$5, %edx
	subl	$5, %ebx
	movl	%ecx, 32(%esp)
	movl	32(%esp), %ecx
	cmpl	%ecx, %edx
	jl	.L1370
	movl	32(%esp), %edx
.L1370:
	movl	%edx, cx0
	movl	cx1, %edx
	movl	%edx, 36(%esp)
	movl	36(%esp), %edx
	cmpl	%edx, %eax
	jg	.L1371
	movl	36(%esp), %eax
.L1371:
	movl	%eax, cx1
	movl	cy0, %eax
	movl	%eax, 40(%esp)
	movl	40(%esp), %eax
	cmpl	%eax, %ebx
	jl	.L1372
	movl	40(%esp), %ebx
.L1372:
	movl	%ebx, cy0
	movl	cy1, %eax
	movl	%eax, 44(%esp)
	movl	44(%esp), %eax
	cmpl	%eax, %esi
	jg	.L1373
	movl	44(%esp), %esi
.L1373:
	movl	%esi, cy1
	movl	mousedeltax, %eax
	movl	mousex, %edx
	addl	%edx, %eax
	movl	%eax, mousex
	movl	mousedeltay, %edx
	movl	mousey, %eax
	subl	%edx, %eax
	movl	%eax, mousey
	movl	mousex, %eax
	movl	%eax, 20(%esp)
	movl	20(%esp), %edx
	xorl	%eax, %eax
	testl	%edx, %edx
	js	.L1374
	movl	20(%esp), %eax
.L1374:
	movl	%eax, 16(%esp)
	movl	12(%esp), %esi
	movl	16(%esp), %edx
	movl	%esi, %eax
	cmpl	%edx, %esi
	jl	.L1375
	movl	16(%esp), %eax
.L1375:
	movl	%eax, mousex
	movl	mousey, %eax
	movl	%eax, 28(%esp)
	movl	28(%esp), %edx
	xorl	%eax, %eax
	testl	%edx, %edx
	js	.L1376
	movl	28(%esp), %eax
.L1376:
	movl	%eax, 24(%esp)
	movl	heightVESA, %eax
	movl	24(%esp), %edx
	cmpl	%edx, %eax
	jl	.L1377
	movl	24(%esp), %eax
.L1377:
	movl	%eax, mousey
	movl	mousey, %esi
	movl	mousex, %eax
	movl	mousey, %ebx
	movl	mousex, %edx
	movl	cx0, %ecx
	addl	$25, %esi
	addl	$25, %eax
	subl	$5, %ebx
	movl	%ecx, 48(%esp)
	movl	48(%esp), %ecx
	subl	$5, %edx
	cmpl	%ecx, %edx
	jl	.L1378
	movl	48(%esp), %edx
.L1378:
	movl	%edx, cx0
	movl	cx1, %edx
	movl	%edx, 52(%esp)
	movl	52(%esp), %edx
	cmpl	%edx, %eax
	jg	.L1379
	movl	52(%esp), %eax
.L1379:
	movl	%eax, cx1
	movl	cy0, %eax
	movl	%eax, 56(%esp)
	movl	56(%esp), %eax
	cmpl	%eax, %ebx
	jl	.L1380
	movl	56(%esp), %ebx
.L1380:
	movl	%ebx, cy0
	movl	cy1, %eax
	movl	%eax, 60(%esp)
	movl	60(%esp), %eax
	cmpl	%eax, %esi
	jg	.L1381
	movl	60(%esp), %esi
.L1381:
	movl	12(%esp), %ebp
	movl	%esi, cy1
	movl	$20, %ebx
	movl	$-2, %esi
	.align 16
.L1384:
	movl	mousey, %eax
	movl	mousex, %edx
	addl	%ebx, %eax
	imull	%ebp, %eax
	addl	%edx, %eax
	imull	4(%esp), %eax
	leal	(%edi,%eax), %edx
	addl	(%esp), %eax
	cmpl	$12, %ebx
	jg	.L1382
	leal	(%edx,%ebx,2), %ecx
	movl	%ebx, 8(%esp)
	.align 16
.L1383:
	movzwl	(%eax), %ebx
	addl	$2, %edx
	addl	$2, %eax
	cmpl	%edx, %ecx
	movw	%bx, -2(%edx)
	movl	$-1, %ebx
	movw	%bx, -2(%eax)
	jne	.L1383
.L1403:
	movl	8(%esp), %ebx
.L1386:
	addl	$1, %esi
	subl	$1, %ebx
	jne	.L1384
	movl	$0, mousedeltax
	movl	$0, mousedeltay
/APP
/  437 "Source/graphics/graphics.c" 1
	int $50
/  0 "" 2
/NO_APP
	jmp	.L1388
	.align 16
.L1382:
	testl	%esi, %esi
	jle	.L1386
	leal	(%edx,%esi,2), %ecx
	movl	%ebx, 8(%esp)
	.align 16
.L1387:
	movzwl	(%eax), %ebx
	addl	$2, %edx
	addl	$2, %eax
	cmpl	%ecx, %edx
	movw	%bx, -2(%edx)
	movl	$-1, %ebx
	movw	%bx, -2(%eax)
	jne	.L1387
	jmp	.L1403
	.align 16
.L1364:
	testl	%esi, %esi
	jle	.L1368
	leal	(%esi,%esi), %ebp
	xorl	%eax, %eax
	movl	%ebx, 8(%esp)
	.align 16
.L1369:
	movzwl	(%ecx,%eax), %ebx
	movw	%bx, (%edx,%eax)
	addl	$2, %eax
	cmpl	%ebp, %eax
	jne	.L1369
	jmp	.L1402
	.cfi_endproc
.LFE217:
	.size	Mouse_Plot, .-Mouse_Plot
	.comm	prime_list,4,4
	.globl	len_plist
	.data
	.align 4
	.type	len_plist, @object
	.size	len_plist, 4
len_plist:
	.long	1
	.text
	.align 16
	.globl	is_prime
	.type	is_prime, @function
is_prime:
.LFB219:
	.cfi_startproc
	pushl	%edi
	.cfi_def_cfa_offset 8
	.cfi_offset 7, -8
	movl	len_plist, %edi
	pushl	%esi
	.cfi_def_cfa_offset 12
	.cfi_offset 6, -12
	pushl	%ebx
	.cfi_def_cfa_offset 16
	.cfi_offset 3, -16
	movl	prime_list, %ebx
	movl	16(%esp), %esi
	testl	%edi, %edi
	je	.L1408
	xorl	%edx, %edx
	movl	%esi, %eax
	divl	(%ebx)
	testl	%edx, %edx
	je	.L1414
	xorl	%ecx, %ecx
	jmp	.L1411
	.align 16
.L1412:
	xorl	%edx, %edx
	movl	%esi, %eax
	divl	(%ebx,%ecx,4)
	testl	%edx, %edx
	je	.L1414
.L1411:
	addl	$1, %ecx
	cmpl	%edi, %ecx
	jne	.L1412
	sall	$2, %edi
.L1408:
	movl	%esi, (%ebx,%edi)
	movl	$1, %eax
	addl	$1, len_plist
	popl	%ebx
	.cfi_remember_state
	.cfi_restore 3
	.cfi_def_cfa_offset 12
	popl	%esi
	.cfi_restore 6
	.cfi_def_cfa_offset 8
	popl	%edi
	.cfi_restore 7
	.cfi_def_cfa_offset 4
	ret
	.align 16
.L1414:
	.cfi_restore_state
	popl	%ebx
	.cfi_restore 3
	.cfi_def_cfa_offset 12
	xorl	%eax, %eax
	popl	%esi
	.cfi_restore 6
	.cfi_def_cfa_offset 8
	popl	%edi
	.cfi_restore 7
	.cfi_def_cfa_offset 4
	ret
	.cfi_endproc
.LFE219:
	.size	is_prime, .-is_prime
	.align 16
	.globl	prime_diff_graph
	.type	prime_diff_graph, @function
prime_diff_graph:
.LFB220:
	.cfi_startproc
	pushl	%ebp
	.cfi_def_cfa_offset 8
	.cfi_offset 5, -8
	pushl	%edi
	.cfi_def_cfa_offset 12
	.cfi_offset 7, -12
	movl	$1, %edi
	pushl	%esi
	.cfi_def_cfa_offset 16
	.cfi_offset 6, -16
	pushl	%ebx
	.cfi_def_cfa_offset 20
	.cfi_offset 3, -20
	xorl	%esi, %esi
	movl	$3, %ebx
	subl	$24, %esp
	.cfi_def_cfa_offset 44
	pushl	$8192
	.cfi_def_cfa_offset 48
	call	*kmalloc
	addl	$16, %esp
	.cfi_def_cfa_offset 32
	movl	%eax, prime_list
	movl	$2, (%eax)
	jmp	.L1418
	.align 16
.L1417:
	addl	$1, %ebx
	cmpl	$999, %esi
	ja	.L1424
.L1418:
	subl	$12, %esp
	.cfi_def_cfa_offset 44
	pushl	%ebx
	.cfi_def_cfa_offset 48
	call	is_prime
	addl	$16, %esp
	.cfi_def_cfa_offset 32
	testl	%eax, %eax
	je	.L1417
	movl	%ebx, %eax
	subl	$8, %esp
	.cfi_def_cfa_offset 40
	leal	1(%esi), %ebp
	subl	%edi, %eax
	movl	%ebx, %edi
	addl	$1, %ebx
	sall	$2, %eax
	pushl	%eax
	.cfi_def_cfa_offset 44
	pushl	%esi
	.cfi_def_cfa_offset 48
	movl	%ebp, %esi
	call	graph_plot
	addl	$16, %esp
	.cfi_def_cfa_offset 32
	cmpl	$999, %esi
	jbe	.L1418
.L1424:
	addl	$12, %esp
	.cfi_def_cfa_offset 20
	popl	%ebx
	.cfi_restore 3
	.cfi_def_cfa_offset 16
	popl	%esi
	.cfi_restore 6
	.cfi_def_cfa_offset 12
	popl	%edi
	.cfi_restore 7
	.cfi_def_cfa_offset 8
	popl	%ebp
	.cfi_restore 5
	.cfi_def_cfa_offset 4
	ret
	.cfi_endproc
.LFE220:
	.size	prime_diff_graph, .-prime_diff_graph
	.align 16
	.globl	graph_plot
	.type	graph_plot, @function
graph_plot:
.LFB221:
	.cfi_startproc
	pushl	%edi
	.cfi_def_cfa_offset 8
	.cfi_offset 7, -8
	pushl	%esi
	.cfi_def_cfa_offset 12
	.cfi_offset 6, -12
	movl	$760, %eax
	pushl	%ebx
	.cfi_def_cfa_offset 16
	.cfi_offset 3, -16
	subl	$16, %esp
	.cfi_def_cfa_offset 32
	movl	depthVESA, %ebx
	movl	cx0, %edi
	subl	36(%esp), %eax
	movl	32(%esp), %ecx
	leal	7(%ebx), %edx
	testl	%ebx, %ebx
	movl	%edi, (%esp)
	movl	(%esp), %edi
	leal	1(%ecx), %esi
	cmovns	%ebx, %edx
	movl	widthVESA, %ebx
	sarl	$3, %edx
	imull	%edx, %ebx
	imull	%ecx, %edx
	subl	$1, %ecx
	imull	%eax, %ebx
	addl	%ebx, %edx
	leal	1(%eax), %ebx
	subl	$1, %eax
	cmpl	%edi, %ecx
	jl	.L1426
	movl	(%esp), %ecx
.L1426:
	movl	%ecx, cx0
	movl	cx1, %ecx
	movl	%ecx, 4(%esp)
	movl	4(%esp), %ecx
	cmpl	%ecx, %esi
	jg	.L1427
	movl	4(%esp), %esi
.L1427:
	movl	%esi, cx1
	movl	cy0, %ecx
	movl	%ecx, 8(%esp)
	movl	8(%esp), %ecx
	cmpl	%ecx, %eax
	jl	.L1428
	movl	8(%esp), %eax
.L1428:
	movl	%eax, cy0
	movl	cy1, %eax
	movl	%eax, 12(%esp)
	movl	12(%esp), %eax
	cmpl	%eax, %ebx
	jg	.L1429
	movl	12(%esp), %ebx
.L1429:
	movl	buff, %eax
	movl	$-16, %ecx
	movl	%ebx, cy1
	movw	%cx, (%eax,%edx)
	addl	$16, %esp
	.cfi_def_cfa_offset 16
	popl	%ebx
	.cfi_restore 3
	.cfi_def_cfa_offset 12
	popl	%esi
	.cfi_restore 6
	.cfi_def_cfa_offset 8
	popl	%edi
	.cfi_restore 7
	.cfi_def_cfa_offset 4
	ret
	.cfi_endproc
.LFE221:
	.size	graph_plot, .-graph_plot
	.align 16
	.globl	random_plotter
	.type	random_plotter, @function
random_plotter:
.LFB222:
	.cfi_startproc
	pushl	%ebp
	.cfi_def_cfa_offset 8
	.cfi_offset 5, -8
	pushl	%edi
	.cfi_def_cfa_offset 12
	.cfi_offset 7, -12
	xorl	%eax, %eax
	pushl	%esi
	.cfi_def_cfa_offset 16
	.cfi_offset 6, -16
	pushl	%ebx
	.cfi_def_cfa_offset 20
	.cfi_offset 3, -20
	subl	$24, %esp
	.cfi_def_cfa_offset 44
/APP
/  37 "Library/sys.h" 1
	outb %al, $112
/  0 "" 2
/  45 "Library/sys.h" 1
	inb $113, %al
/  0 "" 2
/NO_APP
	movzbl	%al, %eax
	movl	$100000, %ebx
	movl	$274877907, %esi
	addl	$9, %eax
	movl	%eax, seed1
	movl	HPET_main_counter, %eax
	movl	(%eax), %eax
	leal	3(%eax,%eax,2), %eax
	movl	%eax, seed2
	movl	Lapic, %eax
	movl	912(%eax), %eax
	pushl	$4096
	.cfi_def_cfa_offset 48
	addl	$999, %eax
	movl	%eax, seed3
	call	*kmalloc
	addl	$16, %esp
	.cfi_def_cfa_offset 32
	movl	%eax, %edi
	.align 16
.L1432:
	call	random
	movl	%eax, %ecx
	subl	$8, %esp
	.cfi_def_cfa_offset 40
	mull	%esi
	shrl	$6, %edx
	imull	$1000, %edx, %edx
	subl	%edx, %ecx
	leal	(%edi,%ecx,4), %ebp
	movl	0(%ebp), %eax
	addl	$100, %eax
	pushl	%eax
	.cfi_def_cfa_offset 44
	pushl	%ecx
	.cfi_def_cfa_offset 48
	call	graph_plot
	addl	$1, 0(%ebp)
	addl	$16, %esp
	.cfi_def_cfa_offset 32
	subl	$1, %ebx
	jne	.L1432
	addl	$12, %esp
	.cfi_def_cfa_offset 20
	popl	%ebx
	.cfi_restore 3
	.cfi_def_cfa_offset 16
	popl	%esi
	.cfi_restore 6
	.cfi_def_cfa_offset 12
	popl	%edi
	.cfi_restore 7
	.cfi_def_cfa_offset 8
	popl	%ebp
	.cfi_restore 5
	.cfi_def_cfa_offset 4
	ret
	.cfi_endproc
.LFE222:
	.size	random_plotter, .-random_plotter
	.globl	next
	.section	.bss
	.align 4
	.type	next, @object
	.size	next, 4
next:
	.zero	4
	.comm	time,4,4
	.globl	ticks
	.data
	.align 4
	.type	ticks, @object
	.size	ticks, 4
ticks:
	.long	5
	.text
	.align 16
	.globl	rand
	.type	rand, @function
rand:
.LFB566:
	.cfi_startproc
	jmp	seeder
	.cfi_endproc
.LFE566:
	.size	rand, .-rand
	.align 16
	.globl	srand
	.type	srand, @function
srand:
.LFB224:
	.cfi_startproc
	pushl	%ebx
	.cfi_def_cfa_offset 8
	.cfi_offset 3, -8
	movl	next, %ecx
	movl	$175921861, %ebx
	addl	8(%esp), %ecx
	movl	%ecx, %edx
	shrl	$5, %edx
	movl	%edx, %eax
	mull	%ebx
	popl	%ebx
	.cfi_restore 3
	.cfi_def_cfa_offset 4
	shrl	$7, %edx
	imull	$100000, %edx, %edx
	subl	%edx, %ecx
	movl	%ecx, next
	ret
	.cfi_endproc
.LFE224:
	.size	srand, .-srand
	.align 16
	.globl	srandInit
	.type	srandInit, @function
srandInit:
.LFB225:
	.cfi_startproc
	pushl	%ebx
	.cfi_def_cfa_offset 8
	.cfi_offset 3, -8
	xorl	%eax, %eax
/APP
/  37 "Library/sys.h" 1
	outb %al, $112
/  0 "" 2
/  45 "Library/sys.h" 1
	inb $113, %al
/  0 "" 2
/NO_APP
	movzbl	%al, %ecx
	movl	next, %eax
	movl	$175921861, %ebx
	movl	%ecx, time
	addl	%eax, %ecx
	movl	%ecx, %edx
	shrl	$5, %edx
	movl	%edx, %eax
	mull	%ebx
	popl	%ebx
	.cfi_restore 3
	.cfi_def_cfa_offset 4
	shrl	$7, %edx
	imull	$100000, %edx, %edx
	subl	%edx, %ecx
	movl	%ecx, next
	ret
	.cfi_endproc
.LFE225:
	.size	srandInit, .-srandInit
	.align 16
	.globl	seeder
	.type	seeder, @function
seeder:
.LFB226:
	.cfi_startproc
	movl	next, %eax
	imull	$1103515245, %eax, %eax
	addl	$12345, %eax
	movl	%eax, next
	movl	next, %eax
	shrl	$16, %eax
	ret
	.cfi_endproc
.LFE226:
	.size	seeder, .-seeder
	.align 16
	.globl	init_timer_RTC
	.type	init_timer_RTC, @function
init_timer_RTC:
.LFB227:
	.cfi_startproc
/APP
/  9 "Source/Drivers/timer/timer.c" 1
	cli
/  0 "" 2
/NO_APP
	movl	$-118, %eax
/APP
/  37 "Library/sys.h" 1
	outb %al, $112
/  0 "" 2
/  45 "Library/sys.h" 1
	inb $113, %al
/  0 "" 2
/NO_APP
	movl	%eax, %edx
	movl	$-118, %eax
/APP
/  37 "Library/sys.h" 1
	outb %al, $112
/  0 "" 2
/NO_APP
	movl	%edx, %eax
	andl	$-16, %eax
	orl	$5, %eax
/APP
/  37 "Library/sys.h" 1
	outb %al, $113
/  0 "" 2
/NO_APP
	ret
	.cfi_endproc
.LFE227:
	.size	init_timer_RTC, .-init_timer_RTC
	.align 16
	.globl	apic_start_timer
	.type	apic_start_timer, @function
apic_start_timer:
.LFB228:
	.cfi_startproc
	pushl	%ebx
	.cfi_def_cfa_offset 8
	.cfi_offset 3, -8
	subl	$12, %esp
	.cfi_def_cfa_offset 20
	movl	20(%esp), %ebx
	pushl	$3
	.cfi_def_cfa_offset 24
	pushl	$992
	.cfi_def_cfa_offset 28
	pushl	%ebx
	.cfi_def_cfa_offset 32
	call	localapic_write
	addl	$12, %esp
	.cfi_def_cfa_offset 20
	pushl	$-1
	.cfi_def_cfa_offset 24
	pushl	$896
	.cfi_def_cfa_offset 28
	pushl	%ebx
	.cfi_def_cfa_offset 32
	call	localapic_write
	addl	$12, %esp
	.cfi_def_cfa_offset 20
	pushl	$65536
	.cfi_def_cfa_offset 24
	pushl	$800
	.cfi_def_cfa_offset 28
	pushl	%ebx
	.cfi_def_cfa_offset 32
	call	localapic_write
	addl	$12, %esp
	.cfi_def_cfa_offset 20
	pushl	$51
	.cfi_def_cfa_offset 24
	pushl	$800
	.cfi_def_cfa_offset 28
	pushl	%ebx
	.cfi_def_cfa_offset 32
	call	localapic_write
	addl	$12, %esp
	.cfi_def_cfa_offset 20
	pushl	$3
	.cfi_def_cfa_offset 24
	pushl	$992
	.cfi_def_cfa_offset 28
	pushl	%ebx
	.cfi_def_cfa_offset 32
	call	localapic_write
	addl	$12, %esp
	.cfi_def_cfa_offset 20
	pushl	$1
	.cfi_def_cfa_offset 24
	pushl	$896
	.cfi_def_cfa_offset 28
	pushl	%ebx
	.cfi_def_cfa_offset 32
	call	localapic_write
	addl	$24, %esp
	.cfi_def_cfa_offset 8
	popl	%ebx
	.cfi_restore 3
	.cfi_def_cfa_offset 4
	ret
	.cfi_endproc
.LFE228:
	.size	apic_start_timer, .-apic_start_timer
	.align 16
	.globl	init_timer
	.type	init_timer, @function
init_timer:
.LFB229:
	.cfi_startproc
/APP
/  58 "Source/Drivers/timer/timer.c" 1
	cli
/  0 "" 2
/NO_APP
	xorl	%edx, %edx
	movl	$1193180, %eax
	divl	4(%esp)
	movl	%eax, %ecx
	movl	$54, %eax
/APP
/  37 "Library/sys.h" 1
	outb %al, $67
/  0 "" 2
/NO_APP
	movl	%ecx, %eax
/APP
/  37 "Library/sys.h" 1
	outb %al, $64
/  0 "" 2
/NO_APP
	movl	%ecx, %eax
	shrl	$8, %eax
/APP
/  37 "Library/sys.h" 1
	outb %al, $64
/  0 "" 2
/  45 "Library/sys.h" 1
	inb $33, %al
/  0 "" 2
/NO_APP
	andl	$-2, %eax
/APP
/  37 "Library/sys.h" 1
	outb %al, $33
/  0 "" 2
/NO_APP
	ret
	.cfi_endproc
.LFE229:
	.size	init_timer, .-init_timer
	.globl	delay_dump
	.section	.bss
	.align 4
	.type	delay_dump, @object
	.size	delay_dump, 4
delay_dump:
	.zero	4
	.text
	.align 16
	.globl	delay1
	.type	delay1, @function
delay1:
.LFB230:
	.cfi_startproc
	pushl	%edi
	.cfi_def_cfa_offset 8
	.cfi_offset 7, -8
	pushl	%esi
	.cfi_def_cfa_offset 12
	.cfi_offset 6, -12
	xorl	%eax, %eax
	pushl	%ebx
	.cfi_def_cfa_offset 16
	.cfi_offset 3, -16
	subl	$20, %esp
	.cfi_def_cfa_offset 36
/APP
/  37 "Library/sys.h" 1
	outb %al, $112
/  0 "" 2
/  45 "Library/sys.h" 1
	inb $113, %al
/  0 "" 2
/NO_APP
	movzbl	%al, %ecx
	movl	next, %eax
	movl	$175921861, %edx
	movl	%ecx, time
	movl	36(%esp), %ebx
	fldz
	movl	$175921861, %esi
	addl	%eax, %ecx
	movl	%ecx, %eax
	sall	$9, %ebx
	shrl	$5, %eax
	mull	%edx
	movl	%edx, %eax
	shrl	$7, %eax
	imull	$100000, %eax, %eax
	subl	%eax, %ecx
	movl	%ecx, next
	xorl	%ecx, %ecx
	testl	%ebx, %ebx
	fstps	16(%esp)
	je	.L1449
	.align 16
.L1450:
	movl	next, %eax
	flds	.LC218
	leal	100(%ecx,%eax), %edi
	movl	%edi, %edx
	shrl	$5, %edx
	movl	%edx, %eax
	mull	%esi
	shrl	$7, %edx
	imull	$100000, %edx, %edx
	subl	%edx, %edi
	movl	$500, %edx
	movl	%edi, next
	.align 16
.L1447:
	movl	next, %eax
	imull	$1103515245, %eax, %eax
	addl	$12345, %eax
	movl	%eax, next
	movl	next, %eax
	shrl	$16, %eax
	subl	$1, %edx
	movl	%eax, (%esp)
	fildl	(%esp)
	fstps	16(%esp)
	flds	16(%esp)
	fdiv	%st(1), %st
	fstps	16(%esp)
	jne	.L1447
	fstp	%st(0)
	addl	$1, %ecx
	cmpl	%ebx, %ecx
	jne	.L1450
.L1449:
	flds	16(%esp)
	flds	delay_dump
	fxch	%st(1)
	fdivs	.LC217
	faddp	%st, %st(1)
	fstps	delay_dump
	addl	$20, %esp
	.cfi_def_cfa_offset 16
	popl	%ebx
	.cfi_restore 3
	.cfi_def_cfa_offset 12
	popl	%esi
	.cfi_restore 6
	.cfi_def_cfa_offset 8
	popl	%edi
	.cfi_restore 7
	.cfi_def_cfa_offset 4
	ret
	.cfi_endproc
.LFE230:
	.size	delay1, .-delay1
	.align 16
	.globl	check_apic
	.type	check_apic, @function
check_apic:
.LFB231:
	.cfi_startproc
	pushl	%ebx
	.cfi_def_cfa_offset 8
	.cfi_offset 3, -8
	movl	$1, %eax
/APP
/  13 "Source/arch/x86/APIC/apic.c" 1
	cpuid
/  0 "" 2
/NO_APP
	movl	%edx, %eax
	shrl	$9, %eax
	andl	$1, %eax
	popl	%ebx
	.cfi_restore 3
	.cfi_def_cfa_offset 4
	ret
	.cfi_endproc
.LFE231:
	.size	check_apic, .-check_apic
	.align 16
	.globl	cpu_get_apic_base
	.type	cpu_get_apic_base, @function
cpu_get_apic_base:
.LFB232:
	.cfi_startproc
	movl	$27, %ecx
/APP
/  25 "Source/arch/x86/cpu/cpu.c" 1
	rdmsr
/  0 "" 2
/NO_APP
	andl	$-4096, %eax
	ret
	.cfi_endproc
.LFE232:
	.size	cpu_get_apic_base, .-cpu_get_apic_base
	.align 16
	.globl	BSP_init_LAPIC
	.type	BSP_init_LAPIC, @function
BSP_init_LAPIC:
.LFB233:
	.cfi_startproc
	subl	$28, %esp
	.cfi_def_cfa_offset 32
	subl	$4, %esp
	.cfi_def_cfa_offset 36
	pushl	$31
	.cfi_def_cfa_offset 40
	pushl	$880
	.cfi_def_cfa_offset 44
	pushl	44(%esp)
	.cfi_def_cfa_offset 48
	call	localapic_write
	addl	$16, %esp
	.cfi_def_cfa_offset 32
	subl	$4, %esp
	.cfi_def_cfa_offset 36
	pushl	$0
	.cfi_def_cfa_offset 40
	pushl	$128
	.cfi_def_cfa_offset 44
	pushl	44(%esp)
	.cfi_def_cfa_offset 48
	call	localapic_write
	addl	$16, %esp
	.cfi_def_cfa_offset 32
	subl	$4, %esp
	.cfi_def_cfa_offset 36
	pushl	$-1
	.cfi_def_cfa_offset 40
	pushl	$224
	.cfi_def_cfa_offset 44
	pushl	44(%esp)
	.cfi_def_cfa_offset 48
	call	localapic_write
	addl	$16, %esp
	.cfi_def_cfa_offset 32
	subl	$4, %esp
	.cfi_def_cfa_offset 36
	pushl	$16777216
	.cfi_def_cfa_offset 40
	pushl	$208
	.cfi_def_cfa_offset 44
	pushl	44(%esp)
	.cfi_def_cfa_offset 48
	call	localapic_write
	addl	$16, %esp
	.cfi_def_cfa_offset 32
	subl	$4, %esp
	.cfi_def_cfa_offset 36
	pushl	$511
	.cfi_def_cfa_offset 40
	pushl	$240
	.cfi_def_cfa_offset 44
	pushl	44(%esp)
	.cfi_def_cfa_offset 48
	call	localapic_write
	addl	$16, %esp
	.cfi_def_cfa_offset 32
	movl	32(%esp), %eax
	movl	%eax, Lapic
	movl	Lapic, %eax
	movl	48(%eax), %eax
	movl	%eax, 12(%esp)
	andl	$255, 12(%esp)
	nop
	addl	$28, %esp
	.cfi_def_cfa_offset 4
	ret
	.cfi_endproc
.LFE233:
	.size	BSP_init_LAPIC, .-BSP_init_LAPIC
	.align 16
	.globl	AP_init_LAPIC
	.type	AP_init_LAPIC, @function
AP_init_LAPIC:
.LFB234:
	.cfi_startproc
	subl	$12, %esp
	.cfi_def_cfa_offset 16
	movl	APIC_LOCAL_BASE, %eax
	subl	$4, %esp
	.cfi_def_cfa_offset 20
	pushl	$31
	.cfi_def_cfa_offset 24
	pushl	$880
	.cfi_def_cfa_offset 28
	pushl	%eax
	.cfi_def_cfa_offset 32
	call	localapic_write
	addl	$16, %esp
	.cfi_def_cfa_offset 16
	movl	APIC_LOCAL_BASE, %eax
	subl	$4, %esp
	.cfi_def_cfa_offset 20
	pushl	$0
	.cfi_def_cfa_offset 24
	pushl	$128
	.cfi_def_cfa_offset 28
	pushl	%eax
	.cfi_def_cfa_offset 32
	call	localapic_write
	addl	$16, %esp
	.cfi_def_cfa_offset 16
	movl	APIC_LOCAL_BASE, %eax
	subl	$4, %esp
	.cfi_def_cfa_offset 20
	pushl	$-1
	.cfi_def_cfa_offset 24
	pushl	$224
	.cfi_def_cfa_offset 28
	pushl	%eax
	.cfi_def_cfa_offset 32
	call	localapic_write
	addl	$16, %esp
	.cfi_def_cfa_offset 16
	movl	APIC_LOCAL_BASE, %eax
	subl	$4, %esp
	.cfi_def_cfa_offset 20
	pushl	$16777216
	.cfi_def_cfa_offset 24
	pushl	$208
	.cfi_def_cfa_offset 28
	pushl	%eax
	.cfi_def_cfa_offset 32
	call	localapic_write
	addl	$16, %esp
	.cfi_def_cfa_offset 16
	movl	APIC_LOCAL_BASE, %eax
	subl	$4, %esp
	.cfi_def_cfa_offset 20
	pushl	$511
	.cfi_def_cfa_offset 24
	pushl	$240
	.cfi_def_cfa_offset 28
	pushl	%eax
	.cfi_def_cfa_offset 32
	call	localapic_write
	addl	$16, %esp
	.cfi_def_cfa_offset 16
	nop
	addl	$12, %esp
	.cfi_def_cfa_offset 4
	ret
	.cfi_endproc
.LFE234:
	.size	AP_init_LAPIC, .-AP_init_LAPIC
	.section	.rodata
.LC219:
	.string	"\nInitializing IO APIC!!!"
.LC220:
	.string	"RSDT"
.LC221:
	.string	"APIC"
.LC222:
	.string	"\nGot the MADT Structure"
.LC223:
	.string	"\n\tLocal APIC Found"
.LC224:
	.string	"\t\t\t%gLAPIC USABILITY: %x%g"
.LC225:
	.string	"\n\tIO APIC Found"
	.align 4
.LC226:
	.string	" id: %x, address: %x, GSIB: %x"
	.align 4
.LC227:
	.string	"\n\tInterrupt Source Override Found"
	.text
	.align 16
	.globl	MADTapic_parse
	.type	MADTapic_parse, @function
MADTapic_parse:
.LFB235:
	.cfi_startproc
	pushl	%ebp
	.cfi_def_cfa_offset 8
	.cfi_offset 5, -8
	pushl	%edi
	.cfi_def_cfa_offset 12
	.cfi_offset 7, -12
	pushl	%esi
	.cfi_def_cfa_offset 16
	.cfi_offset 6, -16
	pushl	%ebx
	.cfi_def_cfa_offset 20
	.cfi_offset 3, -20
	subl	$24, %esp
	.cfi_def_cfa_offset 44
	pushl	$.LC219
	.cfi_def_cfa_offset 48
	call	printf
	call	acpiGetRSDPtr
	addl	$16, %esp
	.cfi_def_cfa_offset 32
	testl	%eax, %eax
	je	.L1461
	subl	$8, %esp
	.cfi_def_cfa_offset 40
	movl	%eax, %esi
	pushl	$.LC220
	.cfi_def_cfa_offset 44
	pushl	%eax
	.cfi_def_cfa_offset 48
	call	acpiCheckHeader
	addl	$16, %esp
	.cfi_def_cfa_offset 32
	testl	%eax, %eax
	jne	.L1461
	movl	4(%esi), %eax
	addl	$36, %esi
	subl	$36, %eax
	shrl	$2, %eax
	testl	%eax, %eax
	je	.L1461
	leal	(%esi,%eax,4), %edi
	jmp	.L1470
	.align 16
.L1464:
	addl	$4, %esi
	cmpl	%esi, %edi
	je	.L1461
.L1470:
	subl	$8, %esp
	.cfi_def_cfa_offset 40
	pushl	$.LC221
	.cfi_def_cfa_offset 44
	pushl	(%esi)
	.cfi_def_cfa_offset 48
	call	acpiCheckHeader
	addl	$16, %esp
	.cfi_def_cfa_offset 32
	testl	%eax, %eax
	jne	.L1464
	subl	$12, %esp
	.cfi_def_cfa_offset 44
	pushl	$.LC222
	.cfi_def_cfa_offset 48
	call	printf
	movl	(%esi), %ebx
	addl	$16, %esp
	.cfi_def_cfa_offset 32
	movl	%ebx, madt
	addl	$44, %ebx
	.align 16
.L1465:
	movzbl	(%ebx), %eax
	cmpb	$1, %al
	je	.L1468
.L1476:
	jb	.L1466
	cmpb	$2, %al
	jne	.L1464
	subl	$12, %esp
	.cfi_def_cfa_offset 44
	pushl	$.LC227
	.cfi_def_cfa_offset 48
	call	printf
	leal	2(%ebx), %eax
	addl	$10, %ebx
	addl	$16, %esp
	.cfi_def_cfa_offset 32
	movl	%eax, ISD_entry
	movzbl	(%ebx), %eax
	cmpb	$1, %al
	jne	.L1476
.L1468:
	subl	$12, %esp
	.cfi_def_cfa_offset 44
	pushl	$.LC225
	.cfi_def_cfa_offset 48
	call	printf
	leal	2(%ebx), %eax
	movl	8(%ebx), %ecx
	movl	4(%ebx), %edx
	movl	%eax, IOAPIC_entry
	movzbl	2(%ebx), %eax
	pushl	%ecx
	.cfi_def_cfa_offset 52
	pushl	%edx
	.cfi_def_cfa_offset 56
	movzbl	%al, %eax
	pushl	%eax
	.cfi_def_cfa_offset 60
	pushl	$.LC226
	.cfi_def_cfa_offset 64
	call	printf
	movl	IOAPIC_entry, %ebx
	addl	$32, %esp
	.cfi_def_cfa_offset 32
	movl	2(%ebx), %eax
	addl	$10, %ebx
	movl	%eax, APIC_IO_BASE
	jmp	.L1465
	.align 16
.L1466:
	subl	$12, %esp
	.cfi_def_cfa_offset 44
	addl	$1, total_CPU_Cores
	leal	8(%ebx), %ebp
	pushl	$.LC223
	.cfi_def_cfa_offset 48
	call	printf
	leal	2(%ebx), %eax
	movl	%eax, LAPIC_entry
	movl	4(%ebx), %eax
	movl	%ebp, %ebx
	pushl	$0
	.cfi_def_cfa_offset 52
	andl	$1, %eax
	pushl	%eax
	.cfi_def_cfa_offset 56
	pushl	$10
	.cfi_def_cfa_offset 60
	pushl	$.LC224
	.cfi_def_cfa_offset 64
	call	printf
	addl	$32, %esp
	.cfi_def_cfa_offset 32
	jmp	.L1465
	.align 16
.L1461:
	addl	$12, %esp
	.cfi_def_cfa_offset 20
	popl	%ebx
	.cfi_restore 3
	.cfi_def_cfa_offset 16
	popl	%esi
	.cfi_restore 6
	.cfi_def_cfa_offset 12
	popl	%edi
	.cfi_restore 7
	.cfi_def_cfa_offset 8
	popl	%ebp
	.cfi_restore 5
	.cfi_def_cfa_offset 4
	ret
	.cfi_endproc
.LFE235:
	.size	MADTapic_parse, .-MADTapic_parse
	.section	.rodata
.LC228:
	.string	"Unknown x86 CPU Detected\n"
	.text
	.align 16
	.globl	detect_cpu
	.type	detect_cpu, @function
detect_cpu:
.LFB237:
	.cfi_startproc
	pushl	%ebx
	.cfi_def_cfa_offset 8
	.cfi_offset 3, -8
	xorl	%eax, %eax
	subl	$8, %esp
	.cfi_def_cfa_offset 16
/APP
/  31 "Source/arch/x86/cpuid/cpuid.c" 1
	cpuid
/  0 "" 2
/NO_APP
	cmpl	$1752462657, %ebx
	je	.L1479
	cmpl	$1970169159, %ebx
	je	.L1484
	subl	$12, %esp
	.cfi_def_cfa_offset 28
	pushl	$.LC228
	.cfi_def_cfa_offset 32
	call	printf
	addl	$16, %esp
	.cfi_def_cfa_offset 16
	xorl	%eax, %eax
	addl	$8, %esp
	.cfi_remember_state
	.cfi_def_cfa_offset 8
	popl	%ebx
	.cfi_restore 3
	.cfi_def_cfa_offset 4
	ret
	.align 16
.L1484:
	.cfi_restore_state
	call	do_intel
	addl	$8, %esp
	.cfi_remember_state
	.cfi_def_cfa_offset 8
	xorl	%eax, %eax
	popl	%ebx
	.cfi_restore 3
	.cfi_def_cfa_offset 4
	ret
	.align 16
.L1479:
	.cfi_restore_state
	call	do_amd
	addl	$8, %esp
	.cfi_def_cfa_offset 8
	xorl	%eax, %eax
	popl	%ebx
	.cfi_restore 3
	.cfi_def_cfa_offset 4
	ret
	.cfi_endproc
.LFE237:
	.size	detect_cpu, .-detect_cpu
	.globl	Intel
	.section	.rodata
.LC229:
	.string	"Brand ID Not Supported."
.LC230:
	.string	"Intel(R) Celeron(R) processor"
	.align 4
.LC231:
	.string	"Intel(R) Pentium(R) III processor"
